 PhysXCooking_64

 Timestamp is 65f5ebef (Sat Mar 16 14:58:55 2024)

 Preferred load address is 0000000180000000

 Start         Length     Name                   Class
 0001:00000000 000003c0H .text$di                CODE
 0001:000003c0 00046160H .text$mn                CODE
 0001:00046520 00000040H .text$mn$00             CODE
 0001:00046560 00000620H .text$x                 CODE
 0002:00000000 00000278H .idata$5                DATA
 0002:00000278 00000028H .00cfg                  DATA
 0002:000002a0 00000008H .CRT$XCA                DATA
 0002:000002a8 000001e0H .CRT$XCU                DATA
 0002:00000488 00000008H .CRT$XCZ                DATA
 0002:00000490 00000008H .CRT$XIA                DATA
 0002:00000498 00000018H .CRT$XIC                DATA
 0002:000004b0 00000008H .CRT$XIZ                DATA
 0002:000004b8 00000008H .CRT$XPA                DATA
 0002:000004c0 00000010H .CRT$XPX                DATA
 0002:000004d0 00000008H .CRT$XPXA               DATA
 0002:000004d8 00000008H .CRT$XPZ                DATA
 0002:000004e0 00000008H .CRT$XTA                DATA
 0002:000004e8 00000008H .CRT$XTZ                DATA
 0002:000004f0 00000000H .gehcont$y              DATA
 0002:000004f0 00000000H .gfids$y                DATA
 0002:000004f0 0000b510H .rdata                  DATA
 0002:0000ba00 00000000H .rdata$CastGuardVftablesA DATA
 0002:0000ba00 00000000H .rdata$CastGuardVftablesC DATA
 0002:0000ba00 0000043cH .rdata$r                DATA
 0002:0000be3c 000001d4H .rdata$voltmd           DATA
 0002:0000c010 00000408H .rdata$zzzdbg           DATA
 0002:0000c418 00000008H .rtc$IAA                DATA
 0002:0000c420 00000008H .rtc$IZZ                DATA
 0002:0000c428 00000008H .rtc$TAA                DATA
 0002:0000c430 00000008H .rtc$TZZ                DATA
 0002:0000c438 00003e18H .xdata                  DATA
 0002:00010250 00000084H .xdata$x                DATA
 0002:000102d4 00000040H .didat$2                DATA
 0002:00010314 00000024H .didat$3                DATA
 0002:00010338 000001b0H .didat$4                DATA
 0002:000104e8 00000a50H .didat$6                DATA
 0002:00010f38 000001b8H .didat$7                DATA
 0002:000110f0 00001d34H .edata                  DATA
 0002:00012e24 00000014H .idata$2                DATA
 0002:00012e38 00000018H .idata$3                DATA
 0002:00012e50 00000278H .idata$4                DATA
 0002:000130c8 000005aeH .idata$6                DATA
 0003:00000000 00000a30H .data                   DATA
 0003:00000a30 00000358H .data$r                 DATA
 0003:00000d88 000000f0H .data$rs                DATA
 0003:00000e78 000001b8H .didat$5                DATA
 0003:00001030 000015d0H .bss                    DATA
 0004:00000000 000032acH .pdata                  DATA
 0005:00000000 0000230cH _RDATA                  DATA
 0006:00000000 000000a0H .rsrc$01                DATA
 0006:000000a0 000004b0H .rsrc$02                DATA

  Address         Publics by Value              Rva+Base               Lib:Object

 0000:00000000       __x64_code_ranges_to_entry_points_count 0000000000000000     <absolute>
 0000:00000000       __x64_code_ranges_to_entry_points 0000000000000000     <absolute>
 0000:00000000       __arm64x_redirection_metadata 0000000000000000     <absolute>
 0000:00000000       __guard_fids_count         0000000000000000     <absolute>
 0000:00000000       __guard_iat_table          0000000000000000     <absolute>
 0000:00000000       __arm64x_extra_rfe_table   0000000000000000     <absolute>
 0000:00000000       ___safe_se_handler_table   0000000000000000     <absolute>
 0000:00000000       __guard_iat_count          0000000000000000     <absolute>
 0000:00000000       __guard_longjmp_count      0000000000000000     <absolute>
 0000:00000000       __dynamic_value_reloc_table 0000000000000000     <absolute>
 0000:00000000       __hybrid_code_map          0000000000000000     <absolute>
 0000:00000000       __arm64x_extra_rfe_table_size 0000000000000000     <absolute>
 0000:00000000       __hybrid_auxiliary_iat     0000000000000000     <absolute>
 0000:00000000       __guard_longjmp_table      0000000000000000     <absolute>
 0000:00000000       ___safe_se_handler_count   0000000000000000     <absolute>
 0000:00000000       __hybrid_auxiliary_iat_copy 0000000000000000     <absolute>
 0000:00000000       __AbsoluteZero             0000000000000000     <absolute>
 0000:00000000       __guard_check_icall_a64n_fptr 0000000000000000     <absolute>
 0000:00000000       __guard_eh_cont_count      0000000000000000     <absolute>
 0000:00000000       __guard_fids_table         0000000000000000     <absolute>
 0000:00000000       __arm64x_redirection_metadata_count 0000000000000000     <absolute>
 0000:00000000       __enclave_config           0000000000000000     <absolute>
 0000:00000000       __guard_eh_cont_table      0000000000000000     <absolute>
 0000:00000000       __arm64x_native_entrypoint 0000000000000000     <absolute>
 0000:00000000       __hybrid_code_map_count    0000000000000000     <absolute>
 0000:00000100       __guard_flags              0000000000000100     <absolute>
 0000:00000000       __ImageBase                0000000180000000     <linker-defined>
 0001:000003c0       ??$?_UV?$ReflectionAllocator@VAdjTriangle@physx@@@shdfnd@physx@@@UserAllocated@shdfnd@physx@@SAPEAX_KV?$ReflectionAllocator@VAdjTriangle@physx@@@12@PEBDH@Z 00000001800013c0 f i Adjacencies.obj
 0001:00000460       ??0AdjacenciesBuilder@physx@@QEAA@XZ 0000000180001460 f   Adjacencies.obj
 0001:00000470       ??4Allocator@shdfnd@physx@@QEAAAEAV012@$$QEAV012@@Z 0000000180001470 f i Adjacencies.obj
 0001:00000470       ??0Box@Gu@physx@@QEAA@XZ   0000000180001470 f i ConvexHullUtils.obj
 0001:00000470       ?getAABB@AABBTreeBuildNode@Gu@physx@@QEBAAEBVPxBounds3@3@XZ 0000000180001470 f i BVHStructureBuilder.obj
 0001:00000470       ??0BigConvexData@physx@@QEAA@W4PxEMPTY@1@@Z 0000000180001470 f i BigConvexDataBuilder.obj
 0001:00000470       ??0HeightFieldData@Gu@physx@@QEAA@W4PxEMPTY@2@@Z 0000000180001470 f i Cooking.obj
 0001:00000470       ??4MutexImpl@shdfnd@physx@@QEAAAEAV012@AEBV012@@Z 0000000180001470 f i Adjacencies.obj
 0001:00000470       ??0Allocator@shdfnd@physx@@QEAA@PEBD@Z 0000000180001470 f i Adjacencies.obj
 0001:00000470       ??4Allocator@shdfnd@physx@@QEAAAEAV012@AEBV012@@Z 0000000180001470 f i Adjacencies.obj
 0001:00000470       ?getPaddedBounds@HeightFieldData@Gu@physx@@QEBAAEBVCenterExtentsPadded@23@XZ 0000000180001470 f i Cooking.obj
 0001:00000470       ??$forward@_K@std@@YA$$QEA_KAEA_K@Z 0000000180001470 f i libvcruntime:undname.obj
 0001:00000470       ??4PxFoundation@physx@@QEAAAEAV01@AEBV01@@Z 0000000180001470 f i Adjacencies.obj
 0001:00000470       ??0AABBTreeBuildNode@Gu@physx@@QEAA@XZ 0000000180001470 f i BVHStructureBuilder.obj
 0001:00000480       ??0PxFoundation@physx@@QEAA@XZ 0000000180001480 f i Adjacencies.obj
 0001:00000480       ??0PxFoundation@physx@@QEAA@AEBV01@@Z 0000000180001480 f i Adjacencies.obj
 0001:00000490       ??1Adjacencies@physx@@QEAA@XZ 0000000180001490 f   Adjacencies.obj
 0001:00000500       ??1AdjacenciesBuilder@physx@@QEAA@XZ 0000000180001500 f   Adjacencies.obj
 0001:00000510       ??1PxFoundation@physx@@MEAA@XZ 0000000180001510 f i Adjacencies.obj
 0001:00000520       ??_EPxFoundation@physx@@MEAAPEAXI@Z 0000000180001520 f i Adjacencies.obj
 0001:000005b0       ??_FAllocator@shdfnd@physx@@QEAAXXZ 00000001800015b0 f i Adjacencies.obj
 0001:000005b0       ??1Box@Gu@physx@@QEAA@XZ   00000001800015b0 f i ConvexHullUtils.obj
 0001:000005b0       ??1AABBTreeBuildNode@Gu@physx@@QEAA@XZ 00000001800015b0 f i BVHStructureBuilder.obj
 0001:000005b0       ??1BigConvexDataBuilder@physx@@QEAA@XZ 00000001800015b0 f i BigConvexDataBuilder.obj
 0001:000005b0       _guard_check_icall_nop     00000001800015b0 f i LIBCMT:guard_support.obj
 0001:000005b0       ??1HeightFieldData@Gu@physx@@QEAA@XZ 00000001800015b0 f i Cooking.obj
 0001:000005b0       ?onMeshIndexFormatChange@TriangleMeshBuilder@physx@@UEAAXXZ 00000001800015b0 f i TriangleMeshBuilder.obj
 0001:000005c0       ??_FNamedAllocator@shdfnd@physx@@QEAAXXZ 00000001800015c0 f i Adjacencies.obj
 0001:000005d0       ?ComputeNbBoundaryEdges@Adjacencies@physx@@QEBAIXZ 00000001800015d0 f   Adjacencies.obj
 0001:000008b0       ?GetNbHits@RadixSort@Cm@physx@@QEBAIXZ 00000001800018b0 f i Adjacencies.obj
 0001:000008c0       ?GetNbTotalCalls@RadixSort@Cm@physx@@QEBAIXZ 00000001800018c0 f i Adjacencies.obj
 0001:000008d0       ?getErrorCallback@Foundation@shdfnd@physx@@UEAAAEAVPxErrorCallback@3@XZ 00000001800018d0 f i Adjacencies.obj
 0001:000008d0       ?GetRanks@RadixSort@Cm@physx@@QEBAPEBIXZ 00000001800018d0 f i Adjacencies.obj
 0001:000008e0       ?GetValencies@BigConvexData@physx@@QEBAPEBUValency@Gu@2@XZ 00000001800018e0 f i BigConvexDataBuilder.obj
 0001:000008e0       ?getPos@AABBTreeBuildNode@Gu@physx@@QEBAPEBV123@XZ 00000001800018e0 f i BVHStructureBuilder.obj
 0001:000008e0       ?GetRecyclable@RadixSort@Cm@physx@@QEBAPEAIXZ 00000001800018e0 f i Adjacencies.obj
 0001:000008f0       ?Init@AdjacenciesBuilder@physx@@QEAA_NAEBUADJACENCIESCREATE@2@@Z 00000001800018f0 f   Adjacencies.obj
 0001:00000ea0       ?getAllocator@Foundation@shdfnd@physx@@QEAAAEAVPxAllocatorCallback@3@XZ 0000000180001ea0 f i Adjacencies.obj
 0001:00000eb0       ?getAllocatorCallback@Foundation@shdfnd@physx@@UEAAAEAVPxAllocatorCallback@3@XZ 0000000180001eb0 f i Adjacencies.obj
 0001:00000ec0       ?getErrorLevel@Foundation@shdfnd@physx@@UEBA?AW4Enum@PxErrorCode@3@XZ 0000000180001ec0 f i Adjacencies.obj
 0001:00000ed0       ?getInternalErrorCallback@Foundation@shdfnd@physx@@QEAAAEAVPxErrorCallback@3@XZ 0000000180001ed0 f i Adjacencies.obj
 0001:00000ee0       ?getNamedAllocMap@Foundation@shdfnd@physx@@QEAAAEAV?$HashMap@PEBVNamedAllocator@shdfnd@physx@@PEBDU?$Hash@PEBVNamedAllocator@shdfnd@physx@@@23@VNonTrackingAllocator@23@@23@XZ 0000000180001ee0 f i Adjacencies.obj
 0001:00000ef0       ?getNamedAllocMutex@Foundation@shdfnd@physx@@QEAAAEAV?$MutexT@VAllocator@shdfnd@physx@@@23@XZ 0000000180001ef0 f i Adjacencies.obj
 0001:00000f00       ?getReportAllocationNames@Foundation@shdfnd@physx@@UEBA_NXZ 0000000180001f00 f i Adjacencies.obj
 0001:00000f10       ?getTempAllocFreeTable@Foundation@shdfnd@physx@@QEAAAEAV?$Array@PEATTempAllocatorChunk@shdfnd@physx@@VAllocator@23@@23@XZ 0000000180001f10 f i Adjacencies.obj
 0001:00000f20       ?getTempAllocMutex@Foundation@shdfnd@physx@@QEAAAEAV?$MutexT@VAllocator@shdfnd@physx@@@23@XZ 0000000180001f20 f i Adjacencies.obj
 0001:00000f30       ?invalidateRanks@RadixSort@Cm@physx@@QEAAXXZ 0000000180001f30 f i Adjacencies.obj
 0001:00000f40       ?setErrorLevel@Foundation@shdfnd@physx@@UEAAXW4Enum@PxErrorCode@3@@Z 0000000180001f40 f i Adjacencies.obj
 0001:00000f50       ?setReportAllocationNames@Foundation@shdfnd@physx@@UEAAX_N@Z 0000000180001f50 f i Adjacencies.obj
 0001:00000f60       ??0DebugText@Cm@physx@@QEAA@$$QEAU012@@Z 0000000180001f60 f i Cooking.obj
 0001:00000f60       ??0DebugText@Cm@physx@@QEAA@AEBU012@@Z 0000000180001f60 f i Cooking.obj
 0001:00001040       ??0HeightFieldData@Gu@physx@@QEAA@$$QEAU012@@Z 0000000180002040 f i Cooking.obj
 0001:00001040       ??0HeightFieldData@Gu@physx@@QEAA@AEBU012@@Z 0000000180002040 f i Cooking.obj
 0001:00001040       ??4HeightFieldData@Gu@physx@@QEAAAEAU012@AEBU012@@Z 0000000180002040 f i Cooking.obj
 0001:00001040       ??4HeightFieldData@Gu@physx@@QEAAAEAU012@$$QEAU012@@Z 0000000180002040 f i Cooking.obj
 0001:000010a0       ??0HeightFieldData@Gu@physx@@QEAA@XZ 00000001800020a0 f i Cooking.obj
 0001:000010b0       ??0RenderOutput@Cm@physx@@QEAA@AEAVRenderBuffer@12@@Z 00000001800020b0 f i Cooking.obj
 0001:00001100       ??0RenderOutput@Cm@physx@@QEAA@AEBV012@@Z 0000000180002100 f i Cooking.obj
 0001:000011a0       ??1PxHeightField@physx@@MEAA@XZ 00000001800021a0 f i Cooking.obj
 0001:000011a0       ??1PxConvexMesh@physx@@MEAA@XZ 00000001800021a0 f i Cooking.obj
 0001:000011b0       ??4DebugText@Cm@physx@@QEAAAEAU012@AEBU012@@Z 00000001800021b0 f i Cooking.obj
 0001:000011b0       ??4DebugText@Cm@physx@@QEAAAEAU012@$$QEAU012@@Z 00000001800021b0 f i Cooking.obj
 0001:000012e0       ??4FPUGuard@shdfnd@physx@@QEAAAEAV012@AEBV012@@Z 00000001800022e0 f i Cooking.obj
 0001:00001300       ??_ECooking@physx@@UEAAPEAXI@Z 0000000180002300 f i Cooking.obj
 0001:00001300       ??_GCooking@physx@@UEAAPEAXI@Z 0000000180002300 f i Cooking.obj
 0001:00001350       ??_EPxBase@physx@@MEAAPEAXI@Z 0000000180002350 f i Cooking.obj
 0001:00001350       ??_GPxBase@physx@@MEAAPEAXI@Z 0000000180002350 f i Cooking.obj
 0001:00001380       ??_GPxCooking@physx@@MEAAPEAXI@Z 0000000180002380 f i Cooking.obj
 0001:00001380       ??_EPxCooking@physx@@MEAAPEAXI@Z 0000000180002380 f i Cooking.obj
 0001:000013b0       ?computeHullPolygons@Cooking@physx@@UEBA_NAEBVPxSimpleTriangleMesh@2@AEAVPxAllocatorCallback@2@AEAIAEAPEAVPxVec3@2@2AEAPEAI2AEAPEAUPxHullPolygon@2@@Z 00000001800023b0 f   Cooking.obj
 0001:00001590       ?cookBVHStructure@Cooking@physx@@UEBA_NAEBVPxBVHStructureDesc@2@AEAVPxOutputStream@2@@Z 0000000180002590 f   Cooking.obj
 0001:00001670       ?cookConvexMesh@Cooking@physx@@UEBA_NAEBVPxConvexMeshDesc@2@AEAVPxOutputStream@2@PEAW4Enum@PxConvexMeshCookingResult@2@@Z 0000000180002670 f   Cooking.obj
 0001:00001850       ?cookConvexMeshInternal@Cooking@physx@@AEBA_NAEBVPxConvexMeshDesc@2@AEAVConvexMeshBuilder@2@PEAVConvexHullLib@2@PEAW4Enum@PxConvexMeshCookingResult@2@@Z 0000000180002850 f   Cooking.obj
 0001:00001ac0       ?cookHeightField@Cooking@physx@@UEBA_NAEBVPxHeightFieldDesc@2@AEAVPxOutputStream@2@@Z 0000000180002ac0 f   Cooking.obj
 0001:00001bc0       ?cookTriangleMesh@Cooking@physx@@UEBA_NAEBVPxTriangleMeshDesc@2@AEAVPxOutputStream@2@PEAW4Enum@PxTriangleMeshCookingResult@2@@Z 0000000180002bc0 f   Cooking.obj
 0001:00001d00       ?copy@?$Array@UPxDebugLine@physx@@VNamedAllocator@shdfnd@2@@shdfnd@physx@@KAXPEAUPxDebugLine@3@0PEBU43@@Z 0000000180002d00 f i Cooking.obj
 0001:00001eb0       ?createBVHStructure@Cooking@physx@@UEBAPEAVPxBVHStructure@2@AEBVPxBVHStructureDesc@2@AEAVPxPhysicsInsertionCallback@2@@Z 0000000180002eb0 f   Cooking.obj
 0001:00001f90       ?createConvexMesh@Cooking@physx@@UEBAPEAVPxConvexMesh@2@AEBVPxConvexMeshDesc@2@AEAVPxPhysicsInsertionCallback@2@PEAW4Enum@PxConvexMeshCookingResult@2@@Z 0000000180002f90 f   Cooking.obj
 0001:00002190       ?createHeightField@Cooking@physx@@UEBAPEAVPxHeightField@2@AEBVPxHeightFieldDesc@2@AEAVPxPhysicsInsertionCallback@2@@Z 0000000180003190 f   Cooking.obj
 0001:00002350       ?createTriangleMesh@Cooking@physx@@UEBAPEAVPxTriangleMesh@2@AEBVPxTriangleMeshDesc@2@AEAVPxPhysicsInsertionCallback@2@PEAW4Enum@PxTriangleMeshCookingResult@2@@Z 0000000180003350 f   Cooking.obj
 0001:000024a0       ?getConcreteTypeName@PxConvexMesh@physx@@UEBAPEBDXZ 00000001800034a0 f i Cooking.obj
 0001:000024b0       ?getConcreteTypeName@PxHeightField@physx@@UEBAPEBDXZ 00000001800034b0 f i Cooking.obj
 0001:000024c0       ?getConvexEdgeThreshold@HeightField@Gu@physx@@UEBAMXZ 00000001800034c0 f i Cooking.obj
 0001:000024d0       ?getFlags@HeightField@Gu@physx@@UEBA?AV?$PxFlags@W4Enum@PxHeightFieldFlag@physx@@G@3@XZ 00000001800034d0 f i Cooking.obj
 0001:000024e0       ?getFormat@HeightField@Gu@physx@@UEBA?AW4Enum@PxHeightFieldFormat@3@XZ 00000001800034e0 f i Cooking.obj
 0001:000024f0       ?getHeight@HeightField@Gu@physx@@UEBAMMM@Z 00000001800034f0 f i Cooking.obj
 0001:00002530       ?getHeightInternal2@HeightField@Gu@physx@@QEBAMIMM@Z 0000000180003530 f i Cooking.obj
 0001:000026a0       ?getIndexBuffer@ConvexMesh@Gu@physx@@UEBAPEBEXZ 00000001800036a0 f i Cooking.obj
 0001:000026e0       ?getNbColumns@HeightField@Gu@physx@@UEBAIXZ 00000001800036e0 f i Cooking.obj
 0001:000026f0       ?getNbPolygons@ConvexMesh@Gu@physx@@UEBAIXZ 00000001800036f0 f i Cooking.obj
 0001:00002700       ?getNbRows@HeightField@Gu@physx@@UEBAIXZ 0000000180003700 f i Cooking.obj
 0001:00002710       ?getNbVertices@ConvexMesh@Gu@physx@@UEBAIXZ 0000000180003710 f i Cooking.obj
 0001:00002720       ?getParams@Cooking@physx@@UEBAAEBUPxCookingParams@2@XZ 0000000180003720 f   Cooking.obj
 0001:00002720       ?getDenormalizeScale@QuantizerImpl@@UEBAAEBVPxVec3@physx@@XZ 0000000180003720 f   Quantizer.obj
 0001:00002730       ?getSample@HeightField@Gu@physx@@UEBAAEBUPxHeightFieldSample@3@II@Z 0000000180003730 f i Cooking.obj
 0001:00002740       ?getSampleStride@HeightField@Gu@physx@@UEBAIXZ 0000000180003740 f i Cooking.obj
 0001:00002750       ?getTimestamp@HeightField@Gu@physx@@UEBAIXZ 0000000180003750 f i Cooking.obj
 0001:00002760       ?getTriangleMaterialIndex@HeightField@Gu@physx@@UEBAGI@Z 0000000180003760 f i Cooking.obj
 0001:00002790       ?getTriangleNormal@HeightField@Gu@physx@@UEBA?AVPxVec3@3@I@Z 0000000180003790 f i Cooking.obj
 0001:00002890       ?getVertices@ConvexMesh@Gu@physx@@UEBAPEBVPxVec3@3@XZ 0000000180003890 f i Cooking.obj
 0001:000028b0       ?isKindOf@PxBase@physx@@MEBA_NPEBD@Z 00000001800038b0 f i Cooking.obj
 0001:000028e0       ?isKindOf@PxConvexMesh@physx@@MEBA_NPEBD@Z 00000001800038e0 f i Cooking.obj
 0001:00002930       ?isKindOf@PxHeightField@physx@@MEBA_NPEBD@Z 0000000180003930 f i Cooking.obj
 0001:00002980       ?isReleasable@PxBase@physx@@UEBA_NXZ 0000000180003980 f i Cooking.obj
 0001:00002990       ?outputSegment@RenderOutput@Cm@physx@@QEAAXAEBVPxVec3@3@0@Z 0000000180003990 f i Cooking.obj
 0001:00002a50       ?platformMismatch@Cooking@physx@@UEBA_NXZ 0000000180003a50 f   Cooking.obj
 0001:00002a60       ?preExportDataReset@HeightField@Gu@physx@@QEAAXXZ 0000000180003a60 f i Cooking.obj
 0001:00002a60       ?preExportDataReset@ConvexMesh@Gu@physx@@QEAAXXZ 0000000180003a60 f i Cooking.obj
 0001:00002a70       ?recreate@?$Array@UPxDebugLine@physx@@VNamedAllocator@shdfnd@2@@shdfnd@physx@@IEAAXI@Z 0000000180003a70 f i Cooking.obj
 0001:00002b10       ?release@Cooking@physx@@UEAAXXZ 0000000180003b10 f   Cooking.obj
 0001:00002b30       ?reserveSegments@RenderOutput@Cm@physx@@QEAAPEAUPxDebugLine@3@I@Z 0000000180003b30 f i Cooking.obj
 0001:00002ba0       ?setParams@Cooking@physx@@UEAAXAEBUPxCookingParams@2@@Z 0000000180003ba0 f   Cooking.obj
 0001:00002c00       ?validateConvexMesh@Cooking@physx@@UEBA_NAEBVPxConvexMeshDesc@2@@Z 0000000180003c00 f   Cooking.obj
 0001:00002c60       ?validateTriangleMesh@Cooking@physx@@UEBA_NAEBVPxTriangleMeshDesc@2@@Z 0000000180003c60 f   Cooking.obj
 0001:00002d70       PxCreateCooking            0000000180003d70 f   Cooking.obj
 0001:00002e60       ??0ReducedVertexCloud@physx@@QEAA@PEBVPxVec3@1@I@Z 0000000180003e60 f   CookingUtils.obj
 0001:00002e80       ??1ReducedVertexCloud@physx@@QEAA@XZ 0000000180003e80 f   CookingUtils.obj
 0001:00002e90       ?Clean@ReducedVertexCloud@physx@@QEAAAEAV12@XZ 0000000180003e90 f   CookingUtils.obj
 0001:00002f00       ?Reduce@ReducedVertexCloud@physx@@QEAA_NPEAUREDUCEDCLOUD@2@@Z 0000000180003f00 f   CookingUtils.obj
 0001:00003210       ??$?_UI@@YAPEAX_KV?$ReflectionAllocator@I@shdfnd@physx@@PEBDH@Z 0000000180004210 f i EdgeList.obj
 0001:000032b0       ??0EdgeListBuilder@Gu@physx@@QEAA@XZ 00000001800042b0 f   EdgeList.obj
 0001:000032d0       ??1EdgeList@Gu@physx@@QEAA@XZ 00000001800042d0 f   EdgeList.obj
 0001:00003370       ??1EdgeListBuilder@Gu@physx@@QEAA@XZ 0000000180004370 f   EdgeList.obj
 0001:00003380       ?computeActiveEdges@EdgeListBuilder@Gu@physx@@AEAA_NIPEBIPEBGPEBVPxVec3@3@M@Z 0000000180004380 f   EdgeList.obj
 0001:000049f0       ?createEdgesToFaces@EdgeListBuilder@Gu@physx@@AEAA_NIPEBIPEBG@Z 00000001800059f0 f   EdgeList.obj
 0001:00004c40       ?createFacesToEdges@EdgeListBuilder@Gu@physx@@AEAA_NIPEBIPEBG@Z 0000000180005c40 f   EdgeList.obj
 0001:000050c0       ?init@EdgeListBuilder@Gu@physx@@QEAA_NAEBUEDGELISTCREATE@23@@Z 00000001800060c0 f   EdgeList.obj
 0001:000051f0       ??0MeshCleaner@physx@@QEAA@IPEBVPxVec3@1@IPEBIM@Z 00000001800061f0 f   MeshCleaner.obj
 0001:00005bb0       ??1MeshCleaner@physx@@QEAA@XZ 0000000180006bb0 f   MeshCleaner.obj
 0001:00005c40       ??$kmeans_cluster@VPxVec3@physx@@M@@YAIPEBVPxVec3@physx@@IIPEAV01@PEAIMM@Z 0000000180006c40 f i Quantizer.obj
 0001:00006580       ??_GQuantizer@physx@@MEAAPEAXI@Z 0000000180007580 f i Quantizer.obj
 0001:00006580       ??_EQuantizer@physx@@MEAAPEAXI@Z 0000000180007580 f i Quantizer.obj
 0001:000065b0       ??_GQuantizerImpl@@EEAAPEAXI@Z 00000001800075b0 f i Quantizer.obj
 0001:000065b0       ??_EQuantizerImpl@@EEAAPEAXI@Z 00000001800075b0 f i Quantizer.obj
 0001:00006680       ?createQuantizer@physx@@YAPEAVQuantizer@1@XZ 0000000180007680 f   Quantizer.obj
 0001:000067a0       ?getDenormalizeCenter@QuantizerImpl@@UEBAAEBVPxVec3@physx@@XZ 00000001800077a0 f i Quantizer.obj
 0001:000067b0       ?growAndPushBack@?$Array@VPxVec3@physx@@VNamedAllocator@shdfnd@2@@shdfnd@physx@@IEAAAEAVPxVec3@3@AEBV43@@Z 00000001800077b0 f i Quantizer.obj
 0001:00006950       ?kmeansQuantize3D@QuantizerImpl@@UEAAPEBVPxVec3@physx@@IPEBV23@I_NIAEAI@Z 0000000180007950 f i Quantizer.obj
 0001:00006bc0       ?normalizeInput@QuantizerImpl@@AEAAXIPEBVPxVec3@physx@@I@Z 0000000180007bc0 f i Quantizer.obj
 0001:00006ff0       ?release@QuantizerImpl@@UEAAXXZ 0000000180007ff0 f i Quantizer.obj
 0001:00007010       ??$copy@VNamedAllocator@shdfnd@physx@@@?$Array@USlab@NodeAllocator@Gu@physx@@VNamedAllocator@shdfnd@4@@shdfnd@physx@@IEAAXAEBV012@@Z 0000000180008010 f i BVHStructureBuilder.obj
 0001:00007090       ??0AABBTreeBuildNode@Gu@physx@@QEAA@AEBV012@@Z 0000000180008090 f i BVHStructureBuilder.obj
 0001:00007090       ??4AABBTreeBuildNode@Gu@physx@@QEAAAEAV012@AEBV012@@Z 0000000180008090 f i BVHStructureBuilder.obj
 0001:000070d0       ??0AABBTreeBuildParams@Gu@physx@@QEAA@IIPEBVPxBounds3@2@@Z 00000001800080d0 f i BVHStructureBuilder.obj
 0001:000070f0       ??0BVHStructureBuilder@physx@@QEAA@XZ 00000001800080f0 f   BVHStructureBuilder.obj
 0001:00007110       ??0BuildStats@Gu@physx@@QEAA@XZ 0000000180008110 f i BVHStructureBuilder.obj
 0001:00007120       ??0NodeAllocator@Gu@physx@@QEAA@AEBV012@@Z 0000000180008120 f i BVHStructureBuilder.obj
 0001:00007190       ?reset@AABBTreeBuildParams@Gu@physx@@QEAAXXZ 0000000180008190 f i BVHStructureBuilder.obj
 0001:00007190       ??1AABBTreeBuildParams@Gu@physx@@QEAA@XZ 0000000180008190 f i BVHStructureBuilder.obj
 0001:000071f0       ??1BVHStructureBuilder@physx@@QEAA@XZ 00000001800081f0 f   BVHStructureBuilder.obj
 0001:00007270       ??4AABBTreeBuildParams@Gu@physx@@QEAAAEAV012@AEBV012@@Z 0000000180008270 f i BVHStructureBuilder.obj
 0001:00007290       ??4BuildStats@Gu@physx@@QEAAAEAU012@$$QEAU012@@Z 0000000180008290 f i BVHStructureBuilder.obj
 0001:000072a0       ??4BuildStats@Gu@physx@@QEAAAEAU012@AEBU012@@Z 00000001800082a0 f i BVHStructureBuilder.obj
 0001:000072b0       ??4NodeAllocator@Gu@physx@@QEAAAEAV012@AEBV012@@Z 00000001800082b0 f i BVHStructureBuilder.obj
 0001:00007360       ??_FAABBTreeBuildParams@Gu@physx@@QEAAXXZ 0000000180008360 f i BVHStructureBuilder.obj
 0001:00007380       ?__global_delete@@YAXPEAX_K@Z 0000000180008380 f i BVHStructureBuilder.obj
 0001:00007380       ??_V@YAXPEAX_K@Z           0000000180008380 f i LIBCMT:delete_array_size.obj
 0001:00007390       ?allocate@?$Array@USlab@NodeAllocator@Gu@physx@@VNamedAllocator@shdfnd@4@@shdfnd@physx@@IEAAPEAUSlab@NodeAllocator@Gu@3@I@Z 0000000180008390 f i BVHStructureBuilder.obj
 0001:000073f0       ?getCount@BuildStats@Gu@physx@@QEBAIXZ 00000001800083f0 f i BVHStructureBuilder.obj
 0001:00007400       ?getNbPrimitives@AABBTreeBuildNode@Gu@physx@@QEBAIXZ 0000000180008400 f i BVHStructureBuilder.obj
 0001:00007400       ?getNbRuntimePrimitives@AABBTreeBuildNode@Gu@physx@@QEBAIXZ 0000000180008400 f i BVHStructureBuilder.obj
 0001:00007410       ?getNeg@AABBTreeBuildNode@Gu@physx@@QEBAPEBV123@XZ 0000000180008410 f i BVHStructureBuilder.obj
 0001:00007430       ?getPrimitives@AABBTreeBuildNode@Gu@physx@@QEBAPEBIPEBI@Z 0000000180008430 f i BVHStructureBuilder.obj
 0001:00007430       ?getPrimitives@AABBTreeBuildNode@Gu@physx@@QEAAPEAIPEAI@Z 0000000180008430 f i BVHStructureBuilder.obj
 0001:00007440       ?increaseCount@BuildStats@Gu@physx@@QEAAXI@Z 0000000180008440 f i BVHStructureBuilder.obj
 0001:00007450       ?isLeaf@AABBTreeBuildNode@Gu@physx@@QEBA_NXZ 0000000180008450 f i BVHStructureBuilder.obj
 0001:00007460       ?loadFromDesc@BVHStructureBuilder@physx@@QEAA_NAEBVPxBVHStructureDesc@2@@Z 0000000180008460 f   BVHStructureBuilder.obj
 0001:00007900       ?moveData@BVHStructureBuilder@physx@@QEAAXAEAUBVHStructureData@Gu@2@@Z 0000000180008900 f   BVHStructureBuilder.obj
 0001:00007940       ?recreate@?$Array@USlab@NodeAllocator@Gu@physx@@VNamedAllocator@shdfnd@4@@shdfnd@physx@@IEAAXI@Z 0000000180008940 f i BVHStructureBuilder.obj
 0001:000079f0       ?reset@BuildStats@Gu@physx@@QEAAXXZ 00000001800089f0 f i BVHStructureBuilder.obj
 0001:00007a00       ?save@BVHStructureBuilder@physx@@QEBA_NAEAVPxOutputStream@2@_N@Z 0000000180008a00 f   BVHStructureBuilder.obj
 0001:00007b80       ?setCount@BuildStats@Gu@physx@@QEAAXI@Z 0000000180008b80 f i BVHStructureBuilder.obj
 0001:00007b90       ?setNbRunTimePrimitives@AABBTreeBuildNode@Gu@physx@@QEAAXI@Z 0000000180008b90 f i BVHStructureBuilder.obj
 0001:00007ba0       ?saveHeightField@physx@@YA_NAEBVHeightField@Gu@1@AEAVPxOutputStream@1@_N@Z 0000000180008ba0 f   HeightFieldCooking.obj
 0001:00007de0       ??$quickSelectFirstK@UBoundsLTE@physx@@@quickSelect@physx@@YAXPEIAIIIIAEBUBoundsLTE@1@@Z 0000000180008de0 f i RTreeCooking.obj
 0001:00007fc0       ??$smallSort@I$$CBUSortBoundsPredicate@physx@@@internal@shdfnd@physx@@YAXPEAIHHAEBUSortBoundsPredicate@2@@Z 0000000180008fc0 f i RTreeCooking.obj
 0001:00008290       ??$sort@IU?$Less@I@shdfnd@physx@@VNamedAllocator@23@@shdfnd@physx@@YAXPEAIIAEBU?$Less@I@01@AEBVNamedAllocator@01@I@Z 0000000180009290 f i RTreeCooking.obj
 0001:00008650       ??$sort@IUSortBoundsPredicate@physx@@VNamedAllocator@shdfnd@2@@shdfnd@physx@@YAXPEAIIAEBUSortBoundsPredicate@1@AEBVNamedAllocator@01@I@Z 0000000180009650 f i RTreeCooking.obj
 0001:00008ab0       ??0?$InlineArray@UInterval@physx@@$0EAA@VNamedAllocator@shdfnd@2@@shdfnd@physx@@QEAA@AEBVNamedAllocator@12@@Z 0000000180009ab0 f i RTreeCooking.obj
 0001:00008b80       ?allocate@?$Array@UInterval@physx@@V?$InlineAllocator@$0CAAA@VNamedAllocator@shdfnd@physx@@@shdfnd@2@@shdfnd@physx@@IEAAPEAUInterval@3@I@Z 0000000180009b80 f i RTreeCooking.obj
 0001:00009990       ?buildFromTriangles@RTreeCooker@physx@@SAXAEAURTree@Gu@2@PEBVPxVec3@2@IPEBGPEBIIAEAV?$Array@IVNamedAllocator@shdfnd@physx@@@shdfnd@2@PEAURemapCallback@12@MW4Enum@PxMeshCookingHint@2@@Z 000000018000a990 f   RTreeCooking.obj
 0001:00009c20       ?copy@?$Array@URTreeNodeNQ@physx@@VNamedAllocator@shdfnd@2@@shdfnd@physx@@KAXPEAURTreeNodeNQ@3@0PEBU43@@Z 000000018000ac20 f i RTreeCooking.obj
 0001:00009de0       ?copy@?$Array@VPxVec3@physx@@VNamedAllocator@shdfnd@2@@shdfnd@physx@@KAXPEAVPxVec3@3@0PEBV43@@Z 000000018000ade0 f i RTreeCooking.obj
 0001:00009eb0       ?growAndPushBack@?$Array@VHalfEdge@ConvexHull@physx@@VNamedAllocator@shdfnd@3@@shdfnd@physx@@IEAAAEAVHalfEdge@ConvexHull@3@AEBV453@@Z 000000018000aeb0 f i ConvexHullUtils.obj
 0001:00009eb0       ?growAndPushBack@?$Array@IVNamedAllocator@shdfnd@physx@@@shdfnd@physx@@IEAAAEAIAEBI@Z 000000018000aeb0 f i RTreeCooking.obj
 0001:00009fa0       ?growAndPushBack@?$Array@UInterval@physx@@V?$InlineAllocator@$0CAAA@VNamedAllocator@shdfnd@physx@@@shdfnd@2@@shdfnd@physx@@IEAAAEAUInterval@3@AEBU43@@Z 000000018000afa0 f i RTreeCooking.obj
 0001:0000a080       ?growAndPushBack@?$Array@UPxBounds3V@physx@@VNamedAllocator@shdfnd@2@@shdfnd@physx@@IEAAAEAUPxBounds3V@3@AEBU43@@Z 000000018000b080 f i RTreeCooking.obj
 0001:0000a190       ?growAndPushBack@?$Array@URTreeNodeNQ@physx@@VNamedAllocator@shdfnd@2@@shdfnd@physx@@IEAAAEAURTreeNodeNQ@3@AEBU43@@Z 000000018000b190 f i RTreeCooking.obj
 0001:0000a2a0       ?growAndPushBack@?$Array@URTreeNodeQ@Gu@physx@@VNamedAllocator@shdfnd@3@@shdfnd@physx@@IEAAAEAURTreeNodeQ@Gu@3@AEBU453@@Z 000000018000b2a0 f i RTreeCooking.obj
 0001:0000a3c0       ?recreate@?$Array@IVNamedAllocator@shdfnd@physx@@@shdfnd@physx@@IEAAXI@Z 000000018000b3c0 f i RTreeCooking.obj
 0001:0000a3c0       ?recreate@?$Array@VHalfEdge@ConvexHull@physx@@VNamedAllocator@shdfnd@3@@shdfnd@physx@@IEAAXI@Z 000000018000b3c0 f i ConvexHullUtils.obj
 0001:0000a470       ?recreate@?$Array@UPxBounds3V@physx@@VNamedAllocator@shdfnd@2@@shdfnd@physx@@IEAAXI@Z 000000018000b470 f i RTreeCooking.obj
 0001:0000a530       ?recreate@?$Array@URTreeNodeNQ@physx@@VNamedAllocator@shdfnd@2@@shdfnd@physx@@IEAAXI@Z 000000018000b530 f i RTreeCooking.obj
 0001:0000a5d0       ?recreate@?$Array@URTreeNodeQ@Gu@physx@@VNamedAllocator@shdfnd@3@@shdfnd@physx@@IEAAXI@Z 000000018000b5d0 f i RTreeCooking.obj
 0001:0000a690       ?recreate@?$Array@VPxVec3@physx@@VNamedAllocator@shdfnd@2@@shdfnd@physx@@IEAAXI@Z 000000018000b690 f i RTreeCooking.obj
 0001:0000a730       ?resize@?$Array@IVNamedAllocator@shdfnd@physx@@@shdfnd@physx@@QEAAXIAEBI@Z 000000018000b730 f i RTreeCooking.obj
 0001:0000a7f0       ?resizeUninitialized@?$Array@URTreeNodeNQ@physx@@VNamedAllocator@shdfnd@2@@shdfnd@physx@@QEAAXI@Z 000000018000b7f0 f i RTreeCooking.obj
 0001:0000a830       ?sort4@SubSortQuick@physx@@QEAAXPEIAIIAEAV?$Array@URTreeNodeNQ@physx@@VNamedAllocator@shdfnd@2@@shdfnd@2@AEAIAEAUPxBounds3V@2@I@Z 000000018000b830 f i RTreeCooking.obj
 0001:0000abc0       ?sort4@SubSortSAH@physx@@QEAAXPEAIIAEAV?$Array@URTreeNodeNQ@physx@@VNamedAllocator@shdfnd@2@@shdfnd@2@AEAIIPEAURTreeNodeNQ@2@@Z 000000018000bbc0 f i RTreeCooking.obj
 0001:0000b450       ?split@SubSortSAH@physx@@QEAAIPEAII@Z 000000018000c450 f i RTreeCooking.obj
 0001:0000be80       ?computeLocalBounds@MeshBulider@physx@@IEAAXAEAVMeshDataBase@Gu@2@@Z 000000018000ce80 f   MeshBuilder.obj
 0001:0000bf10       ??$?_UG@@YAPEAX_KV?$ReflectionAllocator@G@shdfnd@physx@@PEBDH@Z 000000018000cf10 f i TriangleMeshBuilder.obj
 0001:0000bfb0       ??$sort@UEdgeTriLookup@physx@@U?$Less@UEdgeTriLookup@physx@@@shdfnd@2@VNamedAllocator@42@@shdfnd@physx@@YAXPEAUEdgeTriLookup@1@IAEBU?$Less@UEdgeTriLookup@physx@@@01@AEBVNamedAllocator@01@I@Z 000000018000cfb0 f i TriangleMeshBuilder.obj
 0001:0000c4a0       ??0BV4TriangleMeshBuilder@physx@@QEAA@AEBUPxCookingParams@1@@Z 000000018000d4a0 f   TriangleMeshBuilder.obj
 0001:0000c570       ??0RTreeTriangleMeshBuilder@physx@@QEAA@AEBUPxCookingParams@1@@Z 000000018000d570 f   TriangleMeshBuilder.obj
 0001:0000c630       ??1BV4TriangleMeshBuilder@physx@@UEAA@XZ 000000018000d630 f   TriangleMeshBuilder.obj
 0001:0000c690       ??1MeshDataBase@Gu@physx@@UEAA@XZ 000000018000d690 f i TriangleMeshBuilder.obj
 0001:0000c770       ??1RTreeTriangleData@Gu@physx@@UEAA@XZ 000000018000d770 f i TriangleMeshBuilder.obj
 0001:0000c7e0       ??1RTreeTriangleMeshBuilder@physx@@UEAA@XZ 000000018000d7e0 f   TriangleMeshBuilder.obj
 0001:0000c810       ??1TriangleMeshBuilder@physx@@UEAA@XZ 000000018000d810 f   TriangleMeshBuilder.obj
 0001:0000c870       ??1TriangleMeshData@Gu@physx@@UEAA@XZ 000000018000d870 f i TriangleMeshBuilder.obj
 0001:0000c940       ??_EBV4TriangleData@Gu@physx@@UEAAPEAXI@Z 000000018000d940 f i TriangleMeshBuilder.obj
 0001:0000c940       ??_GBV4TriangleData@Gu@physx@@UEAAPEAXI@Z 000000018000d940 f i TriangleMeshBuilder.obj
 0001:0000c9c0       ??_EBV4TriangleMeshBuilder@physx@@UEAAPEAXI@Z 000000018000d9c0 f i TriangleMeshBuilder.obj
 0001:0000c9c0       ??_GBV4TriangleMeshBuilder@physx@@UEAAPEAXI@Z 000000018000d9c0 f i TriangleMeshBuilder.obj
 0001:0000ca40       ??_GMeshDataBase@Gu@physx@@UEAAPEAXI@Z 000000018000da40 f i TriangleMeshBuilder.obj
 0001:0000ca40       ??_EMeshDataBase@Gu@physx@@UEAAPEAXI@Z 000000018000da40 f i TriangleMeshBuilder.obj
 0001:0000caa0       ??_GRTreeCookerRemap@physx@@UEAAPEAXI@Z 000000018000daa0 f i TriangleMeshBuilder.obj
 0001:0000caa0       ??_ERTreeCookerRemap@physx@@UEAAPEAXI@Z 000000018000daa0 f i TriangleMeshBuilder.obj
 0001:0000cad0       ??_GRTreeTriangleData@Gu@physx@@UEAAPEAXI@Z 000000018000dad0 f i TriangleMeshBuilder.obj
 0001:0000cad0       ??_ERTreeTriangleData@Gu@physx@@UEAAPEAXI@Z 000000018000dad0 f i TriangleMeshBuilder.obj
 0001:0000cb30       ??_ERTreeTriangleMeshBuilder@physx@@UEAAPEAXI@Z 000000018000db30 f i TriangleMeshBuilder.obj
 0001:0000cb30       ??_GRTreeTriangleMeshBuilder@physx@@UEAAPEAXI@Z 000000018000db30 f i TriangleMeshBuilder.obj
 0001:0000cb80       ??_ERemapCallback@RTreeCooker@physx@@UEAAPEAXI@Z 000000018000db80 f i TriangleMeshBuilder.obj
 0001:0000cb80       ??_GRemapCallback@RTreeCooker@physx@@UEAAPEAXI@Z 000000018000db80 f i TriangleMeshBuilder.obj
 0001:0000cbb0       ??_ETriangleMeshBuilder@physx@@UEAAPEAXI@Z 000000018000dbb0 f i TriangleMeshBuilder.obj
 0001:0000cbb0       ??_GTriangleMeshBuilder@physx@@UEAAPEAXI@Z 000000018000dbb0 f i TriangleMeshBuilder.obj
 0001:0000cbf0       ??_ETriangleMeshData@Gu@physx@@UEAAPEAXI@Z 000000018000dbf0 f i TriangleMeshBuilder.obj
 0001:0000cbf0       ??_GTriangleMeshData@Gu@physx@@UEAAPEAXI@Z 000000018000dbf0 f i TriangleMeshBuilder.obj
 0001:0000cc50       ?allocateTriangles@TriangleMeshData@Gu@physx@@QEAAPEAXI_NI@Z 000000018000dc50 f i TriangleMeshBuilder.obj
 0001:0000cd20       ?allocateVertices@MeshDataBase@Gu@physx@@QEAAPEAVPxVec3@3@I@Z 000000018000dd20 f i TriangleMeshBuilder.obj
 0001:0000d230       ?checkMeshIndicesSize@TriangleMeshBuilder@physx@@QEAAXXZ 000000018000e230 f   TriangleMeshBuilder.obj
 0001:0000d340       ?cleanMesh@TriangleMeshBuilder@physx@@QEAA_N_NPEAW4Enum@PxTriangleMeshCookingResult@2@@Z 000000018000e340 f   TriangleMeshBuilder.obj
 0001:0000d800       ?createGRBMidPhaseAndData@TriangleMeshBuilder@physx@@QEAAXI@Z 000000018000e800 f   TriangleMeshBuilder.obj
 0001:0000db80       ?createMidPhaseStructure@BV4TriangleMeshBuilder@physx@@UEAAXXZ 000000018000eb80 f   TriangleMeshBuilder.obj
 0001:0000de40       ?createMidPhaseStructure@RTreeTriangleMeshBuilder@physx@@UEAAXXZ 000000018000ee40 f   TriangleMeshBuilder.obj
 0001:0000df70       ?createSharedEdgeData@TriangleMeshBuilder@physx@@QEAAX_N0@Z 000000018000ef70 f   TriangleMeshBuilder.obj
 0001:0000e5c0       ?length@charNode@@UEBAHXZ  000000018000f5c0 f i libvcruntime:undname.obj
 0001:0000e5c0       DllMain                    000000018000f5c0 f i LIBCMT:dll_dllmain_stub.obj
 0001:0000e5c0       _get_startup_argv_mode     000000018000f5c0 f i LIBCMT:argv_mode.obj
 0001:0000e5c0       ?getMidphaseID@BV4TriangleMeshBuilder@physx@@UEBA?AW4Enum@PxMeshMidPhase@2@XZ 000000018000f5c0 f i TriangleMeshBuilder.obj
 0001:0000e5c0       ?raw_length@charNode@@UEBAHXZ 000000018000f5c0 f i libvcruntime:undname.obj
 0001:0000e5d0       ?getMidphaseID@RTreeTriangleMeshBuilder@physx@@UEBA?AW4Enum@PxMeshMidPhase@2@XZ 000000018000f5d0 f i TriangleMeshBuilder.obj
 0001:0000e5e0       ?importMesh@TriangleMeshBuilder@physx@@IEAA_NAEBVPxTriangleMeshDesc@2@AEBUPxCookingParams@2@PEAW4Enum@PxTriangleMeshCookingResult@2@_N@Z 000000018000f5e0 f   TriangleMeshBuilder.obj
 0001:0000e980       ?loadFromDesc@TriangleMeshBuilder@physx@@QEAA_NAEBVPxTriangleMeshDesc@2@PEAW4Enum@PxTriangleMeshCookingResult@2@_N@Z 000000018000f980 f   TriangleMeshBuilder.obj
 0001:0000ed60       ?onMeshIndexFormatChange@BV4TriangleMeshBuilder@physx@@UEAAXXZ 000000018000fd60 f   TriangleMeshBuilder.obj
 0001:0000eda0       ?remap@RTreeCookerRemap@physx@@UEAAXPEAIII@Z 000000018000fda0 f i TriangleMeshBuilder.obj
 0001:0000edc0       ?remapTopology@TriangleMeshBuilder@physx@@QEAAXPEBI@Z 000000018000fdc0 f   TriangleMeshBuilder.obj
 0001:0000f0c0       ?save@TriangleMeshBuilder@physx@@QEBA_NAEAVPxOutputStream@2@_NAEBUPxCookingParams@2@@Z 00000001800100c0 f   TriangleMeshBuilder.obj
 0001:0000f690       ?saveMidPhaseStructure@BV4TriangleMeshBuilder@physx@@UEBAXAEAVPxOutputStream@2@_N@Z 0000000180010690 f   TriangleMeshBuilder.obj
 0001:0000f830       ?saveMidPhaseStructure@RTreeTriangleMeshBuilder@physx@@UEBAXAEAVPxOutputStream@2@_N@Z 0000000180010830 f   TriangleMeshBuilder.obj
 0001:0000fa70       ??0BigConvexDataBuilder@physx@@QEAA@PEBUConvexHullData@Gu@1@PEAVBigConvexData@1@PEBVPxVec3@1@@Z 0000000180010a70 f   BigConvexDataBuilder.obj
 0001:0000fa80       ??4BigConvexData@physx@@QEAAAEAV01@AEBV01@@Z 0000000180010a80 f i BigConvexDataBuilder.obj
 0001:0000faa0       ?GetAdjacentVerts@BigConvexData@physx@@QEBAPEBEXZ 0000000180010aa0 f i BigConvexDataBuilder.obj
 0001:0000fab0       ?GetNbNeighbors@BigConvexData@physx@@QEBAGI@Z 0000000180010ab0 f i BigConvexDataBuilder.obj
 0001:0000fab0       ?GetValency@BigConvexData@physx@@QEBAGI@Z 0000000180010ab0 f i BigConvexDataBuilder.obj
 0001:0000fac0       ?GetNbSamples@BigConvexData@physx@@QEBAIXZ 0000000180010ac0 f i BigConvexDataBuilder.obj
 0001:0000fad0       ?raw_length@pcharNode@@UEBAHXZ 0000000180010ad0 f i libvcruntime:undname.obj
 0001:0000fad0       ?GetNbVerts@BigConvexData@physx@@QEBAIXZ 0000000180010ad0 f i BigConvexDataBuilder.obj
 0001:0000fad0       ?length@pcharNode@@UEBAHXZ 0000000180010ad0 f i libvcruntime:undname.obj
 0001:0000fae0       ?GetNeighbors@BigConvexData@physx@@QEBAPEBEI@Z 0000000180010ae0 f i BigConvexDataBuilder.obj
 0001:0000faf0       ?GetOffset@BigConvexData@physx@@QEBAGI@Z 0000000180010af0 f i BigConvexDataBuilder.obj
 0001:0000fb00       ?GetSubdiv@BigConvexData@physx@@QEBAIXZ 0000000180010b00 f i BigConvexDataBuilder.obj
 0001:0000fb10       ?computeValencies@BigConvexDataBuilder@physx@@QEAA_NAEBVConvexHullBuilder@2@@Z 0000000180010b10 f   BigConvexDataBuilder.obj
 0001:0000ff00       ?precompute@BigConvexDataBuilder@physx@@QEAA_NI@Z 0000000180010f00 f   BigConvexDataBuilder.obj
 0001:00010b40       ?save@BigConvexDataBuilder@physx@@QEBA_NAEAVPxOutputStream@2@_N@Z 0000000180011b40 f   BigConvexDataBuilder.obj
 0001:00010d80       ??$?_UE@@YAPEAX_KV?$ReflectionAllocator@E@shdfnd@physx@@PEBDH@Z 0000000180011d80 f i ConvexHullBuilder.obj
 0001:00010e20       ??0ConvexHullBuilder@physx@@QEAA@PEAUConvexHullData@Gu@1@_N@Z 0000000180011e20 f   ConvexHullBuilder.obj
 0001:00010e50       ??1ConvexHullBuilder@physx@@QEAA@XZ 0000000180011e50 f   ConvexHullBuilder.obj
 0001:00010f50       ?calculateVertexMapTable@ConvexHullBuilder@physx@@QEAA_NI_N@Z 0000000180011f50 f   ConvexHullBuilder.obj
 0001:00011160       ?checkHullPolygons@ConvexHullBuilder@physx@@QEBA_NXZ 0000000180012160 f   ConvexHullBuilder.obj
 0001:00011740       ?computeGeomCenter@ConvexHullBuilder@physx@@IEBA_NAEAVPxVec3@2@IPEAUHullTriangleData@2@@Z 0000000180012740 f   ConvexHullBuilder.obj
 0001:00011a00       ?copy@ConvexHullBuilder@physx@@QEAA_NAEAUConvexHullData@Gu@2@AEAI@Z 0000000180012a00 f   ConvexHullBuilder.obj
 0001:00011c70       ?createEdgeList@ConvexHullBuilder@physx@@QEAA_N_NI@Z 0000000180012c70 f   ConvexHullBuilder.obj
 0001:000124e0       ?init@ConvexHullBuilder@physx@@QEAA_NIPEBVPxVec3@2@PEBIIIPEBUPxHullPolygon@2@_NPEAVConvexHullLib@2@@Z 00000001800134e0 f   ConvexHullBuilder.obj
 0001:00012e50       ?save@ConvexHullBuilder@physx@@QEBA_NAEAVPxOutputStream@2@_N@Z 0000000180013e50 f   ConvexHullBuilder.obj
 0001:00013170       ??1ConvexHullLib@physx@@UEAA@XZ 0000000180014170 f   ConvexHullLib.obj
 0001:000131d0       ??_EConvexHullLib@physx@@UEAAPEAXI@Z 00000001800141d0 f i ConvexHullLib.obj
 0001:000131d0       ??_GConvexHullLib@physx@@UEAAPEAXI@Z 00000001800141d0 f i ConvexHullLib.obj
 0001:00013740       ?cleanupVertices@ConvexHullLib@physx@@IEAA_NIPEBVPxVec3@2@IAEAIPEAV32@AEAV32@3@Z 0000000180014740 f   ConvexHullLib.obj
 0001:00013bc0       ?shiftAndcleanupVertices@ConvexHullLib@physx@@IEAA_NIPEBVPxVec3@2@IAEAIPEAV32@AEAV32@3@Z 0000000180014bc0 f   ConvexHullLib.obj
 0001:000140b0       ?shiftConvexMeshDesc@ConvexHullLib@physx@@IEAAXAEAVPxConvexMeshDesc@2@@Z 00000001800150b0 f   ConvexHullLib.obj
 0001:00014170       ?swapLargestFace@ConvexHullLib@physx@@IEAAXAEAVPxConvexMeshDesc@2@@Z 0000000180015170 f   ConvexHullLib.obj
 0001:00014360       ??0Box@Gu@physx@@QEAA@AEBV012@@Z 0000000180015360 f i ConvexHullUtils.obj
 0001:00014360       ??4Box@Gu@physx@@QEAAAEBV012@AEBV012@@Z 0000000180015360 f i ConvexHullUtils.obj
 0001:000143c0       ??0Box@Gu@physx@@QEAA@AEBVPxVec3@2@0AEBVPxMat33@2@@Z 00000001800153c0 f i ConvexHullUtils.obj
 0001:00014430       ??0ConvexHull@physx@@QEAA@AEBVPxVec3@1@AEBVPxTransform@1@AEBV?$Array@VPxPlane@physx@@VNamedAllocator@shdfnd@2@@shdfnd@1@@Z 0000000180015430 f   ConvexHullUtils.obj
 0001:00015760       ??0PxQuat@physx@@QEAA@AEBVPxMat33@1@@Z 0000000180016760 f i ConvexHullUtils.obj
 0001:00015940       ?assertIntact@ConvexHull@physx@@QEBA_NM@Z 0000000180016940 f   ConvexHullUtils.obj
 0001:00015c50       ?computeAABBExtent@Box@Gu@physx@@QEBA?AVPxVec3@3@XZ 0000000180016c50 f i ConvexHullUtils.obj
 0001:00015d10       ?computeBoxPoints@Box@Gu@physx@@QEBAXPEIAVPxVec3@3@@Z 0000000180016d10 f i ConvexHullUtils.obj
 0001:00015d50       ?computeOBBFromConvex@physx@@YA_NAEBVPxConvexMeshDesc@1@AEAVPxVec3@1@AEAVPxTransform@1@@Z 0000000180016d50 f   ConvexHullUtils.obj
 0001:00016440       ?computeOBBSIMD@local@@YAXIPEBT__m128@@AEAT2@AEBT2@1@Z 0000000180017440 f   ConvexHullUtils.obj
 0001:00016850       ?convexHullCrop@physx@@YAPEAVConvexHull@1@AEBV21@AEBVPxPlane@1@M@Z 0000000180017850 f   ConvexHullUtils.obj
 0001:000176d0       ?copy@?$Array@VPxPlane@physx@@VNamedAllocator@shdfnd@2@@shdfnd@physx@@KAXPEAVPxPlane@3@0PEBV43@@Z 00000001800186d0 f i ConvexHullUtils.obj
 0001:000177d0       ?findCandidatePlane@ConvexHull@physx@@QEBAHMM@Z 00000001800187d0 f   ConvexHullUtils.obj
 0001:00017c40       ?getInverse@PxMat33@physx@@QEBA?BV12@XZ 0000000180018c40 f i ConvexHullUtils.obj
 0001:00017e90       ?getTransform@Box@Gu@physx@@QEBA?AVPxTransform@3@XZ 0000000180018e90 f i ConvexHullUtils.obj
 0001:00017ef0       ?growAndPushBack@?$Array@VPxPlane@physx@@VNamedAllocator@shdfnd@2@@shdfnd@physx@@IEAAAEAVPxPlane@3@AEBV43@@Z 0000000180018ef0 f i ConvexHullUtils.obj
 0001:00017fe0       ?isValid@Box@Gu@physx@@QEBA_NXZ 0000000180018fe0 f i ConvexHullUtils.obj
 0001:00018000       ?maxNumVertsPerFace@ConvexHull@physx@@QEBAIXZ 0000000180019000 f   ConvexHullUtils.obj
 0001:00018070       ?recreate@?$Array@VPxPlane@physx@@VNamedAllocator@shdfnd@2@@shdfnd@physx@@IEAAXI@Z 0000000180019070 f i ConvexHullUtils.obj
 0001:00018110       ?resize@?$Array@VHalfEdge@ConvexHull@physx@@VNamedAllocator@shdfnd@3@@shdfnd@physx@@QEAAXIAEBVHalfEdge@ConvexHull@3@@Z 0000000180019110 f i ConvexHullUtils.obj
 0001:000181d0       ?resize@?$Array@VPxPlane@physx@@VNamedAllocator@shdfnd@2@@shdfnd@physx@@QEAAXIAEBVPxPlane@3@@Z 00000001800191d0 f i ConvexHullUtils.obj
 0001:000182f0       ?resize@?$Array@VPxVec3@physx@@VNamedAllocator@shdfnd@2@@shdfnd@physx@@QEAAXIAEBVPxVec3@3@@Z 00000001800192f0 f i ConvexHullUtils.obj
 0001:000183e0       ?rotate@Box@Gu@physx@@QEBA?AVPxVec3@3@AEBV43@@Z 00000001800193e0 f i ConvexHullUtils.obj
 0001:00018470       ?rotateInv@Box@Gu@physx@@QEBA?AVPxVec3@3@AEBV43@@Z 0000000180019470 f i ConvexHullUtils.obj
 0001:00018500       ?setAxes@Box@Gu@physx@@QEAAXAEBVPxVec3@3@00@Z 0000000180019500 f i ConvexHullUtils.obj
 0001:00018540       ?setEmpty@Box@Gu@physx@@QEAAXXZ 0000000180019540 f i ConvexHullUtils.obj
 0001:00018580       ?transform@Box@Gu@physx@@QEBA?AVPxVec3@3@AEBV43@@Z 0000000180019580 f i ConvexHullUtils.obj
 0001:00018620       ??0ConvexMeshBuilder@physx@@QEAA@_N@Z 0000000180019620 f   ConvexMeshBuilder.obj
 0001:00018680       ??1ConvexMeshBuilder@physx@@QEAA@XZ 0000000180019680 f   ConvexMeshBuilder.obj
 0001:00018ad0       ?build@ConvexMeshBuilder@physx@@QEAA_NAEBVPxConvexMeshDesc@2@I_NPEAVConvexHullLib@2@@Z 0000000180019ad0 f   ConvexMeshBuilder.obj
 0001:00018e00       ?computeHullPolygons@ConvexMeshBuilder@physx@@QEAA_NAEBIPEBVPxVec3@2@0PEBIAEAVPxAllocatorCallback@2@AEAIAEAPEAV32@4AEAPEAI4AEAPEAUPxHullPolygon@2@@Z 0000000180019e00 f   ConvexMeshBuilder.obj
 0001:00019020       ?computeMassInfo@ConvexMeshBuilder@physx@@QEAAX_N@Z 000000018001a020 f   ConvexMeshBuilder.obj
 0001:000193f0       ?copy@ConvexMeshBuilder@physx@@QEAA_NAEAUConvexHullInitData@Gu@2@@Z 000000018001a3f0 f   ConvexMeshBuilder.obj
 0001:00019510       ?isFinite@PxVec3@physx@@QEBA_NXZ 000000018001a510 f i ConvexMeshBuilder.obj
 0001:00019570       ?loadConvexHull@ConvexMeshBuilder@physx@@QEAA_NAEBVPxConvexMeshDesc@2@PEAVConvexHullLib@2@@Z 000000018001a570 f   ConvexMeshBuilder.obj
 0001:000197f0       ?save@ConvexMeshBuilder@physx@@QEBA_NAEAVPxOutputStream@2@_N@Z 000000018001a7f0 f   ConvexMeshBuilder.obj
 0001:00019a00       ??$copy@VNamedAllocator@shdfnd@physx@@@?$Array@VPair@@VNamedAllocator@shdfnd@physx@@@shdfnd@physx@@IEAAXAEBV012@@Z 000000018001aa00 f i ConvexPolygonsBuilder.obj
 0001:00019a80       ??0ConvexPolygonsBuilder@physx@@QEAA@PEAUConvexHullData@Gu@1@_N@Z 000000018001aa80 f   ConvexPolygonsBuilder.obj
 0001:00019aa0       ??1ConvexPolygonsBuilder@physx@@QEAA@XZ 000000018001aaa0 f   ConvexPolygonsBuilder.obj
 0001:0001a2f0       ?allocate@?$Array@VPair@@VNamedAllocator@shdfnd@physx@@@shdfnd@physx@@IEAAPEAVPair@@I@Z 000000018001b2f0 f i ConvexPolygonsBuilder.obj
 0001:0001aad0       ?computeHullPolygons@ConvexPolygonsBuilder@physx@@QEAA_NAEBIPEBVPxVec3@2@0PEBI@Z 000000018001bad0 f   ConvexPolygonsBuilder.obj
 0001:0001bb80       ?createPolygonData@ConvexPolygonsBuilder@physx@@AEAA_NXZ 000000018001cb80 f   ConvexPolygonsBuilder.obj
 0001:0001c7b0       ?createTrianglesFromPolygons@ConvexPolygonsBuilder@physx@@AEAA_NXZ 000000018001d7b0 f   ConvexPolygonsBuilder.obj
 0001:0001de80       ?growAndPushBack@?$Array@VPair@@VNamedAllocator@shdfnd@physx@@@shdfnd@physx@@IEAAAEAVPair@@AEBV4@@Z 000000018001ee80 f i ConvexPolygonsBuilder.obj
 0001:0001df70       ??0QuickHull@local@@QEAA@AEBUPxCookingParams@physx@@AEBVPxConvexMeshDesc@3@@Z 000000018001ef70 f   QuickHullConvexHullLib.obj
 0001:0001e160       ??0QuickHullConvexHullLib@physx@@QEAA@AEBVPxConvexMeshDesc@1@AEBUPxCookingParams@1@@Z 000000018001f160 f   QuickHullConvexHullLib.obj
 0001:0001e250       ??1?$MemBlock@UQuickHullHalfEdge@local@@$0A@@local@@QEAA@XZ 000000018001f250 f i QuickHullConvexHullLib.obj
 0001:0001e250       ??1?$MemBlock@UQuickHullFace@local@@$00@local@@QEAA@XZ 000000018001f250 f i QuickHullConvexHullLib.obj
 0001:0001e2d0       ??_GConvexHull@physx@@QEAAPEAXI@Z 000000018001f2d0 f i QuickHullConvexHullLib.obj
 0001:0001e3a0       ??_GQuickHull@local@@QEAAPEAXI@Z 000000018001f3a0 f i QuickHullConvexHullLib.obj
 0001:0001e540       ??_GQuickHullConvexHullLib@physx@@UEAAPEAXI@Z 000000018001f540 f i QuickHullConvexHullLib.obj
 0001:0001e540       ??_EQuickHullConvexHullLib@physx@@UEAAPEAXI@Z 000000018001f540 f i QuickHullConvexHullLib.obj
 0001:0001e630       ?addPointToHull@QuickHull@local@@IEAA_NPEBUQuickHullVertex@2@AEAUQuickHullFace@2@AEA_N@Z 000000018001f630 f   QuickHullConvexHullLib.obj
 0001:0001e900       ?addSimplex@QuickHull@local@@IEAAXPEAUQuickHullVertex@2@_N@Z 000000018001f900 f   QuickHullConvexHullLib.obj
 0001:0001edd0       ?buildHull@QuickHull@local@@QEAA?AW4Enum@QuickHullResult@2@XZ 000000018001fdd0 f   QuickHullConvexHullLib.obj
 0001:0001efe0       ?calculateHorizon@QuickHull@local@@IEAAXAEBVPxVec3@physx@@PEAUQuickHullHalfEdge@2@AEAUQuickHullFace@2@AEAV?$Array@PEAUQuickHullHalfEdge@local@@VNamedAllocator@shdfnd@physx@@@shdfnd@4@AEAV?$Array@PEAUQuickHullFace@local@@VNamedAllocator@shdfnd@physx@@@84@@Z 000000018001ffe0 f   QuickHullConvexHullLib.obj
 0001:0001f190       ?canMergeFaces@QuickHull@local@@IEAA_NAEBUQuickHullHalfEdge@2@@Z 0000000180020190 f   QuickHullConvexHullLib.obj
 0001:0001f9c0       ?cleanupForSimplex@QuickHullConvexHullLib@physx@@IEAA_NPEAVPxVec3@2@IPEAUQuickHullVertex@local@@1AEAM2@Z 00000001800209c0 f   QuickHullConvexHullLib.obj
 0001:00020590       ?computeMinMaxVerts@QuickHull@local@@IEAAXXZ 0000000180021590 f   QuickHullConvexHullLib.obj
 0001:00020960       ?connectHalfEdges@QuickHullFace@local@@AEAAPEAU12@PEAUQuickHullHalfEdge@2@0@Z 0000000180021960 f   QuickHullConvexHullLib.obj
 0001:00020cc0       ?copy@?$Array@UExpandPoint@local@@VNamedAllocator@shdfnd@physx@@@shdfnd@physx@@KAXPEAUExpandPoint@local@@0PEBU45@@Z 0000000180021cc0 f i QuickHullConvexHullLib.obj
 0001:00020d70       ?createConvexHull@QuickHullConvexHullLib@physx@@UEAA?AW4Enum@PxConvexMeshCookingResult@2@XZ 0000000180021d70 f   QuickHullConvexHullLib.obj
 0001:00021160       ?createEdgeList@QuickHullConvexHullLib@physx@@UEAA_NIPEBEPEAPEAEPEAPEAG2@Z 0000000180022160 f   QuickHullConvexHullLib.obj
 0001:00021390       ?createTriangle@QuickHull@local@@IEAAPEAUQuickHullFace@2@AEBUQuickHullVertex@2@00@Z 0000000180022390 f   QuickHullConvexHullLib.obj
 0001:00021720       ?doAdjacentMerge@QuickHull@local@@IEAA_NAEAUQuickHullFace@2@_NAEA_N@Z 0000000180022720 f   QuickHullConvexHullLib.obj
 0001:00021a60       ?expandHull@QuickHullConvexHullLib@physx@@IEAA?AW4Enum@PxConvexMeshCookingResult@2@XZ 0000000180022a60 f   QuickHullConvexHullLib.obj
 0001:000222c0       ?expandHullOBB@QuickHullConvexHullLib@physx@@IEAA?AW4Enum@PxConvexMeshCookingResult@2@XZ 00000001800232c0 f   QuickHullConvexHullLib.obj
 0001:000226f0       ?fillConvexMeshDesc@QuickHullConvexHullLib@physx@@UEAAXAEAVPxConvexMeshDesc@2@@Z 00000001800236f0 f   QuickHullConvexHullLib.obj
 0001:00022740       ?fillConvexMeshDescFromCroppedHull@QuickHullConvexHullLib@physx@@IEAAXAEAVPxConvexMeshDesc@2@@Z 0000000180023740 f   QuickHullConvexHullLib.obj
 0001:00022930       ?fillConvexMeshDescFromQuickHull@QuickHullConvexHullLib@physx@@IEAAXAEAVPxConvexMeshDesc@2@@Z 0000000180023930 f   QuickHullConvexHullLib.obj
 0001:00022ca0       ?findSimplex@QuickHull@local@@IEAA_NXZ 0000000180023ca0 f   QuickHullConvexHullLib.obj
 0001:00023950       ?getFreeItem@?$MemBlock@UQuickHullFace@local@@$00@local@@QEAAPEAUQuickHullFace@2@XZ 0000000180024950 f i QuickHullConvexHullLib.obj
 0001:00023a80       ?getFreeItem@?$MemBlock@UQuickHullHalfEdge@local@@$0A@@local@@QEAAPEAUQuickHullHalfEdge@2@XZ 0000000180024a80 f i QuickHullConvexHullLib.obj
 0001:00023b60       ?growAndPushBack@?$Array@PEAUQuickHullVertex@local@@VNamedAllocator@shdfnd@physx@@@shdfnd@physx@@IEAAAEAPEAUQuickHullVertex@local@@AEBQEAU45@@Z 0000000180024b60 f i QuickHullConvexHullLib.obj
 0001:00023b60       ?growAndPushBack@?$Array@PEAUQuickHullHalfEdge@local@@VNamedAllocator@shdfnd@physx@@@shdfnd@physx@@IEAAAEAPEAUQuickHullHalfEdge@local@@AEBQEAU45@@Z 0000000180024b60 f i QuickHullConvexHullLib.obj
 0001:00023b60       ?growAndPushBack@?$Array@PEAUQuickHullFace@local@@VNamedAllocator@shdfnd@physx@@@shdfnd@physx@@IEAAAEAPEAUQuickHullFace@local@@AEBQEAU45@@Z 0000000180024b60 f i QuickHullConvexHullLib.obj
 0001:00023c50       ?growAndPushBack@?$Array@UExpandPoint@local@@VNamedAllocator@shdfnd@physx@@@shdfnd@physx@@IEAAAEAUExpandPoint@local@@AEBU45@@Z 0000000180024c50 f i QuickHullConvexHullLib.obj
 0001:00023d90       ?init@?$MemBlock@UQuickHullFace@local@@$00@local@@QEAAXI@Z 0000000180024d90 f i QuickHullConvexHullLib.obj
 0001:00023e70       ?init@?$MemBlock@UQuickHullHalfEdge@local@@$0A@@local@@QEAAXI@Z 0000000180024e70 f i QuickHullConvexHullLib.obj
 0001:00023f10       ?mergeAdjacentFace@QuickHullFace@local@@QEAA_NPEAUQuickHullHalfEdge@2@AEAV?$Array@PEAUQuickHullFace@local@@VNamedAllocator@shdfnd@physx@@@shdfnd@physx@@@Z 0000000180024f10 f   QuickHullConvexHullLib.obj
 0001:00024360       ?nextPointToAdd@QuickHull@local@@IEAAPEAUQuickHullVertex@2@AEAPEAUQuickHullFace@2@@Z 0000000180025360 f   QuickHullConvexHullLib.obj
 0001:000244e0       ?parseInputVertices@QuickHull@local@@QEAAXPEBVPxVec3@physx@@I@Z 00000001800254e0 f   QuickHullConvexHullLib.obj
 0001:00024670       ?postMergeHull@QuickHull@local@@IEAAXXZ 0000000180025670 f   QuickHullConvexHullLib.obj
 0001:000248d0       ?preallocate@QuickHull@local@@QEAAXI@Z 00000001800258d0 f   QuickHullConvexHullLib.obj
 0001:00024a10       ?recreate@?$Array@PEAUQuickHullFace@local@@VNamedAllocator@shdfnd@physx@@@shdfnd@physx@@IEAAXI@Z 0000000180025a10 f i QuickHullConvexHullLib.obj
 0001:00024a10       ?recreate@?$Array@PEAUQuickHullVertex@local@@VNamedAllocator@shdfnd@physx@@@shdfnd@physx@@IEAAXI@Z 0000000180025a10 f i QuickHullConvexHullLib.obj
 0001:00024a10       ?recreate@?$Array@PEAUQuickHullHalfEdge@local@@VNamedAllocator@shdfnd@physx@@@shdfnd@physx@@IEAAXI@Z 0000000180025a10 f i QuickHullConvexHullLib.obj
 0001:00024ac0       ?recreate@?$Array@UExpandPoint@local@@VNamedAllocator@shdfnd@physx@@@shdfnd@physx@@IEAAXI@Z 0000000180025ac0 f i QuickHullConvexHullLib.obj
 0001:00024b60       ?resolveUnclaimedPoints@QuickHull@local@@IEAAXAEBV?$Array@PEAUQuickHullFace@local@@VNamedAllocator@shdfnd@physx@@@shdfnd@physx@@@Z 0000000180025b60 f   QuickHullConvexHullLib.obj
 0001:00025860       ?computeVolumeIntegralsEberly@physx@@YA_NAEBVPxConvexMeshDesc@1@MAEAUPxIntegrals@1@AEBVPxVec3@1@@Z 0000000180026860 f   VolumeIntegration.obj
 0001:000258a0       ?computeVolumeIntegralsEberlySIMD@physx@@YA_NAEBVPxConvexMeshDesc@1@MAEAUPxIntegrals@1@AEBVPxVec3@1@@Z 00000001800268a0 f   VolumeIntegration.obj
 0001:00025ee0       ?cookingDelayHook@@YAP6A_JXZIPEAUDelayLoadInfo@@@Z 0000000180026ee0 f   WindowsCookingDelayLoadHook.obj
 0001:00025fc0       PxSetPhysXCookingDelayLoadHook 0000000180026fc0 f   WindowsCookingDelayLoadHook.obj
 0001:00025fc8       __imp_load_??0RadixSortBuffered@Cm@physx@@QEAA@XZ 0000000180026fc8 f   PhysXCommon_64:PhysXCommon_64.dll
 0001:00025fd4       ??0RadixSortBuffered@Cm@physx@@QEAA@XZ 0000000180026fd4 f   PhysXCommon_64:PhysXCommon_64.dll
 0001:00025fda       __tailMerge_physxcommon_64_dll 0000000180026fda     PhysXCommon_64:PhysXCommon_64.dll
 0001:00026053       __imp_load_??1RadixSortBuffered@Cm@physx@@UEAA@XZ 0000000180027053 f   PhysXCommon_64:PhysXCommon_64.dll
 0001:0002605f       ??1RadixSortBuffered@Cm@physx@@UEAA@XZ 000000018002705f f   PhysXCommon_64:PhysXCommon_64.dll
 0001:00026065       __imp_load_?Sort@RadixSortBuffered@Cm@physx@@QEAAAEAV123@PEBIIW4RadixHint@23@@Z 0000000180027065 f   PhysXCommon_64:PhysXCommon_64.dll
 0001:00026071       ?Sort@RadixSortBuffered@Cm@physx@@QEAAAEAV123@PEBIIW4RadixHint@23@@Z 0000000180027071 f   PhysXCommon_64:PhysXCommon_64.dll
 0001:00026077       __imp_load_??0HeightField@Gu@physx@@QEAA@PEAVGuMeshFactory@2@@Z 0000000180027077 f   PhysXCommon_64:PhysXCommon_64.dll
 0001:00026083       ??0HeightField@Gu@physx@@QEAA@PEAVGuMeshFactory@2@@Z 0000000180027083 f   PhysXCommon_64:PhysXCommon_64.dll
 0001:00026089       __imp_load_?loadFromDesc@HeightField@Gu@physx@@QEAA_NAEBVPxHeightFieldDesc@3@@Z 0000000180027089 f   PhysXCommon_64:PhysXCommon_64.dll
 0001:00026095       ?loadFromDesc@HeightField@Gu@physx@@QEAA_NAEBVPxHeightFieldDesc@3@@Z 0000000180027095 f   PhysXCommon_64:PhysXCommon_64.dll
 0001:0002609b       __imp_load_?computeCellCoordinates@HeightField@Gu@physx@@QEBAIMMAEAM0@Z 000000018002709b f   PhysXCommon_64:PhysXCommon_64.dll
 0001:000260a7       ?computeCellCoordinates@HeightField@Gu@physx@@QEBAIMMAEAM0@Z 00000001800270a7 f   PhysXCommon_64:PhysXCommon_64.dll
 0001:000260ad       __imp_load_?releaseMemory@HeightField@Gu@physx@@QEAAXXZ 00000001800270ad f   PhysXCommon_64:PhysXCommon_64.dll
 0001:000260b9       ?releaseMemory@HeightField@Gu@physx@@QEAAXXZ 00000001800270b9 f   PhysXCommon_64:PhysXCommon_64.dll
 0001:000260bf       __imp_load_??1HeightField@Gu@physx@@UEAA@XZ 00000001800270bf f   PhysXCommon_64:PhysXCommon_64.dll
 0001:000260cb       ??1HeightField@Gu@physx@@UEAA@XZ 00000001800270cb f   PhysXCommon_64:PhysXCommon_64.dll
 0001:000260d1       __imp_load_??0NodeAllocator@Gu@physx@@QEAA@XZ 00000001800270d1 f   PhysXCommon_64:PhysXCommon_64.dll
 0001:000260dd       ??0NodeAllocator@Gu@physx@@QEAA@XZ 00000001800270dd f   PhysXCommon_64:PhysXCommon_64.dll
 0001:000260e3       __imp_load_??1NodeAllocator@Gu@physx@@QEAA@XZ 00000001800270e3 f   PhysXCommon_64:PhysXCommon_64.dll
 0001:000260ef       ??1NodeAllocator@Gu@physx@@QEAA@XZ 00000001800270ef f   PhysXCommon_64:PhysXCommon_64.dll
 0001:000260f5       __imp_load_?release@NodeAllocator@Gu@physx@@QEAAXXZ 00000001800270f5 f   PhysXCommon_64:PhysXCommon_64.dll
 0001:00026101       ?release@NodeAllocator@Gu@physx@@QEAAXXZ 0000000180027101 f   PhysXCommon_64:PhysXCommon_64.dll
 0001:00026107       __imp_load_?buildAABBTree@Gu@physx@@YA_NAEAVAABBTreeBuildParams@12@AEAVNodeAllocator@12@AEAUBuildStats@12@AEAPEAI@Z 0000000180027107 f   PhysXCommon_64:PhysXCommon_64.dll
 0001:00026113       ?buildAABBTree@Gu@physx@@YA_NAEAVAABBTreeBuildParams@12@AEAVNodeAllocator@12@AEAUBuildStats@12@AEAPEAI@Z 0000000180027113 f   PhysXCommon_64:PhysXCommon_64.dll
 0001:00026119       __imp_load_?writeDword@physx@@YAXI_NAEAVPxOutputStream@1@@Z 0000000180027119 f   PhysXCommon_64:PhysXCommon_64.dll
 0001:00026125       ?writeDword@physx@@YAXI_NAEAVPxOutputStream@1@@Z 0000000180027125 f   PhysXCommon_64:PhysXCommon_64.dll
 0001:0002612b       __imp_load_?writeFloatBuffer@physx@@YAXPEBMI_NAEAVPxOutputStream@1@@Z 000000018002712b f   PhysXCommon_64:PhysXCommon_64.dll
 0001:00026137       ?writeFloatBuffer@physx@@YAXPEBMI_NAEAVPxOutputStream@1@@Z 0000000180027137 f   PhysXCommon_64:PhysXCommon_64.dll
 0001:0002613d       __imp_load_?writeHeader@physx@@YA_NCCCCI_NAEAVPxOutputStream@1@@Z 000000018002713d f   PhysXCommon_64:PhysXCommon_64.dll
 0001:00026149       ?writeHeader@physx@@YA_NCCCCI_NAEAVPxOutputStream@1@@Z 0000000180027149 f   PhysXCommon_64:PhysXCommon_64.dll
 0001:0002614f       __imp_load_?writeWord@physx@@YAXG_NAEAVPxOutputStream@1@@Z 000000018002714f f   PhysXCommon_64:PhysXCommon_64.dll
 0001:0002615b       ?writeWord@physx@@YAXG_NAEAVPxOutputStream@1@@Z 000000018002715b f   PhysXCommon_64:PhysXCommon_64.dll
 0001:00026161       __imp_load_?writeFloat@physx@@YAXM_NAEAVPxOutputStream@1@@Z 0000000180027161 f   PhysXCommon_64:PhysXCommon_64.dll
 0001:0002616d       ?writeFloat@physx@@YAXM_NAEAVPxOutputStream@1@@Z 000000018002716d f   PhysXCommon_64:PhysXCommon_64.dll
 0001:00026173       __imp_load_?computeBoundsAroundVertices@Gu@physx@@YAXAEAVPxBounds3@2@IPEIBVPxVec3@2@@Z 0000000180027173 f   PhysXCommon_64:PhysXCommon_64.dll
 0001:0002617f       ?computeBoundsAroundVertices@Gu@physx@@YAXAEAVPxBounds3@2@IPEIBVPxVec3@2@@Z 000000018002717f f   PhysXCommon_64:PhysXCommon_64.dll
 0001:00026185       __imp_load_??0SourceMesh@Gu@physx@@QEAA@XZ 0000000180027185 f   PhysXCommon_64:PhysXCommon_64.dll
 0001:00026191       ??0SourceMesh@Gu@physx@@QEAA@XZ 0000000180027191 f   PhysXCommon_64:PhysXCommon_64.dll
 0001:00026197       __imp_load_??1SourceMesh@Gu@physx@@QEAA@XZ 0000000180027197 f   PhysXCommon_64:PhysXCommon_64.dll
 0001:000261a3       ??1SourceMesh@Gu@physx@@QEAA@XZ 00000001800271a3 f   PhysXCommon_64:PhysXCommon_64.dll
 0001:000261a9       __imp_load_??0BV4Tree@Gu@physx@@QEAA@XZ 00000001800271a9 f   PhysXCommon_64:PhysXCommon_64.dll
 0001:000261b5       ??0BV4Tree@Gu@physx@@QEAA@XZ 00000001800271b5 f   PhysXCommon_64:PhysXCommon_64.dll
 0001:000261bb       __imp_load_??1BV4Tree@Gu@physx@@QEAA@XZ 00000001800271bb f   PhysXCommon_64:PhysXCommon_64.dll
 0001:000261c7       ??1BV4Tree@Gu@physx@@QEAA@XZ 00000001800271c7 f   PhysXCommon_64:PhysXCommon_64.dll
 0001:000261cd       __imp_load_??0BV32Tree@Gu@physx@@QEAA@XZ 00000001800271cd f   PhysXCommon_64:PhysXCommon_64.dll
 0001:000261d9       ??0BV32Tree@Gu@physx@@QEAA@XZ 00000001800271d9 f   PhysXCommon_64:PhysXCommon_64.dll
 0001:000261df       __imp_load_??1BV32Tree@Gu@physx@@QEAA@XZ 00000001800271df f   PhysXCommon_64:PhysXCommon_64.dll
 0001:000261eb       ??1BV32Tree@Gu@physx@@QEAA@XZ 00000001800271eb f   PhysXCommon_64:PhysXCommon_64.dll
 0001:000261f1       __imp_load_?writeWordBuffer@physx@@YAXPEBGI_NAEAVPxOutputStream@1@@Z 00000001800271f1 f   PhysXCommon_64:PhysXCommon_64.dll
 0001:000261fd       ?writeWordBuffer@physx@@YAXPEBGI_NAEAVPxOutputStream@1@@Z 00000001800271fd f   PhysXCommon_64:PhysXCommon_64.dll
 0001:00026203       __imp_load_?computeMaxIndex@physx@@YAIPEBII@Z 0000000180027203 f   PhysXCommon_64:PhysXCommon_64.dll
 0001:0002620f       ?computeMaxIndex@physx@@YAIPEBII@Z 000000018002720f f   PhysXCommon_64:PhysXCommon_64.dll
 0001:00026215       __imp_load_?storeIndices@physx@@YAXIIPEBIAEAVPxOutputStream@1@_N@Z 0000000180027215 f   PhysXCommon_64:PhysXCommon_64.dll
 0001:00026221       ?storeIndices@physx@@YAXIIPEBIAEAVPxOutputStream@1@_N@Z 0000000180027221 f   PhysXCommon_64:PhysXCommon_64.dll
 0001:00026227       __imp_load_?BuildBV4Ex@Gu@physx@@YA_NAEAVBV4Tree@12@AEAVSourceMesh@12@MI@Z 0000000180027227 f   PhysXCommon_64:PhysXCommon_64.dll
 0001:00026233       ?BuildBV4Ex@Gu@physx@@YA_NAEAVBV4Tree@12@AEAVSourceMesh@12@MI@Z 0000000180027233 f   PhysXCommon_64:PhysXCommon_64.dll
 0001:00026239       __imp_load_?BuildBV32Ex@Gu@physx@@YA_NAEAVBV32Tree@12@AEAVSourceMesh@12@MI@Z 0000000180027239 f   PhysXCommon_64:PhysXCommon_64.dll
 0001:00026245       ?BuildBV32Ex@Gu@physx@@YA_NAEAVBV32Tree@12@AEAVSourceMesh@12@MI@Z 0000000180027245 f   PhysXCommon_64:PhysXCommon_64.dll
 0001:0002624b       __imp_load_?computeMaxIndex@physx@@YAGPEBGI@Z 000000018002724b f   PhysXCommon_64:PhysXCommon_64.dll
 0001:00026257       ?computeMaxIndex@physx@@YAGPEBGI@Z 0000000180027257 f   PhysXCommon_64:PhysXCommon_64.dll
 0001:0002625d       __imp_load_?WriteHeader@Gu@physx@@YA_NEEEEI_NAEAVPxOutputStream@2@@Z 000000018002725d f   PhysXCommon_64:PhysXCommon_64.dll
 0001:00026269       ?WriteHeader@Gu@physx@@YA_NEEEEI_NAEAVPxOutputStream@2@@Z 0000000180027269 f   PhysXCommon_64:PhysXCommon_64.dll
 0001:0002626f       __imp_load_?StoreIndices@Gu@physx@@YAXGIPEBGAEAVPxOutputStream@2@_N@Z 000000018002726f f   PhysXCommon_64:PhysXCommon_64.dll
 0001:0002627b       ?StoreIndices@Gu@physx@@YAXGIPEBGAEAVPxOutputStream@2@_N@Z 000000018002727b f   PhysXCommon_64:PhysXCommon_64.dll
 0001:00026281       __imp_load_?CreateOffsets@BigConvexData@physx@@IEAAXXZ 0000000180027281 f   PhysXCommon_64:PhysXCommon_64.dll
 0001:0002628d       ?CreateOffsets@BigConvexData@physx@@IEAAXXZ 000000018002728d f   PhysXCommon_64:PhysXCommon_64.dll
 0001:00026293       __imp_load_?computeOBBPoints@Gu@physx@@YAXPEIAVPxVec3@2@AEBV32@1111@Z 0000000180027293 f   PhysXCommon_64:PhysXCommon_64.dll
 0001:0002629f       ?computeOBBPoints@Gu@physx@@YAXPEIAVPxVec3@2@AEBV32@1111@Z 000000018002729f f   PhysXCommon_64:PhysXCommon_64.dll
 0001:000262a5       __imp_load_??0BigConvexData@physx@@QEAA@XZ 00000001800272a5 f   PhysXCommon_64:PhysXCommon_64.dll
 0001:000262b1       ??0BigConvexData@physx@@QEAA@XZ 00000001800272b1 f   PhysXCommon_64:PhysXCommon_64.dll
 0001:000262b7       __imp_load_??1BigConvexData@physx@@QEAA@XZ 00000001800272b7 f   PhysXCommon_64:PhysXCommon_64.dll
 0001:000262c3       ??1BigConvexData@physx@@QEAA@XZ 00000001800272c3 f   PhysXCommon_64:PhysXCommon_64.dll
 0001:000262c9       __imp_load_PxGetFoundation 00000001800272c9 f   PhysXFoundation_64:PhysXFoundation_64.dll
 0001:000262d5       PxGetFoundation            00000001800272d5 f   PhysXFoundation_64:PhysXFoundation_64.dll
 0001:000262db       __tailMerge_physxfoundation_64_dll 00000001800272db     PhysXFoundation_64:PhysXFoundation_64.dll
 0001:00026354       __imp_load_?getAllocator@shdfnd@physx@@YAAEAVPxAllocatorCallback@2@XZ 0000000180027354 f   PhysXFoundation_64:PhysXFoundation_64.dll
 0001:00026360       ?getAllocator@shdfnd@physx@@YAAEAVPxAllocatorCallback@2@XZ 0000000180027360 f   PhysXFoundation_64:PhysXFoundation_64.dll
 0001:00026366       __imp_load_??0NamedAllocator@shdfnd@physx@@QEAA@PEBD@Z 0000000180027366 f   PhysXFoundation_64:PhysXFoundation_64.dll
 0001:00026372       ??0NamedAllocator@shdfnd@physx@@QEAA@PEBD@Z 0000000180027372 f   PhysXFoundation_64:PhysXFoundation_64.dll
 0001:00026378       __imp_load_?getInstance@Foundation@shdfnd@physx@@SAAEAV123@XZ 0000000180027378 f   PhysXFoundation_64:PhysXFoundation_64.dll
 0001:00026384       ?getInstance@Foundation@shdfnd@physx@@SAAEAV123@XZ 0000000180027384 f   PhysXFoundation_64:PhysXFoundation_64.dll
 0001:0002638a       __imp_load_?error@Foundation@shdfnd@physx@@QEAAXW4Enum@PxErrorCode@3@PEBDH1ZZ 000000018002738a f   PhysXFoundation_64:PhysXFoundation_64.dll
 0001:00026396       ?error@Foundation@shdfnd@physx@@QEAAXW4Enum@PxErrorCode@3@PEBDH1ZZ 0000000180027396 f   PhysXFoundation_64:PhysXFoundation_64.dll
 0001:0002639c       __imp_load_?allocate@NamedAllocator@shdfnd@physx@@QEAAPEAX_KPEBDH@Z 000000018002739c f   PhysXFoundation_64:PhysXFoundation_64.dll
 0001:000263a8       ?allocate@NamedAllocator@shdfnd@physx@@QEAAPEAX_KPEBDH@Z 00000001800273a8 f   PhysXFoundation_64:PhysXFoundation_64.dll
 0001:000263ae       __imp_load_?deallocate@NamedAllocator@shdfnd@physx@@QEAAXPEAX@Z 00000001800273ae f   PhysXFoundation_64:PhysXFoundation_64.dll
 0001:000263ba       ?deallocate@NamedAllocator@shdfnd@physx@@QEAAXPEAX@Z 00000001800273ba f   PhysXFoundation_64:PhysXFoundation_64.dll
 0001:000263c0       __imp_load_?incRefCount@Foundation@shdfnd@physx@@SAXXZ 00000001800273c0 f   PhysXFoundation_64:PhysXFoundation_64.dll
 0001:000263cc       ?incRefCount@Foundation@shdfnd@physx@@SAXXZ 00000001800273cc f   PhysXFoundation_64:PhysXFoundation_64.dll
 0001:000263d2       __imp_load_?decRefCount@Foundation@shdfnd@physx@@SAXXZ 00000001800273d2 f   PhysXFoundation_64:PhysXFoundation_64.dll
 0001:000263de       ?decRefCount@Foundation@shdfnd@physx@@SAXXZ 00000001800273de f   PhysXFoundation_64:PhysXFoundation_64.dll
 0001:000263e4       __imp_load_??0FPUGuard@shdfnd@physx@@QEAA@XZ 00000001800273e4 f   PhysXFoundation_64:PhysXFoundation_64.dll
 0001:000263f0       ??0FPUGuard@shdfnd@physx@@QEAA@XZ 00000001800273f0 f   PhysXFoundation_64:PhysXFoundation_64.dll
 0001:000263f6       __imp_load_??1FPUGuard@shdfnd@physx@@QEAA@XZ 00000001800273f6 f   PhysXFoundation_64:PhysXFoundation_64.dll
 0001:00026402       ??1FPUGuard@shdfnd@physx@@QEAA@XZ 0000000180027402 f   PhysXFoundation_64:PhysXFoundation_64.dll
 0001:00026408       __imp_load_??1NamedAllocator@shdfnd@physx@@QEAA@XZ 0000000180027408 f   PhysXFoundation_64:PhysXFoundation_64.dll
 0001:00026414       ??1NamedAllocator@shdfnd@physx@@QEAA@XZ 0000000180027414 f   PhysXFoundation_64:PhysXFoundation_64.dll
 0001:0002641a       __imp_load_??0NamedAllocator@shdfnd@physx@@QEAA@AEBV012@@Z 000000018002741a f   PhysXFoundation_64:PhysXFoundation_64.dll
 0001:00026426       ??0NamedAllocator@shdfnd@physx@@QEAA@AEBV012@@Z 0000000180027426 f   PhysXFoundation_64:PhysXFoundation_64.dll
 0001:0002642c       __imp_load_?allocate@TempAllocator@shdfnd@physx@@QEAAPEAX_KPEBDH@Z 000000018002742c f   PhysXFoundation_64:PhysXFoundation_64.dll
 0001:00026438       ?allocate@TempAllocator@shdfnd@physx@@QEAAPEAX_KPEBDH@Z 0000000180027438 f   PhysXFoundation_64:PhysXFoundation_64.dll
 0001:0002643e       __imp_load_?deallocate@TempAllocator@shdfnd@physx@@QEAAXPEAX@Z 000000018002743e f   PhysXFoundation_64:PhysXFoundation_64.dll
 0001:0002644a       ?deallocate@TempAllocator@shdfnd@physx@@QEAAXPEAX@Z 000000018002744a f   PhysXFoundation_64:PhysXFoundation_64.dll
 0001:00026450       __imp_load_?PxDiagonalize@physx@@YA?AVPxVec3@1@AEBVPxMat33@1@AEAVPxQuat@1@@Z 0000000180027450 f   PhysXFoundation_64:PhysXFoundation_64.dll
 0001:0002645c       ?PxDiagonalize@physx@@YA?AVPxVec3@1@AEBVPxMat33@1@AEAVPxQuat@1@@Z 000000018002745c f   PhysXFoundation_64:PhysXFoundation_64.dll
 0001:00026464       ?DloadAcquireSectionWriteAccess@@YAXXZ 0000000180027464 f i Delayimp:delayhlp.obj
 0001:00026510       ?DloadGetSRWLockFunctionPointers@@YAEXZ 0000000180027510 f i Delayimp:delayhlp.obj
 0001:000265ac       ?DloadMakePermanentImageCommit@@YAXPEAX_K@Z 00000001800275ac f i Delayimp:delayhlp.obj
 0001:00026644       ?DloadObtainSection@@YAPEAXPEAK0@Z 0000000180027644 f i Delayimp:delayhlp.obj
 0001:000266e0       ?DloadProtectSection@@YAXKPEAK@Z 00000001800276e0 f i Delayimp:delayhlp.obj
 0001:00026770       ?DloadReleaseSectionWriteAccess@@YAXXZ 0000000180027770 f i Delayimp:delayhlp.obj
 0001:00026804       __delayLoadHelper2         0000000180027804 f   Delayimp:delayhlp.obj
 0001:00026ad8       ??_V@YAXPEAX@Z             0000000180027ad8 f   LIBCMT:delete_array.obj
 0001:00026ad8       ??3@YAXPEAX_K@Z            0000000180027ad8 f   LIBCMT:delete_scalar_size.obj
 0001:00026ae0       ??_Etype_info@@UEAAPEAXI@Z 0000000180027ae0 f i LIBCMT:std_type_info_static.obj
 0001:00026ae0       ??_Gtype_info@@UEAAPEAXI@Z 0000000180027ae0 f i LIBCMT:std_type_info_static.obj
 0001:00026b0c       ?__scrt_initialize_type_info@@YAXXZ 0000000180027b0c f   LIBCMT:tncleanup.obj
 0001:00026b1c       ?__scrt_uninitialize_type_info@@YAXXZ 0000000180027b1c f   LIBCMT:tncleanup.obj
 0001:00026b40       __chkstk                   0000000180027b40 f   LIBCMT:chkstk.obj
 0001:00026b40       _alloca_probe              0000000180027b40 f   LIBCMT:chkstk.obj
 0001:00026b90       ??3@YAXPEAX@Z              0000000180027b90 f   LIBCMT:delete_scalar.obj
 0001:00026ba0       __vdecl_sinf4              0000000180027ba0 f   LIBCMT:svml_ssinf4_dispatch.obj
 0001:00026bc0       __libm_sse2_sincosf_       0000000180027bc0 f   LIBCMT:svml_ssinf4_dispatch.obj
 0001:00026c03       __libm_sse2_sincosf4_      0000000180027c03 f   LIBCMT:svml_ssinf4_dispatch.obj
 0001:00026f30       _DllMainCRTStartup         0000000180027f30 f   LIBCMT:dll_dllmain.obj
 0001:00026f70       __isa_available_init       0000000180027f70 f   LIBCMT:cpu_disp.obj
 0001:00027120       __sse2_sinf4@@16           0000000180028120 f   LIBCMT:svml_ssinf4_sse2.obj
 0001:00027a60       __sse4_sinf4@@16           0000000180028a60 f   LIBCMT:svml_ssinf4_sse4.obj
 0001:000281d4       __security_init_cookie     00000001800291d4 f   LIBCMT:gs_support.obj
 0001:00028280       __local_stdio_printf_options 0000000180029280 f i LIBCMT:default_local_stdio_options.obj
 0001:00028288       __local_stdio_scanf_options 0000000180029288 f i LIBCMT:default_local_stdio_options.obj
 0001:00028290       __scrt_initialize_default_local_stdio_options 0000000180029290 f   LIBCMT:default_local_stdio_options.obj
 0001:000282ac       __scrt_acquire_startup_lock 00000001800292ac f   LIBCMT:utility.obj
 0001:000282e8       __scrt_dllmain_after_initialize_c 00000001800292e8 f   LIBCMT:utility.obj
 0001:0002831c       __scrt_dllmain_before_initialize_c 000000018002931c f   LIBCMT:utility.obj
 0001:00028334       __scrt_dllmain_crt_thread_attach 0000000180029334 f   LIBCMT:utility.obj
 0001:0002835c       __scrt_dllmain_crt_thread_detach 000000018002935c f   LIBCMT:utility.obj
 0001:00028374       __scrt_dllmain_exception_filter 0000000180029374 f   LIBCMT:utility.obj
 0001:000283d4       __scrt_dllmain_uninitialize_c 00000001800293d4 f   LIBCMT:utility.obj
 0001:00028404       __scrt_dllmain_uninitialize_critical 0000000180029404 f   LIBCMT:utility.obj
 0001:00028418       __scrt_initialize_crt      0000000180029418 f   LIBCMT:utility.obj
 0001:00028464       __scrt_initialize_onexit_tables 0000000180029464 f   LIBCMT:utility.obj
 0001:000284f0       __scrt_is_nonwritable_in_current_image 00000001800294f0 f   LIBCMT:utility.obj
 0001:00028588       __scrt_release_startup_lock 0000000180029588 f   LIBCMT:utility.obj
 0001:000285ac       __scrt_uninitialize_crt    00000001800295ac f   LIBCMT:utility.obj
 0001:000285d8       __scrt_get_dyn_tls_init_callback 00000001800295d8 f   LIBCMT:dyn_tls_init.obj
 0001:000285e0       __crt_debugger_hook        00000001800295e0 f   LIBCMT:utility_desktop.obj
 0001:000285e8       __scrt_fastfail            00000001800295e8 f   LIBCMT:utility_desktop.obj
 0001:00028734       _RTC_Initialize            0000000180029734 f   LIBCMT:initsect.obj
 0001:00028770       _RTC_Terminate             0000000180029770 f   LIBCMT:initsect.obj
 0001:000287b0       __common_ssin_cout_rare    00000001800297b0 f   LIBCMT:svml_s_sin_cout.obj
 0001:00028820       __scrt_is_ucrt_dll_in_use  0000000180029820 f   LIBCMT:ucrt_detection.obj
 0001:0002882c       _get_purecall_handler      000000018002982c f   libvcruntime:purevirt.obj
 0001:00028838       _purecall                  0000000180029838 f   libvcruntime:purevirt.obj
 0001:0002885c       __std_type_info_compare    000000018002985c f   libvcruntime:std_type_info.obj
 0001:00028884       __std_type_info_destroy_list 0000000180029884 f   libvcruntime:std_type_info.obj
 0001:000288b0       __std_type_info_name       00000001800298b0 f   libvcruntime:std_type_info.obj
 0001:000289e0       memset_repmovs             00000001800299e0 f   libvcruntime:memset.obj
 0001:00028a00       memset                     0000000180029a00 f   libvcruntime:memset.obj
 0001:00028ba0       memcpy_repmovs             0000000180029ba0 f   libvcruntime:memcpy.obj
 0001:00028bc0       memcpy                     0000000180029bc0 f   libvcruntime:memcpy.obj
 0001:00028bc0       memmove                    0000000180029bc0 f   libvcruntime:memcpy.obj
 0001:00029238       strstr                     000000018002a238 f   libvcruntime:strstr.obj
 0001:00029434       __C_specific_handler       000000018002a434 f   libvcruntime:riscchandler.obj
 0001:00029640       __vcrt_initialize          000000018002a640 f   libvcruntime:initialization.obj
 0001:00029668       __vcrt_thread_attach       000000018002a668 f   libvcruntime:initialization.obj
 0001:0002967c       __vcrt_thread_detach       000000018002a67c f   libvcruntime:initialization.obj
 0001:00029690       __vcrt_uninitialize        000000018002a690 f   libvcruntime:initialization.obj
 0001:000296ac       __vcrt_uninitialize_critical 000000018002a6ac f   libvcruntime:initialization.obj
 0001:000296bc       __DestructExceptionObject  000000018002a6bc f   libvcruntime:ehhelpers.obj
 0001:0002972c       ?_CallMemberFunction0@@YAXQEAX0@Z 000000018002a72c f i libvcruntime:ehhelpers.obj
 0001:00029730       _IsExceptionObjectToBeDestroyed 000000018002a730 f   libvcruntime:ehhelpers.obj
 0001:00029760       __AdjustPointer            000000018002a760 f   libvcruntime:ehhelpers.obj
 0001:00029784       __FrameUnwindFilter        000000018002a784 f   libvcruntime:ehhelpers.obj
 0001:000297ec       __std_terminate            000000018002a7ec f   libvcruntime:ehhelpers.obj
 0001:000297f8       ??$?0$00@DName@@QEAA@PEBDU?$StringLifeSelector@$00@@@Z 000000018002a7f8 f i libvcruntime:undname.obj
 0001:00029838       ??$?0$0A@@DName@@QEAA@PEBDU?$StringLifeSelector@$0A@@@@Z 000000018002a838 f i libvcruntime:undname.obj
 0001:00029838       ??$?0$01@DName@@QEAA@PEBDU?$StringLifeSelector@$01@@@Z 000000018002a838 f i libvcruntime:undname.obj
 0001:00029878       ??$?0$0A@@pcharNode@@QEAA@PEBDHU?$StringLifeSelector@$0A@@@@Z 000000018002a878 f i libvcruntime:undname.obj
 0001:00029878       ??$?0$01@pcharNode@@QEAA@PEBDHU?$StringLifeSelector@$01@@@Z 000000018002a878 f i libvcruntime:undname.obj
 0001:000298ec       ??$append@VDNameNode@@@DName@@AEAAXPEBVDNameNode@@@Z 000000018002a8ec f i libvcruntime:undname.obj
 0001:000298ec       ??$append@VcharNode@@@DName@@AEAAXPEBVcharNode@@@Z 000000018002a8ec f i libvcruntime:undname.obj
 0001:000298ec       ??$append@VpcharNode@@@DName@@AEAAXPEBVpcharNode@@@Z 000000018002a8ec f i libvcruntime:undname.obj
 0001:000298ec       ??$append@VDNameStatusNode@@@DName@@AEAAXPEBVDNameStatusNode@@@Z 000000018002a8ec f i libvcruntime:undname.obj
 0001:00029950       ??$doPchar@$00@DName@@AEAAXPEBDH@Z 000000018002a950 f i libvcruntime:undname.obj
 0001:000299f4       ??$doPchar@$0A@@DName@@AEAAXPEBDH@Z 000000018002a9f4 f i libvcruntime:undname.obj
 0001:000299f4       ??$doPchar@$01@DName@@AEAAXPEBDH@Z 000000018002a9f4 f i libvcruntime:undname.obj
 0001:00029a8c       ??0DName@@QEAA@AEAPEBDD@Z  000000018002aa8c f   libvcruntime:undname.obj
 0001:00029b3c       ??0DName@@QEAA@AEBUStringLiteral@@@Z 000000018002ab3c f   libvcruntime:undname.obj
 0001:00029b68       ??0DName@@QEAA@PEAV0@@Z    000000018002ab68 f   libvcruntime:undname.obj
 0001:00029bec       ??0DName@@QEAA@_J@Z        000000018002abec f   libvcruntime:undname.obj
 0001:00029c94       ??0DName@@QEAA@_K@Z        000000018002ac94 f   libvcruntime:undname.obj
 0001:00029d24       ??2@YAPEAX_KAEAV_HeapManager@@H@Z 000000018002ad24 f   libvcruntime:undname.obj
 0001:00029d50       ??AReplicator@@QEBA?AVDName@@H@Z 000000018002ad50 f   libvcruntime:undname.obj
 0001:00029d90       ??HDName@@QEBA?AV0@AEBUStringLiteral@@@Z 000000018002ad90 f   libvcruntime:undname.obj
 0001:00029dbc       ??HDName@@QEBA?AV0@AEBV0@@Z 000000018002adbc f   libvcruntime:undname.obj
 0001:00029de8       ??HDName@@QEBA?AV0@D@Z     000000018002ade8 f   libvcruntime:undname.obj
 0001:00029e14       ??HDName@@QEBA?AV0@W4DNameStatus@@@Z 000000018002ae14 f   libvcruntime:undname.obj
 0001:00029e40       ??YDName@@QEAAAEAV0@AEBUStringLiteral@@@Z 000000018002ae40 f   libvcruntime:undname.obj
 0001:00029ec0       ??YDName@@QEAAAEAV0@AEBV0@@Z 000000018002aec0 f   libvcruntime:undname.obj
 0001:00029f74       ??YDName@@QEAAAEAV0@D@Z    000000018002af74 f   libvcruntime:undname.obj
 0001:00029fe0       ??YDName@@QEAAAEAV0@W4DNameStatus@@@Z 000000018002afe0 f   libvcruntime:undname.obj
 0001:0002a04c       ??YReplicator@@QEAAAEAV0@AEBVDName@@@Z 000000018002b04c f   libvcruntime:undname.obj
 0001:0002a0a4       ?UScore@UnDecorator@@SA?AUStringLiteral@@W4Tokens@@@Z 000000018002b0a4 f   libvcruntime:undname.obj
 0001:0002a0f0       ?composeDeclaration@UnDecorator@@CA?AVDName@@AEBV2@@Z 000000018002b0f0 f i libvcruntime:undname.obj
 0001:0002af98       ?doPchar@DName@@AEAAXD@Z   000000018002bf98 f   libvcruntime:undname.obj
 0001:0002afe8       ?getAddressOf@UnDecorator@@CA?AVDName@@XZ 000000018002bfe8 f   libvcruntime:undname.obj
 0001:0002b078       ?getArgumentList@UnDecorator@@CA?AVDName@@XZ 000000018002c078 f   libvcruntime:undname.obj
 0001:0002b20c       ?getArgumentTypes@UnDecorator@@CA?AVDName@@XZ 000000018002c20c f   libvcruntime:undname.obj
 0001:0002b358       ?getArrayAccess@UnDecorator@@CA?AVDName@@XZ 000000018002c358 f   libvcruntime:undname.obj
 0001:0002b3f4       ?getArrayObject@UnDecorator@@CA?AVDName@@XZ 000000018002c3f4 f   libvcruntime:undname.obj
 0001:0002b4c8       ?getArrayType@UnDecorator@@CA?AVDName@@AEBV2@@Z 000000018002c4c8 f i libvcruntime:undname.obj
 0001:0002b710       ?getBasedType@UnDecorator@@CA?AVDName@@XZ 000000018002c710 f   libvcruntime:undname.obj
 0001:0002b808       ?getBasicDataType@UnDecorator@@CA?AVDName@@AEBV2@@Z 000000018002c808 f   libvcruntime:undname.obj
 0001:0002bdac       ?getCallingConvention@UnDecorator@@CA?AVDName@@XZ 000000018002cdac f   libvcruntime:undname.obj
 0001:0002beec       ?getDataIndirectType@UnDecorator@@CA?AVDName@@AEBV2@W4IndirectionKind@@0H@Z 000000018002ceec f   libvcruntime:undname.obj
 0001:0002c784       ?getDataType@UnDecorator@@CA?AVDName@@PEAV2@@Z 000000018002d784 f   libvcruntime:undname.obj
 0001:0002c898       ?getDecoratedName@UnDecorator@@CA?AVDName@@XZ 000000018002d898 f   libvcruntime:undname.obj
 0001:0002cb7c       ?getDimension@UnDecorator@@CA?AVDName@@_N@Z 000000018002db7c f   libvcruntime:undname.obj
 0001:0002ccc4       ?getDispatchTarget@UnDecorator@@CA?AVDName@@XZ 000000018002dcc4 f   libvcruntime:undname.obj
 0001:0002cd28       ?getECSUDataType@UnDecorator@@CA?AVDName@@XZ 000000018002dd28 f   libvcruntime:undname.obj
 0001:0002cf20       ?getEnumType@UnDecorator@@CA?AVDName@@XZ 000000018002df20 f i libvcruntime:undname.obj
 0001:0002d050       ?getExtendedDataIndirectType@UnDecorator@@CA?AVDName@@AEAW4IndirectionKind@@AEA_NH@Z 000000018002e050 f   libvcruntime:undname.obj
 0001:0002d258       ?getExternalDataType@UnDecorator@@CA?AVDName@@AEBV2@@Z 000000018002e258 f i libvcruntime:undname.obj
 0001:0002d318       ?getFloatingPoint@UnDecorator@@CA?AVDName@@H@Z 000000018002e318 f   libvcruntime:undname.obj
 0001:0002d440       ?getFunctionIndirectType@UnDecorator@@CA?AVDName@@AEBV2@@Z 000000018002e440 f   libvcruntime:undname.obj
 0001:0002d978       ?getLastChar@DNameStatusNode@@UEBADXZ 000000018002e978 f i libvcruntime:undname.obj
 0001:0002d984       ?getLastChar@charNode@@UEBADXZ 000000018002e984 f i libvcruntime:undname.obj
 0001:0002d988       ?getLastChar@pDNameNode@@UEBADXZ 000000018002e988 f i libvcruntime:undname.obj
 0001:0002d9b4       ?getLastChar@pairNode@@UEBADXZ 000000018002e9b4 f i libvcruntime:undname.obj
 0001:0002d9ec       ?getLastChar@pcharNode@@UEBADXZ 000000018002e9ec f i libvcruntime:undname.obj
 0001:0002da00       ?getLexicalFrame@UnDecorator@@CA?AVDName@@XZ 000000018002ea00 f i libvcruntime:undname.obj
 0001:0002da64       ?getMemberAccess@UnDecorator@@CA?AVDName@@XZ 000000018002ea64 f   libvcruntime:undname.obj
 0001:0002daf8       ?getMemoryWithBuffer@_HeapManager@@QEAAPEAX_K@Z 000000018002eaf8 f   libvcruntime:undname.obj
 0001:0002db88       ?getNoexcept@UnDecorator@@CA?AVDName@@XZ 000000018002eb88 f   libvcruntime:undname.obj
 0001:0002dbec       ?getNumberOfDimensions@UnDecorator@@CAHXZ 000000018002ebec f   libvcruntime:undname.obj
 0001:0002dc4c       ?getOperatorName@UnDecorator@@CA?AVDName@@_NPEA_N@Z 000000018002ec4c f i libvcruntime:undname.obj
 0001:0002e5fc       ?getPointerToMember@UnDecorator@@CA?AVDName@@XZ 000000018002f5fc f   libvcruntime:undname.obj
 0001:0002e6f4       ?getPrimaryDataType@UnDecorator@@CA?AVDName@@AEBV2@@Z 000000018002f6f4 f   libvcruntime:undname.obj
 0001:0002e9a8       ?getPtrRefDataType@UnDecorator@@CA?AVDName@@AEBV2@H@Z 000000018002f9a8 f   libvcruntime:undname.obj
 0001:0002eb74       ?getPtrRefType@UnDecorator@@CA?AVDName@@AEBV2@0W4IndirectionKind@@@Z 000000018002fb74 f   libvcruntime:undname.obj
 0001:0002ed4c       ?getRestrictionSpec@UnDecorator@@CA?AVDName@@XZ 000000018002fd4c f   libvcruntime:undname.obj
 0001:0002ef18       ?getReturnType@UnDecorator@@CA?AVDName@@PEAV2@@Z 000000018002ff18 f   libvcruntime:undname.obj
 0001:0002ef4c       ?getScope@UnDecorator@@CA?AVDName@@XZ 000000018002ff4c f   libvcruntime:undname.obj
 0001:0002f400       ?getScopedName@UnDecorator@@CA?AVDName@@XZ 0000000180030400 f   libvcruntime:undname.obj
 0001:0002f53c       ?getSignedDimension@UnDecorator@@CA?AVDName@@XZ 000000018003053c f   libvcruntime:undname.obj
 0001:0002f5c4       ?getString@DNameStatusNode@@UEBAPEADPEAD0@Z 00000001800305c4 f i libvcruntime:undname.obj
 0001:0002f60c       ?getString@charNode@@UEBAPEADPEAD0@Z 000000018003060c f i libvcruntime:undname.obj
 0001:0002f620       ?getString@pDNameNode@@UEBAPEADPEAD0@Z 0000000180030620 f i libvcruntime:undname.obj
 0001:0002f650       ?getString@pairNode@@UEBAPEADPEAD0@Z 0000000180030650 f i libvcruntime:undname.obj
 0001:0002f69c       ?getString@pcharNode@@UEBAPEADPEAD0@Z 000000018003069c f i libvcruntime:undname.obj
 0001:0002f6d4       ?getStringEncoding@UnDecorator@@CA?AVDName@@W4PrefixKind@@H@Z 00000001800306d4 f   libvcruntime:undname.obj
 0001:0002f7cc       ?getStringObject@UnDecorator@@CA?AVDName@@XZ 00000001800307cc f   libvcruntime:undname.obj
 0001:0002f834       ?getSymbolName@UnDecorator@@CA?AVDName@@XZ 0000000180030834 f i libvcruntime:undname.obj
 0001:0002f880       ?getTemplateArgumentList@UnDecorator@@CA?AVDName@@XZ 0000000180030880 f   libvcruntime:undname.obj
 0001:0002faf4       ?getTemplateName@UnDecorator@@CA?AVDName@@_N@Z 0000000180030af4 f   libvcruntime:undname.obj
 0001:0002fd88       ?getTemplateNonTypeArgument@UnDecorator@@CA?AVDName@@XZ 0000000180030d88 f   libvcruntime:undname.obj
 0001:000302b8       ?getTemplateTypeArgument@UnDecorator@@CA?AVDName@@XZ 00000001800312b8 f   libvcruntime:undname.obj
 0001:00030420       ?getThrowTypes@UnDecorator@@CA?AVDName@@XZ 0000000180031420 f   libvcruntime:undname.obj
 0001:00030444       ?getTypeEncoding@UnDecorator@@CAHXZ 0000000180031444 f i libvcruntime:undname.obj
 0001:000307f8       ?getUndecoratedName@UnDecorator@@QEAAPEADPEADH@Z 00000001800317f8 f i libvcruntime:undname.obj
 0001:0003094c       ?getUnionObject@UnDecorator@@CA?AVDName@@XZ 000000018003194c f   libvcruntime:undname.obj
 0001:00030a24       ?getVCallThunkType@UnDecorator@@CA?AVDName@@XZ 0000000180031a24 f i libvcruntime:undname.obj
 0001:00030a9c       ?getValue@UnDecorator@@CA?AV?$optional@_K@std@@XZ 0000000180031a9c f   libvcruntime:undname.obj
 0001:00030b10       ?getValueObject@UnDecorator@@CA?AVDName@@XZ 0000000180031b10 f   libvcruntime:undname.obj
 0001:00030c74       ?getVdispMapType@UnDecorator@@CA?AVDName@@AEBV2@@Z 0000000180031c74 f i libvcruntime:undname.obj
 0001:00030cf0       ?getVfTableType@UnDecorator@@CA?AVDName@@AEBV2@@Z 0000000180031cf0 f i libvcruntime:undname.obj
 0001:00030ef8       ?getZName@UnDecorator@@CA?AVDName@@_N0@Z 0000000180031ef8 f   libvcruntime:undname.obj
 0001:000311d4       ?raw_length@DNameStatusNode@@UEBAHXZ 00000001800321d4 f i libvcruntime:undname.obj
 0001:000311d4       ?length@DNameStatusNode@@UEBAHXZ 00000001800321d4 f i libvcruntime:undname.obj
 0001:000311d8       ?length@pDNameNode@@UEBAHXZ 00000001800321d8 f i libvcruntime:undname.obj
 0001:00031200       ?length@pairNode@@UEBAHXZ  0000000180032200 f i libvcruntime:undname.obj
 0001:00031248       ?parseDecoratedName@UnDecorator@@CA?AVDName@@XZ 0000000180032248 f   libvcruntime:undname.obj
 0001:00031360       ?raw_length@pDNameNode@@UEBAHXZ 0000000180032360 f i libvcruntime:undname.obj
 0001:00031364       ?raw_length@pairNode@@UEBAHXZ 0000000180032364 f i libvcruntime:undname.obj
 0001:00031368       __unDName                  0000000180032368 f   libvcruntime:undname.obj
 0001:00031390       __unDNameEx                0000000180032390 f   libvcruntime:undname.obj
 0001:000314c4       sprintf_s                  00000001800324c4 f i libvcruntime:undname.obj
 0001:00031530       _NLG_Notify                0000000180032530 f   libvcruntime:notify.obj
 0001:00031550       __NLG_Dispatch2            0000000180032550 f   libvcruntime:notify.obj
 0001:00031560       __NLG_Return2              0000000180032560 f   libvcruntime:notify.obj
 0001:00031564       __except_validate_context_record 0000000180032564 f   libvcruntime:jbcxrval.obj
 0001:0003159c       __vcrt_freefls             000000018003259c f   libvcruntime:per_thread_data.obj
 0001:000315bc       __vcrt_freeptd             00000001800325bc f   libvcruntime:per_thread_data.obj
 0001:0003160c       __vcrt_getptd              000000018003260c f   libvcruntime:per_thread_data.obj
 0001:00031628       __vcrt_getptd_noexit       0000000180032628 f   libvcruntime:per_thread_data.obj
 0001:000316e8       __vcrt_initialize_ptd      00000001800326e8 f   libvcruntime:per_thread_data.obj
 0001:00031730       __vcrt_uninitialize_ptd    0000000180032730 f   libvcruntime:per_thread_data.obj
 0001:00031754       __vcrt_initialize_locks    0000000180032754 f   libvcruntime:locks.obj
 0001:00031788       __vcrt_lock                0000000180032788 f   libvcruntime:locks.obj
 0001:000317a4       __vcrt_uninitialize_locks  00000001800327a4 f   libvcruntime:locks.obj
 0001:000317dc       __vcrt_unlock              00000001800327dc f   libvcruntime:locks.obj
 0001:000317f8       ??$_CallSETranslator@V__FrameHandler3@@@@YAHPEAUEHExceptionRecord@@PEA_KPEAU_CONTEXT@@PEAU_xDISPATCHER_CONTEXT@@PEBU_s_FuncInfo@@K1H@Z 00000001800327f8 f i libvcruntime:risctrnsctrl.obj
 0001:0003184c       ??$_CallSETranslator@V__FrameHandler4@@@@YAHPEAUEHExceptionRecord@@PEA_KPEAU_CONTEXT@@PEAU_xDISPATCHER_CONTEXT@@PEAUFuncInfo4@FH4@@K1H@Z 000000018003284c f i libvcruntime:risctrnsctrl.obj
 0001:000318a0       ?CatchTryBlock@__FrameHandler3@@SAPEBU_s_TryBlockMapEntry@@PEBU_s_FuncInfo@@H@Z 00000001800328a0 f   libvcruntime:risctrnsctrl.obj
 0001:000318f4       ?DecompFuncInfo@FH4@@YA_JPEAEAEAUFuncInfo4@1@_KH_N@Z 00000001800328f4 f i libvcruntime:risctrnsctrl.obj
 0001:00031a18       ?ExecutionInCatch@__FrameHandler3@@SA_NPEAU_xDISPATCHER_CONTEXT@@PEBU_s_FuncInfo@@@Z 0000000180032a18 f   libvcruntime:risctrnsctrl.obj
 0001:00031a44       ?ExecutionInCatch@__FrameHandler4@@SA_NPEAU_xDISPATCHER_CONTEXT@@PEAUFuncInfo4@FH4@@@Z 0000000180032a44 f   libvcruntime:risctrnsctrl.obj
 0001:00031a4c       ?FrameUnwindToEmptyState@__FrameHandler3@@SAXPEA_KPEAU_xDISPATCHER_CONTEXT@@PEBU_s_FuncInfo@@@Z 0000000180032a4c f   libvcruntime:risctrnsctrl.obj
 0001:00031ab0       ?FrameUnwindToEmptyState@__FrameHandler4@@SAXPEA_KPEAU_xDISPATCHER_CONTEXT@@PEAUFuncInfo4@FH4@@@Z 0000000180032ab0 f   libvcruntime:risctrnsctrl.obj
 0001:00031ae4       ?GetEstablisherFrame@__FrameHandler3@@SAPEA_KPEA_KPEAU_xDISPATCHER_CONTEXT@@PEBU_s_FuncInfo@@0@Z 0000000180032ae4 f   libvcruntime:risctrnsctrl.obj
 0001:00031bb0       ?GetEstablisherFrame@__FrameHandler4@@SAPEA_KPEA_KPEAU_xDISPATCHER_CONTEXT@@PEAUFuncInfo4@FH4@@0@Z 0000000180032bb0 f   libvcruntime:risctrnsctrl.obj
 0001:00031bd4       ?GetRangeOfTrysToCheck@__FrameHandler3@@SA?AU?$pair@Viterator@TryBlockMap@__FrameHandler3@@V123@@std@@AEAVTryBlockMap@1@HPEAU_xDISPATCHER_CONTEXT@@PEBU_s_FuncInfo@@H@Z 0000000180032bd4 f   libvcruntime:risctrnsctrl.obj
 0001:00031d14       ?GetRangeOfTrysToCheck@__FrameHandler4@@SA?AU?$pair@Viterator@TryBlockMap4@FH4@@V123@@std@@AEAVTryBlockMap4@FH4@@HPEAU_xDISPATCHER_CONTEXT@@PEAUFuncInfo4@5@H@Z 0000000180032d14 f   libvcruntime:risctrnsctrl.obj
 0001:00031e7c       ?UnwindNestedFrames@__FrameHandler3@@SAXPEA_KPEAUEHExceptionRecord@@PEAU_CONTEXT@@0PEAXPEBU_s_FuncInfo@@HHPEBU_s_HandlerType@@PEAU_xDISPATCHER_CONTEXT@@E@Z 0000000180032e7c f   libvcruntime:risctrnsctrl.obj
 0001:00031f80       ?UnwindNestedFrames@__FrameHandler4@@SAXPEA_KPEAUEHExceptionRecord@@PEAU_CONTEXT@@0PEAXPEAUFuncInfo4@FH4@@HHPEAUHandlerType4@5@PEAU_xDISPATCHER_CONTEXT@@E@Z 0000000180032f80 f   libvcruntime:risctrnsctrl.obj
 0001:000320a0       ?setBuffer@TryBlockMap4@FH4@@QEAAXViterator@12@@Z 00000001800330a0 f i libvcruntime:risctrnsctrl.obj
 0001:00032260       _CreateFrameInfo           0000000180033260 f   libvcruntime:risctrnsctrl.obj
 0001:0003229c       _FindAndUnlinkFrame        000000018003329c f   libvcruntime:risctrnsctrl.obj
 0001:000322f0       _GetImageBase              00000001800332f0 f   libvcruntime:risctrnsctrl.obj
 0001:00032304       _GetThrowImageBase         0000000180033304 f   libvcruntime:risctrnsctrl.obj
 0001:00032318       _SetImageBase              0000000180033318 f   libvcruntime:risctrnsctrl.obj
 0001:00032330       _SetThrowImageBase         0000000180033330 f   libvcruntime:risctrnsctrl.obj
 0001:00032348       __CxxFrameHandler3         0000000180033348 f   libvcruntime:risctrnsctrl.obj
 0001:000323d0       __CxxFrameHandler4         00000001800333d0 f   libvcruntime:risctrnsctrl.obj
 0001:000325e0       __vcrt_FlsAlloc            00000001800335e0 f   libvcruntime:winapi_downlevel.obj
 0001:00032628       __vcrt_FlsFree             0000000180033628 f   libvcruntime:winapi_downlevel.obj
 0001:00032670       __vcrt_FlsGetValue         0000000180033670 f   libvcruntime:winapi_downlevel.obj
 0001:000326b8       __vcrt_FlsSetValue         00000001800336b8 f   libvcruntime:winapi_downlevel.obj
 0001:0003270c       __vcrt_InitializeCriticalSectionEx 000000018003370c f   libvcruntime:winapi_downlevel.obj
 0001:00032770       ?GetCurrentState@__FrameHandler3@@SAHPEA_KPEAU_xDISPATCHER_CONTEXT@@PEBU_s_FuncInfo@@@Z 0000000180033770 f   libvcruntime:ehstate.obj
 0001:00032798       ?GetUnwindTryBlock@__FrameHandler3@@SAHPEA_KPEAU_xDISPATCHER_CONTEXT@@PEBU_s_FuncInfo@@@Z 0000000180033798 f   libvcruntime:ehstate.obj
 0001:000327c4       ?SetState@__FrameHandler3@@SAXPEA_KPEBU_s_FuncInfo@@H@Z 00000001800337c4 f   libvcruntime:ehstate.obj
 0001:000327d0       ?SetUnwindTryBlock@__FrameHandler3@@SAXPEA_KPEAU_xDISPATCHER_CONTEXT@@PEBU_s_FuncInfo@@H@Z 00000001800337d0 f   libvcruntime:ehstate.obj
 0001:0003280c       ?StateFromControlPc@__FrameHandler3@@SAHPEBU_s_FuncInfo@@PEAU_xDISPATCHER_CONTEXT@@@Z 000000018003380c f   libvcruntime:ehstate.obj
 0001:00032814       ?StateFromControlPc@__FrameHandler4@@SAHPEAUFuncInfo4@FH4@@PEAU_xDISPATCHER_CONTEXT@@@Z 0000000180033814 f   libvcruntime:ehstate.obj
 0001:0003281c       ?StateFromIp@__FrameHandler3@@SAHPEBU_s_FuncInfo@@PEAU_xDISPATCHER_CONTEXT@@_K@Z 000000018003381c f   libvcruntime:ehstate.obj
 0001:00032884       ?StateFromIp@__FrameHandler4@@SAHPEAUFuncInfo4@FH4@@PEAU_xDISPATCHER_CONTEXT@@_K@Z 0000000180033884 f   libvcruntime:ehstate.obj
 0001:00033f68       ??$TypeMatchHelper@V__FrameHandler3@@@@YAHPEBU_s_HandlerType@@PEBU_s_CatchableType@@PEBU_s_ThrowInfo@@@Z 0000000180034f68 f i libvcruntime:frame.obj
 0001:000340a8       ??$TypeMatchHelper@V__FrameHandler4@@@@YAHPEAUHandlerType4@FH4@@PEBU_s_CatchableType@@PEBU_s_ThrowInfo@@@Z 00000001800350a8 f i libvcruntime:frame.obj
 0001:000341ec       ??$__InternalCxxFrameHandler@V__FrameHandler3@@@@YA?AW4_EXCEPTION_DISPOSITION@@PEAUEHExceptionRecord@@PEA_KPEAU_CONTEXT@@PEAU_xDISPATCHER_CONTEXT@@PEBU_s_FuncInfo@@H1E@Z 00000001800351ec f i libvcruntime:frame.obj
 0001:00034424       ??$__InternalCxxFrameHandler@V__FrameHandler4@@@@YA?AW4_EXCEPTION_DISPOSITION@@PEAUEHExceptionRecord@@PEA_KPEAU_CONTEXT@@PEAU_xDISPATCHER_CONTEXT@@PEAUFuncInfo4@FH4@@H1E@Z 0000000180035424 f i libvcruntime:frame.obj
 0001:000346b8       ??0HandlerMap4@FH4@@QEAA@PEBUTryBlockMapEntry4@1@_KH@Z 00000001800356b8 f i libvcruntime:frame.obj
 0001:00034734       ??0TryBlockMap4@FH4@@QEAA@PEBUFuncInfo4@1@_K@Z 0000000180035734 f i libvcruntime:frame.obj
 0001:0003480c       ??0bad_exception@std@@QEAA@AEBV01@@Z 000000018003580c f i libvcruntime:frame.obj
 0001:00034848       ??0bad_exception@std@@QEAA@XZ 0000000180035848 f i libvcruntime:frame.obj
 0001:00034868       ??0exception@std@@QEAA@AEBV01@@Z 0000000180035868 f i libvcruntime:frame.obj
 0001:0003489c       ??1bad_exception@std@@UEAA@XZ 000000018003589c f i libvcruntime:frame.obj
 0001:000348b0       ??_Gexception@std@@UEAAPEAXI@Z 00000001800358b0 f i libvcruntime:frame.obj
 0001:000348b0       ??_Ebad_exception@std@@UEAAPEAXI@Z 00000001800358b0 f i libvcruntime:frame.obj
 0001:000348b0       ??_Eexception@std@@UEAAPEAXI@Z 00000001800358b0 f i libvcruntime:frame.obj
 0001:000348b0       ??_Gbad_exception@std@@UEAAPEAXI@Z 00000001800358b0 f i libvcruntime:frame.obj
 0001:000348f4       ?CxxCallCatchBlock@__FrameHandler3@@SAPEAXPEAU_EXCEPTION_RECORD@@@Z 00000001800358f4 f   libvcruntime:frame.obj
 0001:00034ae0       ?CxxCallCatchBlock@__FrameHandler4@@SAPEAXPEAU_EXCEPTION_RECORD@@@Z 0000000180035ae0 f   libvcruntime:frame.obj
 0001:00034d30       ?DecompHandler@HandlerMap4@FH4@@AEAAXXZ 0000000180035d30 f i libvcruntime:frame.obj
 0001:00034f70       ?FrameUnwindToState@__FrameHandler3@@SAXPEA_KPEAU_xDISPATCHER_CONTEXT@@PEBU_s_FuncInfo@@H@Z 0000000180035f70 f   libvcruntime:frame.obj
 0001:000350fc       ?FrameUnwindToState@__FrameHandler4@@SAXPEA_KPEAU_xDISPATCHER_CONTEXT@@PEAUFuncInfo4@FH4@@H@Z 00000001800360fc f   libvcruntime:frame.obj
 0001:000353e4       ?GetHandlerSearchState@__FrameHandler3@@SAHPEA_KPEAU_xDISPATCHER_CONTEXT@@PEBU_s_FuncInfo@@@Z 00000001800363e4 f i libvcruntime:frame.obj
 0001:000355f4       ?ReadEntry@UWMap4@FH4@@AEAAXPEAPEAE@Z 00000001800365f4 f i libvcruntime:frame.obj
 0001:00035694       ?_CallMemberFunction1@@YAXQEAX00@Z 0000000180036694 f i libvcruntime:frame.obj
 0001:000356a0       ?_CallMemberFunction2@@YAXQEAX00H@Z 00000001800366a0 f i libvcruntime:frame.obj
 0001:000356b0       ?getStartStop@UWMap4@FH4@@QEAAXHHAEAViterator@12@0@Z 00000001800366b0 f i libvcruntime:frame.obj
 0001:00035780       ?getStateFromIterators@UWMap4@FH4@@SAHAEBViterator@12@H0H0@Z 0000000180036780 f i libvcruntime:frame.obj
 0001:00035848       ?what@exception@std@@UEBAPEBDXZ 0000000180036848 f i libvcruntime:frame.obj
 0001:00035870       _CallSettingFrame          0000000180036870 f   libvcruntime:handlers.obj
 0001:000358c0       _CallSettingFrame_LookupContinuationIndex 00000001800368c0 f   libvcruntime:handlers.obj
 0001:000358f0       _CallSettingFrame_NotifyContinuationAddr 00000001800368f0 f   libvcruntime:handlers.obj
 0001:00035920       _CallSettingFrameEncoded   0000000180036920 f   libvcruntime:handlers.obj
 0001:00035968       __std_exception_copy       0000000180036968 f   libvcruntime:std_exception.obj
 0001:000359f8       __std_exception_destroy    00000001800369f8 f   libvcruntime:std_exception.obj
 0001:00035a20       _CxxThrowException         0000000180036a20 f   libvcruntime:throw.obj
 0001:00035ad0       strcmp                     0000000180036ad0 f   libucrt:strcmp.obj
 0001:00035b38       atan2f                     0000000180036b38 f   libucrt:atan2f.obj
 0001:00035f30       _fpclass                   0000000180036f30 f   libucrt:ieeemisc.obj
 0001:00035fc0       cosf                       0000000180036fc0 f   libucrt:cosf.obj
 0001:000364c0       sinf                       00000001800374c0 f   libucrt:sinf.obj
 0001:00036bb8       free                       0000000180037bb8 f   libucrt:free.obj
 0001:00036bcc       _initterm                  0000000180037bcc f   libucrt:initterm.obj
 0001:00036c10       _initterm_e                0000000180037c10 f   libucrt:initterm.obj
 0001:00036c58       _seh_filter_dll            0000000180037c58 f   libucrt:exception_filter.obj
 0001:00036c6c       _seh_filter_exe            0000000180037c6c f   libucrt:exception_filter.obj
 0001:00037084       __acrt_initialize_thread_local_exit_callback 0000000180038084 f   libucrt:exit.obj
 0001:0003708c       _cexit                     000000018003808c f   libucrt:exit.obj
 0001:0003709c       _exit                      000000018003809c f   libucrt:exit.obj
 0001:000370a8       _is_c_termination_complete 00000001800380a8 f   libucrt:exit.obj
 0001:00037278       __acrt_allocate_buffer_for_argv 0000000180038278 f   libucrt:argv_parsing.obj
 0001:000372d8       _configure_narrow_argv     00000001800382d8 f   libucrt:argv_parsing.obj
 0001:00037660       __dcrt_uninitialize_environments_nolock 0000000180038660 f   libucrt:environment_initialization.obj
 0001:000376a4       _initialize_narrow_environment 00000001800386a4 f   libucrt:environment_initialization.obj
 0001:00037808       _execute_onexit_table      0000000180038808 f   libucrt:onexit.obj
 0001:0003784c       _initialize_onexit_table   000000018003884c f   libucrt:onexit.obj
 0001:000378ac       __acrt_uninitialize_command_line 00000001800388ac f   libucrt:argv_data.obj
 0001:000379a4       __acrt_initialize          00000001800389a4 f   libucrt:initialization.obj
 0001:000379b8       __acrt_thread_attach       00000001800389b8 f   libucrt:initialization.obj
 0001:000379cc       __acrt_thread_detach       00000001800389cc f   libucrt:initialization.obj
 0001:000379dc       __acrt_uninitialize        00000001800389dc f   libucrt:initialization.obj
 0001:00037a14       __acrt_uninitialize_critical 0000000180038a14 f   libucrt:initialization.obj
 0001:00037a24       terminate                  0000000180038a24 f   libucrt:terminate.obj
 0001:00037a50       abort                      0000000180038a50 f   libucrt:abort.obj
 0001:00037aa8       malloc                     0000000180038aa8 f   libucrt:malloc.obj
 0001:00037ab0       strcpy_s                   0000000180038ab0 f   libucrt:strcpy_s.obj
 0001:00037cc0       ??$ensure_buffer_is_big_enough@D@formatting_buffer@__crt_stdio_output@@QEAA_N_KAEAV__crt_cached_ptd_host@@@Z 0000000180038cc0 f i libucrt:output.obj
 0001:00037d68       ??$parse_integer@KV?$c_string_character_source@D@__crt_strtox@@$0A@@__crt_strtox@@YAKAEAV__crt_cached_ptd_host@@V?$c_string_character_source@D@0@H_N@Z 0000000180038d68 f i libucrt:output.obj
 0001:0003801c       ??$type_case_integer@$07@?$output_processor@DV?$string_output_adapter@D@__crt_stdio_output@@V?$format_validation_base@DV?$string_output_adapter@D@__crt_stdio_output@@@2@@__crt_stdio_output@@AEAA_N_N@Z 000000018003901c f i libucrt:output.obj
 0001:00038220       ??$type_case_integer@$09@?$output_processor@DV?$string_output_adapter@D@__crt_stdio_output@@V?$format_validation_base@DV?$string_output_adapter@D@__crt_stdio_output@@@2@@__crt_stdio_output@@AEAA_N_N@Z 0000000180039220 f i libucrt:output.obj
 0001:00038424       ??$type_case_integer@$0BA@@?$output_processor@DV?$string_output_adapter@D@__crt_stdio_output@@V?$format_validation_base@DV?$string_output_adapter@D@__crt_stdio_output@@@2@@__crt_stdio_output@@AEAA_N_N@Z 0000000180039424 f i libucrt:output.obj
 0001:00038628       ??$type_case_integer_parse_into_buffer@I$07@?$output_processor@DV?$string_output_adapter@D@__crt_stdio_output@@V?$format_validation_base@DV?$string_output_adapter@D@__crt_stdio_output@@@2@@__crt_stdio_output@@AEAAXI_N@Z 0000000180039628 f i libucrt:output.obj
 0001:00038698       ??$type_case_integer_parse_into_buffer@I$09@?$output_processor@DV?$string_output_adapter@D@__crt_stdio_output@@V?$format_validation_base@DV?$string_output_adapter@D@__crt_stdio_output@@@2@@__crt_stdio_output@@AEAAXI_N@Z 0000000180039698 f i libucrt:output.obj
 0001:00038744       ??$type_case_integer_parse_into_buffer@I$0BA@@?$output_processor@DV?$string_output_adapter@D@__crt_stdio_output@@V?$format_validation_base@DV?$string_output_adapter@D@__crt_stdio_output@@@2@@__crt_stdio_output@@AEAAXI_N@Z 0000000180039744 f i libucrt:output.obj
 0001:000387c8       ??$type_case_integer_parse_into_buffer@_K$07@?$output_processor@DV?$string_output_adapter@D@__crt_stdio_output@@V?$format_validation_base@DV?$string_output_adapter@D@__crt_stdio_output@@@2@@__crt_stdio_output@@AEAAX_K_N@Z 00000001800397c8 f i libucrt:output.obj
 0001:00038838       ??$type_case_integer_parse_into_buffer@_K$09@?$output_processor@DV?$string_output_adapter@D@__crt_stdio_output@@V?$format_validation_base@DV?$string_output_adapter@D@__crt_stdio_output@@@2@@__crt_stdio_output@@AEAAX_K_N@Z 0000000180039838 f i libucrt:output.obj
 0001:000388e8       ??$type_case_integer_parse_into_buffer@_K$0BA@@?$output_processor@DV?$string_output_adapter@D@__crt_stdio_output@@V?$format_validation_base@DV?$string_output_adapter@D@__crt_stdio_output@@@2@@__crt_stdio_output@@AEAAX_K_N@Z 00000001800398e8 f i libucrt:output.obj
 0001:0003896c       ?crop_zeroes@__crt_stdio_output@@YAXPEADQEAU__crt_locale_pointers@@@Z 000000018003996c f i libucrt:output.obj
 0001:000389e0       ?get_raw_ptd@__crt_cached_ptd_host@@QEAAPEAU__acrt_ptd@@XZ 00000001800399e0 f i libucrt:output.obj
 0001:00038a48       ?parse_int_from_format_string@?$output_processor@DV?$string_output_adapter@D@__crt_stdio_output@@V?$format_validation_base@DV?$string_output_adapter@D@__crt_stdio_output@@@2@@__crt_stdio_output@@AEAA_NQEAH@Z 0000000180039a48 f i libucrt:output.obj
 0001:00038ad8       ?process@?$output_processor@DV?$string_output_adapter@D@__crt_stdio_output@@V?$format_validation_base@DV?$string_output_adapter@D@__crt_stdio_output@@@2@@__crt_stdio_output@@QEAAHXZ 0000000180039ad8 f i libucrt:output.obj
 0001:00038e5c       ?state_case_size@?$output_processor@DV?$string_output_adapter@D@__crt_stdio_output@@V?$format_validation_base@DV?$string_output_adapter@D@__crt_stdio_output@@@2@@__crt_stdio_output@@AEAA_NXZ 0000000180039e5c f i libucrt:output.obj
 0001:00038fe4       ?state_case_type@?$output_processor@DV?$string_output_adapter@D@__crt_stdio_output@@V?$format_validation_base@DV?$string_output_adapter@D@__crt_stdio_output@@@2@@__crt_stdio_output@@AEAA_NXZ 0000000180039fe4 f i libucrt:output.obj
 0001:000393e8       ?type_case_Z@?$output_processor@DV?$string_output_adapter@D@__crt_stdio_output@@V?$format_validation_base@DV?$string_output_adapter@D@__crt_stdio_output@@@2@@__crt_stdio_output@@AEAA_NXZ 000000018003a3e8 f i libucrt:output.obj
 0001:00039464       ?type_case_a@?$output_processor@DV?$string_output_adapter@D@__crt_stdio_output@@V?$format_validation_base@DV?$string_output_adapter@D@__crt_stdio_output@@@2@@__crt_stdio_output@@AEAA_NXZ 000000018003a464 f i libucrt:output.obj
 0001:000396b8       ?type_case_c_tchar@?$output_processor@DV?$string_output_adapter@D@__crt_stdio_output@@V?$format_validation_base@DV?$string_output_adapter@D@__crt_stdio_output@@@2@@__crt_stdio_output@@AEAA_ND@Z 000000018003a6b8 f i libucrt:output.obj
 0001:0003978c       ?type_case_n@?$output_processor@DV?$string_output_adapter@D@__crt_stdio_output@@V?$format_validation_base@DV?$string_output_adapter@D@__crt_stdio_output@@@2@@__crt_stdio_output@@AEAA_NXZ 000000018003a78c f i libucrt:output.obj
 0001:00039844       ?type_case_s@?$output_processor@DV?$string_output_adapter@D@__crt_stdio_output@@V?$format_validation_base@DV?$string_output_adapter@D@__crt_stdio_output@@@2@@__crt_stdio_output@@AEAA_NXZ 000000018003a844 f i libucrt:output.obj
 0001:000398e0       ?update_locale_slow@__crt_cached_ptd_host@@AEAAXXZ 000000018003a8e0 f i libucrt:output.obj
 0001:00039958       ?write_string@?$string_output_adapter@D@__crt_stdio_output@@QEBAXQEBDHQEAHAEAV__crt_cached_ptd_host@@@Z 000000018003a958 f i libucrt:output.obj
 0001:000399fc       __stdio_common_vsprintf_s  000000018003a9fc f   libucrt:output.obj
 0001:00039b10       ??$parse_integer@KV?$c_string_character_source@D@__crt_strtox@@$00@__crt_strtox@@YAKAEAV__crt_cached_ptd_host@@V?$c_string_character_source@D@0@H_N@Z 000000018003ab10 f i libucrt:atox.obj
 0001:00039e00       _ischartype_l              000000018003ae00 f i libucrt:atox.obj
 0001:00039e78       atol                       000000018003ae78 f   libucrt:atox.obj
 0001:00039f40       strncmp                    000000018003af40 f   libucrt:strncmp.obj
 0001:00039fc0       calloc                     000000018003afc0 f   libucrt:calloc.obj
 0001:00039fc8       wcsncmp                    000000018003afc8 f   libucrt:wcsncmp.obj
 0001:00039ff4       _clrfp                     000000018003aff4 f   libucrt:fpctrl.obj
 0001:0003a014       _ctrlfp                    000000018003b014 f   libucrt:fpctrl.obj
 0001:0003a090       _set_statfp                000000018003b090 f   libucrt:fpctrl.obj
 0001:0003a0b0       _statfp                    000000018003b0b0 f   libucrt:fpctrl.obj
 0001:0003a1e8       _handle_error              000000018003b1e8 f   libucrt:libm_error.obj
 0001:0003a310       _handle_errorf             000000018003b310 f   libucrt:libm_error.obj
 0001:0003a444       _handle_nan                000000018003b444 f   libucrt:libm_error.obj
 0001:0003a460       _handle_nanf               000000018003b460 f   libucrt:libm_error.obj
 0001:0003a470       __remainder_piby2d2f_forAsm 000000018003b470 f   libucrt:remainder_piby2f_forasm.obj
 0001:0003a5c0       __remainder_piby2_fma3     000000018003b5c0 f   libucrt:remainder_piby2_forfma3.obj
 0001:0003a7b0       __remainder_piby2_fma3_bdl 000000018003b7b0 f   libucrt:remainder_piby2_forfma3.obj
 0001:0003a828       _cosf_special              000000018003b828 f   libucrt:sincos_special.obj
 0001:0003a8c8       _sinf_special              000000018003b8c8 f   libucrt:sincos_special.obj
 0001:0003a8e0       __acrt_initialize_fma3     000000018003b8e0 f   libucrt:fma3_available.obj
 0001:0003a950       __remainder_piby2d2f_forC  000000018003b950 f   libucrt:remainder_piby2f_forc.obj
 0001:0003aadc       _free_base                 000000018003badc f   libucrt:free_base.obj
 0001:0003ae90       __acrt_freeptd             000000018003be90 f   libucrt:per_thread_data.obj
 0001:0003aed4       __acrt_getptd              000000018003bed4 f   libucrt:per_thread_data.obj
 0001:0003afa8       __acrt_getptd_head         000000018003bfa8 f   libucrt:per_thread_data.obj
 0001:0003b04c       __acrt_getptd_noexit       000000018003c04c f   libucrt:per_thread_data.obj
 0001:0003b114       __acrt_getptd_noexit_explicit 000000018003c114 f   libucrt:per_thread_data.obj
 0001:0003b1d4       __acrt_initialize_ptd      000000018003c1d4 f   libucrt:per_thread_data.obj
 0001:0003b210       __acrt_uninitialize_ptd    000000018003c210 f   libucrt:per_thread_data.obj
 0001:0003b234       __acrt_initialize_locks    000000018003c234 f   libucrt:locks.obj
 0001:0003b27c       __acrt_lock                000000018003c27c f   libucrt:locks.obj
 0001:0003b298       __acrt_uninitialize_locks  000000018003c298 f   libucrt:locks.obj
 0001:0003b2d0       __acrt_unlock              000000018003c2d0 f   libucrt:locks.obj
 0001:0003b2ec       __acrt_app_verifier_enabled 000000018003c2ec f   libucrt:peb_access.obj
 0001:0003b308       __acrt_is_secure_process   000000018003c308 f   libucrt:peb_access.obj
 0001:0003b320       __acrt_get_process_end_policy 000000018003c320 f   libucrt:win_policies.obj
 0001:0003b350       ?get_raw_ptd_noexit@__crt_cached_ptd_host@@QEAAPEAU__acrt_ptd@@XZ 000000018003c350 f i libucrt:invalid_parameter.obj
 0001:0003b3bc       ?value@?$dual_state_global@P6AXPEB_W00I_K@Z@__crt_state_management@@QEAAAEAP6AXPEB_W00I_K@ZAEAV__crt_cached_ptd_host@@@Z 000000018003c3bc f i libucrt:invalid_parameter.obj
 0001:0003b408       __acrt_call_reportfault    000000018003c408 f   libucrt:invalid_parameter.obj
 0001:0003b564       __acrt_initialize_invalid_parameter_handler 000000018003c564 f   libucrt:invalid_parameter.obj
 0001:0003b56c       _invalid_parameter         000000018003c56c f   libucrt:invalid_parameter.obj
 0001:0003b608       _invalid_parameter_internal 000000018003c608 f   libucrt:invalid_parameter.obj
 0001:0003b6d4       _invalid_parameter_noinfo  000000018003c6d4 f   libucrt:invalid_parameter.obj
 0001:0003b6f4       _invoke_watson             000000018003c6f4 f   libucrt:invalid_parameter.obj
 0001:0003b73c       __acrt_errno_from_os_error 000000018003c73c f   libucrt:errno.obj
 0001:0003b784       __acrt_errno_map_os_error  000000018003c784 f   libucrt:errno.obj
 0001:0003b7cc       __acrt_errno_map_os_error_ptd 000000018003c7cc f   libucrt:errno.obj
 0001:0003b7f0       __doserrno                 000000018003c7f0 f   libucrt:errno.obj
 0001:0003b810       _errno                     000000018003c810 f   libucrt:errno.obj
 0001:0003b830       _calloc_base               000000018003c830 f   libucrt:calloc_base.obj
 0001:0003b8bc       ??$__acrt_convert_wcs_mbs_cp@D_WV<lambda_7c9dea7b4ca7285d2cdb541a38da6275>@@U__crt_win32_buffer_internal_dynamic_resizing@@@@YAHQEBDAEAV?$__crt_win32_buffer@_WU__crt_win32_buffer_internal_dynamic_resizing@@@@AEBV<lambda_7c9dea7b4ca7285d2cdb541a38da6275>@@I@Z 000000018003c8bc f i libucrt:argv_wildcards.obj
 0001:0003ba38       ??$__acrt_convert_wcs_mbs_cp@_WDV<lambda_d8593a27d1aa8c02be35c86a17d324c4>@@U__crt_win32_buffer_internal_dynamic_resizing@@@@YAHQEB_WAEAV?$__crt_win32_buffer@DU__crt_win32_buffer_internal_dynamic_resizing@@@@AEBV<lambda_d8593a27d1aa8c02be35c86a17d324c4>@@I@Z 000000018003ca38 f i libucrt:argv_wildcards.obj
 0001:0003c2dc       ??0_LocaleUpdate@@QEAA@QEAU__crt_locale_pointers@@@Z 000000018003d2dc f i libucrt:argv_wildcards.obj
 0001:0003c378       __acrt_expand_narrow_argv_wildcards 000000018003d378 f   libucrt:argv_wildcards.obj
 0001:0003c380       ??$__acrt_convert_wcs_mbs_cp@_WDV<lambda_f788ae46380686e8b737efdd8c720d07>@@U__crt_win32_buffer_no_resizing@@@@YAHQEB_WAEAV?$__crt_win32_buffer@DU__crt_win32_buffer_no_resizing@@@@AEBV<lambda_f788ae46380686e8b737efdd8c720d07>@@I@Z 000000018003d380 f i libucrt:getmodulefilenamea.obj
 0001:0003c49c       __acrt_GetModuleFileNameA  000000018003d49c f   libucrt:getmodulefilenamea.obj
 0001:0003cdb8       __acrt_initialize_multibyte 000000018003ddb8 f   libucrt:mbctype.obj
 0001:0003ce18       __acrt_update_thread_multibyte_data 000000018003de18 f   libucrt:mbctype.obj
 0001:0003ce34       _setmbcp_nolock            000000018003de34 f   libucrt:mbctype.obj
 0001:0003d168       _ismbblead                 000000018003e168 f   libucrt:ismbbyte.obj
 0001:0003d17c       __acrt_initialize_command_line 000000018003e17c f   libucrt:argv_data.obj
 0001:0003d1a4       __acrt_MultiByteToWideChar 000000018003e1a4 f   libucrt:multibytetowidechar.obj
 0001:0003d234       __acrt_WideCharToMultiByte 000000018003e234 f   libucrt:widechartomultibyte.obj
 0001:0003d314       __dcrt_get_narrow_environment_from_os 000000018003e314 f   libucrt:get_environment_from_os.obj
 0001:0003d424       _recalloc_base             000000018003e424 f   libucrt:recalloc.obj
 0001:0003d678       __acrt_AppPolicyGetProcessTerminationMethodInternal 000000018003e678 f   libucrt:winapi_thunks.obj
 0001:0003d6d0       __acrt_AreFileApisANSI     000000018003e6d0 f   libucrt:winapi_thunks.obj
 0001:0003d714       __acrt_FlsAlloc            000000018003e714 f   libucrt:winapi_thunks.obj
 0001:0003d71c       __acrt_FlsFree             000000018003e71c f   libucrt:winapi_thunks.obj
 0001:0003d724       __acrt_FlsGetValue         000000018003e724 f   libucrt:winapi_thunks.obj
 0001:0003d72c       __acrt_FlsSetValue         000000018003e72c f   libucrt:winapi_thunks.obj
 0001:0003d734       __acrt_InitializeCriticalSectionEx 000000018003e734 f   libucrt:winapi_thunks.obj
 0001:0003d7a4       __acrt_LCMapStringEx       000000018003e7a4 f   libucrt:winapi_thunks.obj
 0001:0003d890       __acrt_LocaleNameToLCID    000000018003e890 f   libucrt:winapi_thunks.obj
 0001:0003d8f0       __acrt_initialize_winapi_thunks 000000018003e8f0 f   libucrt:winapi_thunks.obj
 0001:0003d914       __acrt_uninitialize_winapi_thunks 000000018003e914 f   libucrt:winapi_thunks.obj
 0001:0003d958       __acrt_initialize_heap     000000018003e958 f   libucrt:heap_handle.obj
 0001:0003d974       __acrt_uninitialize_heap   000000018003e974 f   libucrt:heap_handle.obj
 0001:0003db78       __acrt_initialize_lowio    000000018003eb78 f   libucrt:ioinit.obj
 0001:0003dbb4       __acrt_uninitialize_lowio  000000018003ebb4 f   libucrt:ioinit.obj
 0001:0003dbf4       __acrt_execute_initializers 000000018003ebf4 f   libucrt:shared_initialization.obj
 0001:0003dc88       __acrt_execute_uninitializers 000000018003ec88 f   libucrt:shared_initialization.obj
 0001:0003dcd0       __acrt_initialize_new_handler 000000018003ecd0 f   libucrt:new_handler.obj
 0001:0003dcd8       _callnewh                  000000018003ecd8 f   libucrt:new_handler.obj
 0001:0003dd18       _query_new_handler         000000018003ed18 f   libucrt:new_handler.obj
 0001:0003dd98       __acrt_get_sigabrt_handler 000000018003ed98 f   libucrt:signal.obj
 0001:0003ddc8       __acrt_initialize_signal_handlers 000000018003edc8 f   libucrt:signal.obj
 0001:0003dde8       raise                      000000018003ede8 f   libucrt:signal.obj
 0001:0003e064       __acrt_has_user_matherr    000000018003f064 f   libucrt:matherr.obj
 0001:0003e084       __acrt_initialize_user_matherr 000000018003f084 f   libucrt:matherr.obj
 0001:0003e08c       __acrt_invoke_user_matherr 000000018003f08c f   libucrt:matherr.obj
 0001:0003e2a8       __acrt_stdio_flush_nolock  000000018003f2a8 f   libucrt:fflush.obj
 0001:0003e334       _fflush_nolock             000000018003f334 f   libucrt:fflush.obj
 0001:0003e408       _flushall                  000000018003f408 f   libucrt:fflush.obj
 0001:0003e410       __acrt_initialize_stdio    000000018003f410 f   libucrt:_file.obj
 0001:0003e530       __acrt_uninitialize_stdio  000000018003f530 f   libucrt:_file.obj
 0001:0003e58c       _lock_file                 000000018003f58c f   libucrt:_file.obj
 0001:0003e598       _unlock_file               000000018003f598 f   libucrt:_file.obj
 0001:0003e5a4       _malloc_base               000000018003f5a4 f   libucrt:malloc_base.obj
 0001:0003e604       strnlen                    000000018003f604 f   libucrt:strnlen.obj
 0001:0003e754       wcsnlen                    000000018003f754 f   libucrt:strnlen.obj
 0001:0003e92c       __acrt_update_locale_info  000000018003f92c f   libucrt:locale_update.obj
 0001:0003e960       __acrt_update_locale_info_explicit 000000018003f960 f   libucrt:locale_update.obj
 0001:0003e998       __acrt_update_multibyte_info 000000018003f998 f   libucrt:locale_update.obj
 0001:0003e9cc       __acrt_update_multibyte_info_explicit 000000018003f9cc f   libucrt:locale_update.obj
 0001:0003f518       __acrt_fp_format           0000000180040518 f   libucrt:cvt.obj
 0001:0003f800       _wctomb_internal           0000000180040800 f   libucrt:wctomb.obj
 0001:0003f9b0       _mbtowc_internal           00000001800409b0 f   libucrt:mbtowc.obj
 0001:0003fb28       _fileno                    0000000180040b28 f   libucrt:fileno.obj
 0001:0003fb50       _get_printf_count_output   0000000180040b50 f   libucrt:printf_count_output.obj
 0001:0003fbd8       __acrt_set_locale_changed  0000000180040bd8 f   libucrt:wsetlocale.obj
 0001:0003fbe4       __acrt_uninitialize_locale 0000000180040be4 f   libucrt:wsetlocale.obj
 0001:0003fc14       __pctype_func              0000000180040c14 f   libucrt:ctype.obj
 0001:0003fc44       _isctype_l                 0000000180040c44 f   libucrt:isctype.obj
 0001:0003fd60       _get_fpsr                  0000000180040d60 f   libucrt:fpsr.obj
 0001:0003fd70       _set_fpsr                  0000000180040d70 f   libucrt:fpsr.obj
 0001:0003fd7a       _fclrf                     0000000180040d7a f   libucrt:fpsr.obj
 0001:0003fd8e       _frnd                      0000000180040d8e f   libucrt:fpsr.obj
 0001:0003fdb0       _raise_exc                 0000000180040db0 f   libucrt:fpexcept.obj
 0001:0003fdd8       _raise_exc_ex              0000000180040dd8 f   libucrt:fpexcept.obj
 0001:000400e0       _raise_excf                00000001800410e0 f   libucrt:fpexcept.obj
 0001:0004010c       _set_errno_from_matherr    000000018004110c f   libucrt:fpexcept.obj
 0001:0004013c       __acrt_add_locale_ref      000000018004113c f   libucrt:locale_refcounting.obj
 0001:000401c8       __acrt_free_locale         00000001800411c8 f   libucrt:locale_refcounting.obj
 0001:00040340       __acrt_locale_add_lc_time_reference 0000000180041340 f   libucrt:locale_refcounting.obj
 0001:00040368       __acrt_locale_free_lc_time_if_unreferenced 0000000180041368 f   libucrt:locale_refcounting.obj
 0001:000403a0       __acrt_locale_release_lc_time_reference 00000001800413a0 f   libucrt:locale_refcounting.obj
 0001:000403c8       __acrt_release_locale_ref  00000001800413c8 f   libucrt:locale_refcounting.obj
 0001:00040470       __acrt_update_thread_locale_data 0000000180041470 f   libucrt:locale_refcounting.obj
 0001:000404e0       _updatetlocinfoEx_nolock   00000001800414e0 f   libucrt:locale_refcounting.obj
 0001:00040548       _query_new_mode            0000000180041548 f   libucrt:new_mode.obj
 0001:00040550       qsort                      0000000180041550 f   libucrt:qsort.obj
 0001:00040960       strncpy_s                  0000000180041960 f   libucrt:strncpy_s.obj
 0001:00040af0       strpbrk                    0000000180041af0 f   libucrt:strpbrk.obj
 0001:00040eb8       _mbsdec                    0000000180041eb8 f   libucrt:mbsdec.obj
 0001:00040ec0       _mbsdec_l                  0000000180041ec0 f   libucrt:mbsdec.obj
 0001:00040f54       __acrt_GetStringTypeA      0000000180041f54 f   libucrt:getstringtypea.obj
 0001:00041418       __acrt_LCMapStringA        0000000180042418 f   libucrt:lcmapstringa.obj
 0001:000414c8       _msize_base                00000001800424c8 f   libucrt:msize.obj
 0001:00041504       _realloc_base              0000000180042504 f   libucrt:realloc_base.obj
 0001:00041580       __acrt_DownlevelLocaleNameToLCID 0000000180042580 f   libucrt:lcidtoname_downlevel.obj
 0001:00041624       __acrt_lowio_create_handle_array 0000000180042624 f   libucrt:osfinfo.obj
 0001:000416cc       __acrt_lowio_destroy_handle_array 00000001800426cc f   libucrt:osfinfo.obj
 0001:0004171c       __acrt_lowio_ensure_fh_exists 000000018004271c f   libucrt:osfinfo.obj
 0001:000417c4       __acrt_lowio_lock_fh       00000001800427c4 f   libucrt:osfinfo.obj
 0001:000417ec       __acrt_lowio_unlock_fh     00000001800427ec f   libucrt:osfinfo.obj
 0001:00041814       _free_osfhnd               0000000180042814 f   libucrt:osfinfo.obj
 0001:000418d0       _get_osfhandle             00000001800428d0 f   libucrt:osfinfo.obj
 0001:000419d4       _commit                    00000001800429d4 f   libucrt:commit.obj
 0001:00042270       _write_internal            0000000180043270 f   libucrt:write.obj
 0001:00042390       _write_nolock              0000000180043390 f   libucrt:write.obj
 0001:00042698       _fcloseall                 0000000180043698 f   libucrt:closeall.obj
 0001:0004274c       __acrt_stdio_free_buffer_nolock 000000018004374c f   libucrt:_freebuf.obj
 0001:00042790       _isatty                    0000000180043790 f   libucrt:isatty.obj
 0001:000428c0       __acrt_fp_strflt_to_string 00000001800438c0 f   libucrt:_fptostr.obj
 0001:000429d0       ?divide@__crt_strtox@@YA_KAEAUbig_integer@1@AEBU21@@Z 00000001800439d0 f i libucrt:cfout.obj
 0001:00042e6c       __acrt_fltout              0000000180043e6c f   libucrt:cfout.obj
 0001:00044184       fegetround                 0000000180045184 f   libucrt:fegetround.obj
 0001:00044198       ?__c32rtomb_utf8@__crt_mbstring@@YA_KPEAD_UPEAU_Mbstatet@@AEAV__crt_cached_ptd_host@@@Z 0000000180045198 f   libucrt:c32rtomb.obj
 0001:0004423c       ?__mbrtowc_utf8@__crt_mbstring@@YA_KPEA_WPEBD_KPEAU_Mbstatet@@AEAV__crt_cached_ptd_host@@@Z 000000018004523c f   libucrt:mbrtowc.obj
 0001:00044280       ?__mbsrtowcs_utf8@__crt_mbstring@@YA_KPEA_WPEAPEBD_KPEAU_Mbstatet@@AEAV__crt_cached_ptd_host@@@Z 0000000180045280 f   libucrt:mbrtowc.obj
 0001:00044424       __acrt_locale_free_monetary 0000000180045424 f   libucrt:initmon.obj
 0001:00044530       __acrt_locale_free_numeric 0000000180045530 f   libucrt:initnum.obj
 0001:000445d0       __acrt_locale_free_time    00000001800455d0 f   libucrt:inittime.obj
 0001:000446d8       __strncnt                  00000001800456d8 f   libucrt:strncnt.obj
 0001:000446f0       __ascii_wcsnicmp           00000001800456f0 f   libucrt:wcsnicmp.obj
 0001:0004473c       _query_app_type            000000018004573c f   libucrt:report_runtime_error.obj
 0001:000447f0       _lseeki64_nolock_internal  00000001800457f0 f   libucrt:lseek.obj
 0001:000447f8       _putwch_nolock             00000001800457f8 f   libucrt:putwch.obj
 0001:00044958       fclose                     0000000180045958 f   libucrt:fclose.obj
 0001:000449f0       _controlfp_s               00000001800459f0 f   libucrt:contrlfp.obj
 0001:00044a54       fegetenv                   0000000180045a54 f   libucrt:fegetenv.obj
 0001:00044a74       fesetenv                   0000000180045a74 f   libucrt:fesetenv.obj
 0001:00044acc       feholdexcept               0000000180045acc f   libucrt:feholdexcept.obj
 0001:00044b1c       ceil                       0000000180045b1c f   libucrt:ceil.obj
 0001:00044be0       log10                      0000000180045be0 f   libucrt:log10.obj
 0001:0004518c       __acrt_fenv_get_common_round_control 000000018004618c f   libucrt:_fenvutils.obj
 0001:00045198       __acrt_fenv_get_control    0000000180046198 f   libucrt:_fenvutils.obj
 0001:0004527c       __acrt_fenv_get_status     000000018004627c f   libucrt:_fenvutils.obj
 0001:000452d4       __acrt_fenv_set_control    00000001800462d4 f   libucrt:_fenvutils.obj
 0001:0004540c       __acrt_fenv_set_status     000000018004640c f   libucrt:_fenvutils.obj
 0001:00045480       ?reset_and_return@__crt_mbstring@@YA_K_KPEAU_Mbstatet@@@Z 0000000180046480 f   libucrt:common_utf8.obj
 0001:00045488       ?return_illegal_sequence@__crt_mbstring@@YA_KPEAU_Mbstatet@@AEAV__crt_cached_ptd_host@@@Z 0000000180046488 f   libucrt:common_utf8.obj
 0001:0004549c       ?__mbrtoc32_utf8@__crt_mbstring@@YA_KPEA_UPEBD_KPEAU_Mbstatet@@AEAV__crt_cached_ptd_host@@@Z 000000018004649c f   libucrt:mbrtoc32.obj
 0001:00045678       __dcrt_lowio_ensure_console_output_initialized 0000000180046678 f   libucrt:initcon.obj
 0001:000456cc       __dcrt_terminate_console_output 00000001800466cc f   libucrt:initcon.obj
 0001:000456e8       __dcrt_write_console       00000001800466e8 f   libucrt:initcon.obj
 0001:00045820       _close_internal            0000000180046820 f   libucrt:close.obj
 0001:000458e4       _close_nolock_internal     00000001800468e4 f   libucrt:close.obj
 0001:000459b4       ?__acrt_stdio_free_stream@@YAXV__crt_stdio_stream@@@Z 00000001800469b4 f   libucrt:stream.obj
 0001:000459d0       _clearfp                   00000001800469d0 f   libucrt:ieee.obj
 0001:00045a3c       _control87                 0000000180046a3c f   libucrt:ieee.obj
 0001:00045ce0       _log10_special             0000000180046ce0 f   libucrt:log_special.obj
 0001:00045da0       _FindPESection             0000000180046da0 f   LIBCMT:pesect.obj
 0001:00045df0       _IsNonwritableInCurrentImage 0000000180046df0 f   LIBCMT:pesect.obj
 0001:00045e40       _ValidateImageBase         0000000180046e40 f   LIBCMT:pesect.obj
 0001:00045e70       __GSHandlerCheck           0000000180046e70 f   LIBCMT:gshandler.obj
 0001:00045e90       __GSHandlerCheckCommon     0000000180046e90 f   LIBCMT:gshandler.obj
 0001:00045f00       __security_check_cookie    0000000180046f00 f   LIBCMT:amdsecgs.obj
 0001:00045f20       __GSHandlerCheck_SEH       0000000180046f20 f   LIBCMT:gshandlerseh.obj
 0001:00045fa8       __raise_securityfailure    0000000180046fa8 f   LIBCMT:gs_report.obj
 0001:00045fdc       __report_gsfailure         0000000180046fdc f   LIBCMT:gs_report.obj
 0001:000460b0       __report_rangecheckfailure 00000001800470b0 f   LIBCMT:gs_report.obj
 0001:000460c4       __report_securityfailure   00000001800470c4 f   LIBCMT:gs_report.obj
 0001:00046244       __GSHandlerCheck_EH        0000000180047244 f   LIBCMT:gshandlereh.obj
 0001:000462c4       __C_specific_handler_noexcept 00000001800472c4 f   libvcruntime:chandler_noexcept.obj
 0001:00046310       strrchr                    0000000180047310 f   libvcruntime:strrchr.obj
 0001:00046450       memcmp                     0000000180047450 f   libvcruntime:memcmp.obj
 0001:00046530       _guard_dispatch_icall_nop  0000000180047530 f   LIBCMT:guard_dispatch.obj
 0001:00046550       _guard_xfg_dispatch_icall_nop 0000000180047550 f   LIBCMT:guard_xfg_dispatch.obj
 0002:00000000       __imp_LoadLibraryA         0000000180048000     kernel32:KERNEL32.dll
 0002:00000008       __imp_WriteConsoleW        0000000180048008     kernel32:KERNEL32.dll
 0002:00000010       __imp_RaiseException       0000000180048010     kernel32:KERNEL32.dll
 0002:00000018       __imp_GetLastError         0000000180048018     kernel32:KERNEL32.dll
 0002:00000020       __imp_GetSystemInfo        0000000180048020     kernel32:KERNEL32.dll
 0002:00000028       __imp_VirtualProtect       0000000180048028     kernel32:KERNEL32.dll
 0002:00000030       __imp_VirtualQuery         0000000180048030     kernel32:KERNEL32.dll
 0002:00000038       __imp_FreeLibrary          0000000180048038     kernel32:KERNEL32.dll
 0002:00000040       __imp_GetModuleHandleW     0000000180048040     kernel32:KERNEL32.dll
 0002:00000048       __imp_GetProcAddress       0000000180048048     kernel32:KERNEL32.dll
 0002:00000050       __imp_LoadLibraryExA       0000000180048050     kernel32:KERNEL32.dll
 0002:00000058       __imp_InitializeSListHead  0000000180048058     kernel32:KERNEL32.dll
 0002:00000060       __imp_QueryPerformanceCounter 0000000180048060     kernel32:KERNEL32.dll
 0002:00000068       __imp_GetCurrentProcessId  0000000180048068     kernel32:KERNEL32.dll
 0002:00000070       __imp_GetCurrentThreadId   0000000180048070     kernel32:KERNEL32.dll
 0002:00000078       __imp_GetSystemTimeAsFileTime 0000000180048078     kernel32:KERNEL32.dll
 0002:00000080       __imp_RtlCaptureContext    0000000180048080     kernel32:KERNEL32.dll
 0002:00000088       __imp_RtlLookupFunctionEntry 0000000180048088     kernel32:KERNEL32.dll
 0002:00000090       __imp_RtlVirtualUnwind     0000000180048090     kernel32:KERNEL32.dll
 0002:00000098       __imp_IsDebuggerPresent    0000000180048098     kernel32:KERNEL32.dll
 0002:000000a0       __imp_UnhandledExceptionFilter 00000001800480a0     kernel32:KERNEL32.dll
 0002:000000a8       __imp_SetUnhandledExceptionFilter 00000001800480a8     kernel32:KERNEL32.dll
 0002:000000b0       __imp_GetStartupInfoW      00000001800480b0     kernel32:KERNEL32.dll
 0002:000000b8       __imp_IsProcessorFeaturePresent 00000001800480b8     kernel32:KERNEL32.dll
 0002:000000c0       __imp_InterlockedPushEntrySList 00000001800480c0     kernel32:KERNEL32.dll
 0002:000000c8       __imp_InterlockedFlushSList 00000001800480c8     kernel32:KERNEL32.dll
 0002:000000d0       __imp_RtlUnwindEx          00000001800480d0     kernel32:KERNEL32.dll
 0002:000000d8       __imp_SetLastError         00000001800480d8     kernel32:KERNEL32.dll
 0002:000000e0       __imp_EnterCriticalSection 00000001800480e0     kernel32:KERNEL32.dll
 0002:000000e8       __imp_LeaveCriticalSection 00000001800480e8     kernel32:KERNEL32.dll
 0002:000000f0       __imp_DeleteCriticalSection 00000001800480f0     kernel32:KERNEL32.dll
 0002:000000f8       __imp_InitializeCriticalSectionAndSpinCount 00000001800480f8     kernel32:KERNEL32.dll
 0002:00000100       __imp_TlsAlloc             0000000180048100     kernel32:KERNEL32.dll
 0002:00000108       __imp_TlsGetValue          0000000180048108     kernel32:KERNEL32.dll
 0002:00000110       __imp_TlsSetValue          0000000180048110     kernel32:KERNEL32.dll
 0002:00000118       __imp_TlsFree              0000000180048118     kernel32:KERNEL32.dll
 0002:00000120       __imp_LoadLibraryExW       0000000180048120     kernel32:KERNEL32.dll
 0002:00000128       __imp_EncodePointer        0000000180048128     kernel32:KERNEL32.dll
 0002:00000130       __imp_RtlPcToFileHeader    0000000180048130     kernel32:KERNEL32.dll
 0002:00000138       __imp_GetCurrentProcess    0000000180048138     kernel32:KERNEL32.dll
 0002:00000140       __imp_ExitProcess          0000000180048140     kernel32:KERNEL32.dll
 0002:00000148       __imp_TerminateProcess     0000000180048148     kernel32:KERNEL32.dll
 0002:00000150       __imp_GetModuleHandleExW   0000000180048150     kernel32:KERNEL32.dll
 0002:00000158       __imp_GetModuleFileNameW   0000000180048158     kernel32:KERNEL32.dll
 0002:00000160       __imp_HeapFree             0000000180048160     kernel32:KERNEL32.dll
 0002:00000168       __imp_HeapAlloc            0000000180048168     kernel32:KERNEL32.dll
 0002:00000170       __imp_FindClose            0000000180048170     kernel32:KERNEL32.dll
 0002:00000178       __imp_FindFirstFileExW     0000000180048178     kernel32:KERNEL32.dll
 0002:00000180       __imp_FindNextFileW        0000000180048180     kernel32:KERNEL32.dll
 0002:00000188       __imp_IsValidCodePage      0000000180048188     kernel32:KERNEL32.dll
 0002:00000190       __imp_GetACP               0000000180048190     kernel32:KERNEL32.dll
 0002:00000198       __imp_GetOEMCP             0000000180048198     kernel32:KERNEL32.dll
 0002:000001a0       __imp_GetCPInfo            00000001800481a0     kernel32:KERNEL32.dll
 0002:000001a8       __imp_GetCommandLineA      00000001800481a8     kernel32:KERNEL32.dll
 0002:000001b0       __imp_GetCommandLineW      00000001800481b0     kernel32:KERNEL32.dll
 0002:000001b8       __imp_MultiByteToWideChar  00000001800481b8     kernel32:KERNEL32.dll
 0002:000001c0       __imp_WideCharToMultiByte  00000001800481c0     kernel32:KERNEL32.dll
 0002:000001c8       __imp_GetEnvironmentStringsW 00000001800481c8     kernel32:KERNEL32.dll
 0002:000001d0       __imp_FreeEnvironmentStringsW 00000001800481d0     kernel32:KERNEL32.dll
 0002:000001d8       __imp_FlsAlloc             00000001800481d8     kernel32:KERNEL32.dll
 0002:000001e0       __imp_FlsGetValue          00000001800481e0     kernel32:KERNEL32.dll
 0002:000001e8       __imp_FlsSetValue          00000001800481e8     kernel32:KERNEL32.dll
 0002:000001f0       __imp_FlsFree              00000001800481f0     kernel32:KERNEL32.dll
 0002:000001f8       __imp_LCMapStringW         00000001800481f8     kernel32:KERNEL32.dll
 0002:00000200       __imp_GetProcessHeap       0000000180048200     kernel32:KERNEL32.dll
 0002:00000208       __imp_GetStdHandle         0000000180048208     kernel32:KERNEL32.dll
 0002:00000210       __imp_GetFileType          0000000180048210     kernel32:KERNEL32.dll
 0002:00000218       __imp_GetStringTypeW       0000000180048218     kernel32:KERNEL32.dll
 0002:00000220       __imp_HeapSize             0000000180048220     kernel32:KERNEL32.dll
 0002:00000228       __imp_HeapReAlloc          0000000180048228     kernel32:KERNEL32.dll
 0002:00000230       __imp_SetStdHandle         0000000180048230     kernel32:KERNEL32.dll
 0002:00000238       __imp_FlushFileBuffers     0000000180048238     kernel32:KERNEL32.dll
 0002:00000240       __imp_WriteFile            0000000180048240     kernel32:KERNEL32.dll
 0002:00000248       __imp_GetConsoleOutputCP   0000000180048248     kernel32:KERNEL32.dll
 0002:00000250       __imp_GetConsoleMode       0000000180048250     kernel32:KERNEL32.dll
 0002:00000258       __imp_SetFilePointerEx     0000000180048258     kernel32:KERNEL32.dll
 0002:00000260       __imp_CreateFileW          0000000180048260     kernel32:KERNEL32.dll
 0002:00000268       __imp_CloseHandle          0000000180048268     kernel32:KERNEL32.dll
 0002:00000270       \177KERNEL32_NULL_THUNK_DATA 0000000180048270     kernel32:KERNEL32.dll
 0002:00000278       __guard_check_icall_fptr   0000000180048278     LIBCMT:guard_support.obj
 0002:00000280       __guard_xfg_check_icall_fptr 0000000180048280     LIBCMT:guard_support.obj
 0002:00000288       __guard_dispatch_icall_fptr 0000000180048288     LIBCMT:guard_support.obj
 0002:00000290       __guard_xfg_dispatch_icall_fptr 0000000180048290     LIBCMT:guard_support.obj
 0002:00000298       __guard_xfg_table_dispatch_icall_fptr 0000000180048298     LIBCMT:guard_support.obj
 0002:000002a0       __xc_a                     00000001800482a0     LIBCMT:initializers.obj
 0002:00000488       __xc_z                     0000000180048488     LIBCMT:initializers.obj
 0002:00000490       __xi_a                     0000000180048490     LIBCMT:initializers.obj
 0002:00000498       __acrt_tran_fma3_initializer 0000000180048498     libucrt:fma3_initializer.obj
 0002:000004a0       __acrt_multibyte_initializer 00000001800484a0     libucrt:multibyte_initializer.obj
 0002:000004a8       __acrt_stdio_initializer   00000001800484a8     libucrt:stdio_initializer.obj
 0002:000004b0       __xi_z                     00000001800484b0     LIBCMT:initializers.obj
 0002:000004b8       __xp_a                     00000001800484b8     LIBCMT:initializers.obj
 0002:000004c0       __acrt_locale_terminator   00000001800484c0     libucrt:locale_initializer.obj
 0002:000004c8       __dcrt_console_output_terminator 00000001800484c8     libucrt:console_output_initializer.obj
 0002:000004d0       __acrt_stdio_terminator    00000001800484d0     libucrt:stdio_initializer.obj
 0002:000004d8       __xp_z                     00000001800484d8     LIBCMT:initializers.obj
 0002:000004e0       __xt_a                     00000001800484e0     LIBCMT:initializers.obj
 0002:000004e8       __xt_z                     00000001800484e8     LIBCMT:initializers.obj
 0002:000004f0       ??_7PxFoundation@physx@@6B@ 00000001800484f0     Adjacencies.obj
 0002:00000530       ??_C@_0DP@KMBGHKHL@C?3?2dev?2PhysX?94?41?2physx?2source?2p@ 0000000180048530     Adjacencies.obj
 0002:00000570       ??_C@_0DA@FMEHLBKI@Adjacencies?3?3UpdateLink?3?5invali@ 0000000180048570     Adjacencies.obj
 0002:000005a0       ??_C@_0EA@CPHOACLK@Adjacencies?3?3CreateDatabase?3?5ca@ 00000001800485a0     Adjacencies.obj
 0002:000005e0       ??_C@_0BM@OIFKLHDN@?$DMallocation?5names?5disabled?$DO@ 00000001800485e0     Adjacencies.obj
 0002:00000620       ?sBufferSize@DebugText@Cm@physx@@2HB 0000000180048620     Cooking.obj
 0002:00000624       ??_C@_06EJKDJEDO@PxBase@   0000000180048624     Cooking.obj
 0002:00000630       ??_C@_0N@CDGINLLF@PxConvexMesh@ 0000000180048630     Cooking.obj
 0002:00000640       ??_C@_0O@PBAKPCEC@PxHeightField@ 0000000180048640     Cooking.obj
 0002:00000650       ??_7PxBase@physx@@6B@      0000000180048650     Cooking.obj
 0002:00000678       ??_7PxCooking@physx@@6B@   0000000180048678     Cooking.obj
 0002:000006f8       ??_7Cooking@physx@@6B@     00000001800486f8     Cooking.obj
 0002:00000780       ??_C@_0FC@PJIHAFK@Cooking?3?3validateTriangleMesh?3?5@ 0000000180048780     Cooking.obj
 0002:000007d8       ??_C@_0DL@KECHIGPF@C?3?2dev?2PhysX?94?41?2physx?2source?2p@ 00000001800487d8     Cooking.obj
 0002:00000820       ??_C@_0EK@EKAIJEBL@Cooking?3?3cookConvexMesh?3?5user?9p@ 0000000180048820     Cooking.obj
 0002:00000870       ??_C@_0FA@GFFGAPML@Cooking?3?3cookConvexMesh?3?5provid@ 0000000180048870     Cooking.obj
 0002:000008c0       ??_C@_0EP@PKDCPNNO@Cooking?3?3cookConvexMesh?3?5provid@ 00000001800488c0     Cooking.obj
 0002:00000910       ??_C@_0EO@LKFMMDE@Cooking?3?3cookConvexMesh?3?5user?9p@ 0000000180048910     Cooking.obj
 0002:00000960       ??_C@_0EN@FCEPCAFC@Cooking?3?3createHeightField?3?5use@ 0000000180048960     Cooking.obj
 0002:000009b0       ??_C@_0DL@KPEPOCJI@C?3?2dev?2PhysX?94?41?2physx?2source?2f@ 00000001800489b0     Cooking.obj
 0002:000009ec       __real@3f800000            00000001800489ec     Cooking.obj
 0002:000009f0       __xmm@000000003a83126f3a83126f3a83126f 00000001800489f0     Cooking.obj
 0002:00000a00       __xmm@00000000ba83126fba83126fba83126f 0000000180048a00     Cooking.obj
 0002:00000a10       __xmm@3a83126f3a83126f3a83126f3a83126f 0000000180048a10     Cooking.obj
 0002:00000a20       __xmm@80000000800000008000000080000000 0000000180048a20     Cooking.obj
 0002:00000a30       __xmm@ba83126fba83126fba83126fba83126f 0000000180048a30     Cooking.obj
 0002:00000a40       __xmm@cdcdcdcdcdcdcdcdcdcdcdcdcdcdcdcd 0000000180048a40     Cooking.obj
 0002:00000a50       ??_C@_0EA@BLBHDFGO@C?3?2dev?2PhysX?94?41?2physx?2source?2p@ 0000000180048a50     CookingUtils.obj
 0002:00000a90       ??_C@_06KDGGGLIJ@PxVec3@   0000000180048a90     CookingUtils.obj
 0002:00000a98       ??_C@_08MOINBLFP@EdgeData@ 0000000180048a98     EdgeList.obj
 0002:00000aa8       ??_C@_0DM@IJNJMLPG@C?3?2dev?2PhysX?94?41?2physx?2source?2p@ 0000000180048aa8     EdgeList.obj
 0002:00000ae8       ??_C@_0N@HMDODPCO@EdgeDescData@ 0000000180048ae8     EdgeList.obj
 0002:00000af8       ??_C@_0CO@GBNJFPN@EdgeList?3?3CreateFacesToEdges?3?5N@ 0000000180048af8     EdgeList.obj
 0002:00000b28       ??_C@_0BN@EPPJDECF@EdgeListBuilder?5FacesByEdges@ 0000000180048b28     EdgeList.obj
 0002:00000b48       ??_C@_0CO@EHJBBMNK@EdgeList?3?3ComputeActiveEdges?3?5N@ 0000000180048b48     EdgeList.obj
 0002:00000b78       ??_C@_0DI@GBHLFOFP@ActiveEdges?3?3ComputeConvexEdges@ 0000000180048b78     EdgeList.obj
 0002:00000bb0       ??_C@_0DM@JOGBLHDI@ActiveEdges?3?3ComputeConvexEdges@ 0000000180048bb0     EdgeList.obj
 0002:00000bf0       ??_C@_0ED@FEMJKPEL@ActiveEdges?3?3ComputeConvexEdges@ 0000000180048bf0     EdgeList.obj
 0002:00000c40       ??_C@_0EB@BFDPMFCD@ActiveEdges?3?3ComputeConvexEdges@ 0000000180048c40     EdgeList.obj
 0002:00000c84       ??_C@_04DDKJGDCM@bool@     0000000180048c84     EdgeList.obj
 0002:00000c8c       __real@bf7fbe77            0000000180048c8c     EdgeList.obj
 0002:00000c90       __xmm@7fffffff7fffffff7fffffff7fffffff 0000000180048c90     EdgeList.obj
 0002:00000ca0       ??_C@_0M@GOCDBJNH@MeshCleaner@ 0000000180048ca0     MeshCleaner.obj
 0002:00000cb0       ??_C@_0DP@IJENFHCP@C?3?2dev?2PhysX?94?41?2physx?2source?2p@ 0000000180048cb0     MeshCleaner.obj
 0002:00000cf0       __real@3f000000            0000000180048cf0     MeshCleaner.obj
 0002:00000cf8       ??_7Quantizer@physx@@6B@   0000000180048cf8     Quantizer.obj
 0002:00000d20       ??_7QuantizerImpl@@6B@     0000000180048d20     Quantizer.obj
 0002:00000d48       ??_C@_0DN@JNLKPLAA@C?3?2dev?2PhysX?94?41?2physx?2source?2p@ 0000000180048d48     Quantizer.obj
 0002:00000d88       ??_C@_05LMJPANIN@PxU32@    0000000180048d88     Quantizer.obj
 0002:00000d90       __real@38d1b717            0000000180048d90     Quantizer.obj
 0002:00000d94       __real@3c23d70a            0000000180048d94     Quantizer.obj
 0002:00000d98       __real@3f0020c5            0000000180048d98     Quantizer.obj
 0002:00000d9c       __real@3f8020c5            0000000180048d9c     Quantizer.obj
 0002:00000da0       __real@7f7fffff            0000000180048da0     Quantizer.obj
 0002:00000da4       __real@fe7fffff            0000000180048da4     Quantizer.obj
 0002:00000db0       __xmm@fe7fffff7e7fffff7e7fffff7e7fffff 0000000180048db0     Quantizer.obj
 0002:00000de0       ??_C@_09JDCJAPKD@PxBounds3@ 0000000180048de0     BVHStructureBuilder.obj
 0002:00000df0       ??_C@_0EH@GCMKOIHK@C?3?2dev?2PhysX?94?41?2physx?2source?2p@ 0000000180048df0     BVHStructureBuilder.obj
 0002:00000e38       ??_C@_0BA@KPLGFFHA@AABB?5tree?5nodes@ 0000000180048e38     BVHStructureBuilder.obj
 0002:00000e50       __xmm@3ba3d70a3ba3d70a3ba3d70a3ba3d70a 0000000180048e50     BVHStructureBuilder.obj
 0002:00000e80       ?reductionFactors@SubSortQuick@physx@@2QBMB 0000000180048e80     RTreeCooking.obj
 0002:00000e90       ?stopAtTrisPerLeaf1@SubSortQuick@physx@@2QBIB 0000000180048e90     RTreeCooking.obj
 0002:00000f38       ??_C@_0BA@DLCJDKDM@NonTrackedAlloc@ 0000000180048f38     RTreeCooking.obj
 0002:00000f48       ??_C@_07ELGPMHDP@metricL@  0000000180048f48     RTreeCooking.obj
 0002:00000f50       ??_C@_0EF@LLFCFNMO@C?3?2dev?2PhysX?94?41?2physx?2source?2p@ 0000000180048f50     RTreeCooking.obj
 0002:00000f98       ??_C@_07JPCOPIOA@metricR@  0000000180048f98     RTreeCooking.obj
 0002:00000fa0       ??_C@_0M@OKCMHFAG@tempPermute@ 0000000180048fa0     RTreeCooking.obj
 0002:00000fb0       ??_C@_09CMNIGKAE@tempRanks@ 0000000180048fb0     RTreeCooking.obj
 0002:00000fc0       ??_C@_0DK@OBIONGHK@C?3?2dev?2PhysX?94?41?2physx?2source?2f@ 0000000180048fc0     RTreeCooking.obj
 0002:00001000       ??_C@_0ED@LBAMKDEE@C?3?2dev?2PhysX?94?41?2physx?2source?2f@ 0000000180049000     RTreeCooking.obj
 0002:00001044       __real@37800080            0000000180049044     RTreeCooking.obj
 0002:00001048       __real@41100000            0000000180049048     RTreeCooking.obj
 0002:0000104c       __real@41700000            000000018004904c     RTreeCooking.obj
 0002:00001050       __real@42200000            0000000180049050     RTreeCooking.obj
 0002:00001054       __real@ff7fffff            0000000180049054     RTreeCooking.obj
 0002:00001060       __xmm@00000004000000030000000200000001 0000000180049060     RTreeCooking.obj
 0002:00001070       __xmm@3a03126f3a03126f3a03126f3a03126f 0000000180049070     RTreeCooking.obj
 0002:00001080       __xmm@7f7fffff7f7fffff7f7fffff7f7fffff 0000000180049080     RTreeCooking.obj
 0002:00001090       __xmm@ff7fffffff7fffffff7fffffff7fffff 0000000180049090     RTreeCooking.obj
 0002:000010c0       __real@34800000            00000001800490c0     MeshBuilder.obj
 0002:000010f0       ??_7MeshDataBase@Gu@physx@@6B@ 00000001800490f0     TriangleMeshBuilder.obj
 0002:000010f8       ??_C@_0DO@ILKAJNFJ@C?3?2dev?2PhysX?94?41?2physx?2source?2g@ 00000001800490f8     TriangleMeshBuilder.obj
 0002:00001138       ??_7TriangleMeshData@Gu@physx@@6B@ 0000000180049138     TriangleMeshBuilder.obj
 0002:00001140       ??_C@_0L@KBOFAKLO@mTriangles@ 0000000180049140     TriangleMeshBuilder.obj
 0002:00001150       ??_C@_0BA@OCOIGPII@mGRB_triIndices@ 0000000180049150     TriangleMeshBuilder.obj
 0002:00001160       ??_7RTreeTriangleData@Gu@physx@@6B@ 0000000180049160     TriangleMeshBuilder.obj
 0002:00001168       ??_7BV4TriangleData@Gu@physx@@6B@ 0000000180049168     TriangleMeshBuilder.obj
 0002:00001170       ??_7RemapCallback@RTreeCooker@physx@@6B@ 0000000180049170     TriangleMeshBuilder.obj
 0002:00001180       ??_7TriangleMeshBuilder@physx@@6B@ 0000000180049180     TriangleMeshBuilder.obj
 0002:000011a8       ??_7RTreeTriangleMeshBuilder@physx@@6B@ 00000001800491a8     TriangleMeshBuilder.obj
 0002:000011d0       ??_7BV4TriangleMeshBuilder@physx@@6B@ 00000001800491d0     TriangleMeshBuilder.obj
 0002:000011f8       ??_C@_0M@OJJHBOGG@edgeLookups@ 00000001800491f8     TriangleMeshBuilder.obj
 0002:00001210       ??_C@_0EN@LMFGLKEF@C?3?2dev?2PhysX?94?41?2physx?2source?2p@ 0000000180049210     TriangleMeshBuilder.obj
 0002:00001260       ??_C@_0BF@CCKBOJFO@Gu?3?3TriangleT?$DMPxU32?$DO@ 0000000180049260     TriangleMeshBuilder.obj
 0002:00001280       ??_C@_0EM@PNPAOKM@C?3?2dev?2PhysX?94?41?2physx?2source?2p@ 0000000180049280     TriangleMeshBuilder.obj
 0002:000012d0       ??_C@_0DJ@IGODLHLP@TriangleMesh?3?5Enable?5mesh?5weldi@ 00000001800492d0     TriangleMeshBuilder.obj
 0002:00001310       ??_C@_0FJ@HHJLKGDF@TriangleMesh?3?5triangles?5are?5too@ 0000000180049310     TriangleMeshBuilder.obj
 0002:00001370       ??_C@_0CN@KGPHHHLK@TriangleMesh?3?5mesh?5is?5too?5big?5f@ 0000000180049370     TriangleMeshBuilder.obj
 0002:000013a0       ??_C@_0BL@DLEDFNFP@tempNormalsPerTri_prealloc@ 00000001800493a0     TriangleMeshBuilder.obj
 0002:000013c0       ??_C@_0BD@NDAFHHFF@GRB_triAdjacencies@ 00000001800493c0     TriangleMeshBuilder.obj
 0002:000013d8       ??_C@_0DD@CMJGDCNN@TriangleMesh?3?3loadFromDesc?3?5des@ 00000001800493d8     TriangleMeshBuilder.obj
 0002:00001410       ??_C@_0ED@ILJJNHIP@TriangleMesh?3?3loadFromDesc?3?5mPa@ 0000000180049410     TriangleMeshBuilder.obj
 0002:00001458       ??_C@_0CK@BJFFGDPK@input?5mesh?5contains?5corrupted?5v@ 0000000180049458     TriangleMeshBuilder.obj
 0002:00001488       ??_C@_0BJ@BKHDBBHO@cleaning?5the?5mesh?5failed@ 0000000180049488     TriangleMeshBuilder.obj
 0002:000014a8       ??_C@_0BK@JIDHMMCE@BV4?5tree?5failed?5to?5build?4@ 00000001800494a8     TriangleMeshBuilder.obj
 0002:000014c8       ??_C@_0BL@DHNECNBE@BV32?5tree?5failed?5to?5build?4@ 00000001800494c8     TriangleMeshBuilder.obj
 0002:000014e8       ??_7RTreeCookerRemap@physx@@6B@ 00000001800494e8     TriangleMeshBuilder.obj
 0002:000014f8       __real@3951b717            00000001800494f8     TriangleMeshBuilder.obj
 0002:000014fc       __real@3dcccccd            00000001800494fc     TriangleMeshBuilder.obj
 0002:00001500       __real@48742400            0000000180049500     TriangleMeshBuilder.obj
 0002:00001510       __xmm@00000003000000020000000100000000 0000000180049510     TriangleMeshBuilder.obj
 0002:00001540       ??_C@_0EP@GFOKBJPA@C?3?2dev?2PhysX?94?41?2physx?2source?2p@ 0000000180049540     BigConvexDataBuilder.obj
 0002:00001590       ??_C@_0BD@PGLLAGCI@BigConvexData?5data@ 0000000180049590     BigConvexDataBuilder.obj
 0002:000015a4       __real@40000000            00000001800495a4     BigConvexDataBuilder.obj
 0002:000015d0       ??_C@_0EM@JNGBOMMJ@C?3?2dev?2PhysX?94?41?2physx?2source?2p@ 00000001800495d0     ConvexHullBuilder.obj
 0002:00001620       ??_C@_0EB@DCEIFDGC@ConvexHullBuilder?3?3init?3?5convex@ 0000000180049620     ConvexHullBuilder.obj
 0002:00001668       ??_C@_0BE@KOOOMNLC@Gu?3?3HullPolygonData@ 0000000180049668     ConvexHullBuilder.obj
 0002:00001680       ??_C@_0FM@KICBLCBH@Gu?3?3ConvexMesh?3?3checkHullPolygo@ 0000000180049680     ConvexHullBuilder.obj
 0002:000016e0       ??_C@_0GO@HBFIOGLL@Gu?3?3ConvexMesh?3?3checkHullPolygo@ 00000001800496e0     ConvexHullBuilder.obj
 0002:00001750       ??_C@_0BE@EJGGFHND@ConvexHullData?5data@ 0000000180049750     ConvexHullBuilder.obj
 0002:00001770       ??_C@_0HF@OLJFBIEL@ConvexHullBuilder?3?5convex?5hull?5@ 0000000180049770     ConvexHullBuilder.obj
 0002:000017f0       ??_C@_0OG@JNHFOIL@ConvexHullBuilder?3?5convex?5hull?5@ 00000001800497f0     ConvexHullBuilder.obj
 0002:000018e0       ??_C@_0EJ@NIOIBAKH@Cooking?3?3cookConvexMesh?3?5non?9ma@ 00000001800498e0     ConvexHullBuilder.obj
 0002:0000192c       __real@3ca3d70a            000000018004992c     ConvexHullBuilder.obj
 0002:00001930       __real@3eaaaaab            0000000180049930     ConvexHullBuilder.obj
 0002:00001938       ??_7ConvexHullLib@physx@@6B@ 0000000180049938     ConvexHullLib.obj
 0002:00001960       ??_C@_0EI@HHFEPOGD@C?3?2dev?2PhysX?94?41?2physx?2source?2p@ 0000000180049960     ConvexHullLib.obj
 0002:000019b0       ??_C@_0JE@PABBNGEL@ConvexHullLib?3?3cleanupVertices?3@ 00000001800499b0     ConvexHullLib.obj
 0002:00001a44       __real@358637bd            0000000180049a44     ConvexHullLib.obj
 0002:00001a48       __real@3d4ccccd            0000000180049a48     ConvexHullLib.obj
 0002:00001a70       ??_C@_0EK@KBIIHNMP@C?3?2dev?2PhysX?94?41?2physx?2source?2p@ 0000000180049a70     ConvexHullUtils.obj
 0002:00001abc       ??_C@_04NCKNBPPK@PxU8@     0000000180049abc     ConvexHullUtils.obj
 0002:00001ac4       ??_C@_05CDCIKCPI@Vec4V@    0000000180049ac4     ConvexHullUtils.obj
 0002:00001acc       __real@3e20d97c            0000000180049acc     ConvexHullUtils.obj
 0002:00001ad0       __xmm@00800000008000000080000000800000 0000000180049ad0     ConvexHullUtils.obj
 0002:00001ae0       __xmm@3f0000003f0000003f0000003f000000 0000000180049ae0     ConvexHullUtils.obj
 0002:00001af0       __xmm@bf000000bf000000bf000000bf000000 0000000180049af0     ConvexHullUtils.obj
 0002:00001b20       ??_C@_0DF@LLFJIJGM@Gu?3?3ConvexMesh?3?3loadFromDesc?3?5d@ 0000000180049b20     ConvexMeshBuilder.obj
 0002:00001b60       ??_C@_0EM@FDMFEMJM@C?3?2dev?2PhysX?94?41?2physx?2source?2p@ 0000000180049b60     ConvexMeshBuilder.obj
 0002:00001bb0       ??_C@_0HK@JOGKIEAA@Gu?3?3ConvexMesh?3?5Mesh?5has?5a?5nega@ 0000000180049bb0     ConvexMeshBuilder.obj
 0002:00001c30       ??_C@_0DH@NJPPHFFD@Gu?3?3ConvexMesh?3?5Error?5computing@ 0000000180049c30     ConvexMeshBuilder.obj
 0002:00001c68       ??_C@_0DJ@LJDLGLDJ@Gu?3?3ConvexMesh?3?3loadConvexHull?3@ 0000000180049c68     ConvexMeshBuilder.obj
 0002:00001cb0       ??_C@_0HJ@KJANPPOE@ConvexMeshBuilder?3?3computeHullP@ 0000000180049cb0     ConvexMeshBuilder.obj
 0002:00001d30       ??_C@_0O@JMAGMMGG@PxHullPolygon@ 0000000180049d30     ConvexMeshBuilder.obj
 0002:00001d40       __real@33d6bf95            0000000180049d40     ConvexMeshBuilder.obj
 0002:00001d44       __real@3f13cd3a            0000000180049d44     ConvexMeshBuilder.obj
 0002:00001d48       __real@b3d6bf95            0000000180049d48     ConvexMeshBuilder.obj
 0002:00001d4c       __real@bf800000            0000000180049d4c     ConvexMeshBuilder.obj
 0002:00001d50       __xmm@80000000000000008000000000000000 0000000180049d50     ConvexMeshBuilder.obj
 0002:00001d60       ??_C@_0DP@PJBJBEGF@Meshmerizer?3?3extractHullPolygon@ 0000000180049d60     ConvexPolygonsBuilder.obj
 0002:00001da0       ??_C@_0FA@DJHGKAEK@C?3?2dev?2PhysX?94?41?2physx?2source?2p@ 0000000180049da0     ConvexPolygonsBuilder.obj
 0002:00001df0       ??_C@_0BL@MFNKFFFN@Reduced?5vertices?5hull?5data@ 0000000180049df0     ConvexPolygonsBuilder.obj
 0002:00001e10       ??_C@_0DL@IAFKOCCK@ConvexHullBuilder?3?5convex?5hull?5@ 0000000180049e10     ConvexPolygonsBuilder.obj
 0002:00001e50       ??_C@_0GF@OJLJHAMH@ConvexHullBuilder?3?3CreateTriang@ 0000000180049e50     ConvexPolygonsBuilder.obj
 0002:00001eb8       __real@3ba3d70a            0000000180049eb8     ConvexPolygonsBuilder.obj
 0002:00001ec0       ??_7QuickHullConvexHullLib@physx@@6B@ 0000000180049ec0     QuickHullConvexHullLib.obj
 0002:00001ee0       ??_C@_0BA@BPKNMKIA@QuickHullVertex@ 0000000180049ee0     QuickHullConvexHullLib.obj
 0002:00001ef0       ??_C@_0FB@HNLBPFDK@C?3?2dev?2PhysX?94?41?2physx?2source?2p@ 0000000180049ef0     QuickHullConvexHullLib.obj
 0002:00001f50       ??_C@_0GA@EPPAEJPM@QuickHullConvexHullLib?3?3findSim@ 0000000180049f50     QuickHullConvexHullLib.obj
 0002:00001fb0       ??_C@_0FB@NEBIJMML@QuickHullConvexHullLib?3?3findSim@ 0000000180049fb0     QuickHullConvexHullLib.obj
 0002:00002010       ??_C@_0FB@CLLCBEMM@QuickHullConvexHullLib?3?3findSim@ 000000018004a010     QuickHullConvexHullLib.obj
 0002:00002068       ??_C@_0P@OFIBMBPE@ConvexMeshDesc@ 000000018004a068     QuickHullConvexHullLib.obj
 0002:00002078       ??_C@_0BD@NDHBJDBB@Quickhull?5MemBlock@ 000000018004a078     QuickHullConvexHullLib.obj
 0002:0000208c       __real@34c00000            000000018004a08c     QuickHullConvexHullLib.obj
 0002:00002090       __real@3e800000            000000018004a090     QuickHullConvexHullLib.obj
 0002:000020c0       __real@00000000            000000018004a0c0     VolumeIntegration.obj
 0002:000020c8       __real@3fe0000000000000    000000018004a0c8     VolumeIntegration.obj
 0002:000020d0       __real@3ff0000000000000    000000018004a0d0     VolumeIntegration.obj
 0002:000020e0       __xmm@3c0888893c0888893c0888893c088889 000000018004a0e0     VolumeIntegration.obj
 0002:000020f0       __xmm@3c8888893c8888893c8888893c888889 000000018004a0f0     VolumeIntegration.obj
 0002:00002100       __xmm@3d2aaaab3d2aaaab3d2aaaab3d2aaaab 000000018004a100     VolumeIntegration.obj
 0002:00002110       __xmm@3e2aaaab3e2aaaab3e2aaaab3e2aaaab 000000018004a110     VolumeIntegration.obj
 0002:00002120       __xmm@3f811111111111113f81111111111111 000000018004a120     VolumeIntegration.obj
 0002:00002130       __xmm@3f811111111111113f91111111111111 000000018004a130     VolumeIntegration.obj
 0002:00002140       __xmm@3f911111111111113f91111111111111 000000018004a140     VolumeIntegration.obj
 0002:00002150       __xmm@3fa55555555555553fa5555555555555 000000018004a150     VolumeIntegration.obj
 0002:00002160       __xmm@3fa55555555555553fc5555555555555 000000018004a160     VolumeIntegration.obj
 0002:00002170       ??_C@_0BA@EGLNOO@PhysXFoundation@ 000000018004a170     WindowsCookingDelayLoadHook.obj
 0002:00002180       ??_C@_0M@ILKNCJKN@PhysXCommon@ 000000018004a180     WindowsCookingDelayLoadHook.obj
 0002:00002190       __sz_PhysXCommon_64_dll    000000018004a190     PhysXCommon_64:PhysXCommon_64.dll
 0002:000021b0       __sz_PhysXFoundation_64_dll 000000018004a1b0     PhysXFoundation_64:PhysXFoundation_64.dll
 0002:000021c8       ??_C@_1BK@DBDEIDLH@?$AAK?$AAE?$AAR?$AAN?$AAE?$AAL?$AA3?$AA2?$AA?4?$AAD?$AAL?$AAL@ 000000018004a1c8     Delayimp:delayhlp.obj
 0002:000021e8       ??_C@_0BI@OMNLIJDB@AcquireSRWLockExclusive@ 000000018004a1e8     Delayimp:delayhlp.obj
 0002:00002200       ??_C@_0BI@HMIEPCNJ@ReleaseSRWLockExclusive@ 000000018004a200     Delayimp:delayhlp.obj
 0002:00002218       __pfnDliFailureHook2       000000018004a218     Delayimp:delayhk1.obj
 0002:00002228       ??_7type_info@@6B@         000000018004a228     LIBCMT:std_type_info_static.obj
 0002:00002290       _pRawDllMain               000000018004a290     LIBCMT:dll_dllmain.obj
 0002:00002290       _pDefaultRawDllMain        000000018004a290     LIBCMT:dll_dllmain.obj
 0002:000022a0       _load_config_used          000000018004a2a0     LIBCMT:loadcfg.obj
 0002:000023e0       __xmm@ffffffffffffffffffffffffffffffff 000000018004a3e0     LIBCMT:utility.obj
 0002:000023f0       _pDestructExceptionObject  000000018004a3f0     libvcruntime:ehhelpers.obj
 0002:00002b00       ??_C@_08EHJDFFNH@__based?$CI@ 000000018004ab00     libvcruntime:undname.obj
 0002:00002b10       ??_C@_07KOLFKCDI@__cdecl@  000000018004ab10     libvcruntime:undname.obj
 0002:00002b18       ??_C@_08GHMPAG@__pascal@   000000018004ab18     libvcruntime:undname.obj
 0002:00002b28       ??_C@_09IFJBGAPI@__stdcall@ 000000018004ab28     libvcruntime:undname.obj
 0002:00002b38       ??_C@_0L@NPHFGOKO@__thiscall@ 000000018004ab38     libvcruntime:undname.obj
 0002:00002b48       ??_C@_0L@JMKHOMEK@__fastcall@ 000000018004ab48     libvcruntime:undname.obj
 0002:00002b58       ??_C@_0N@BCKKPABJ@__vectorcall@ 000000018004ab58     libvcruntime:undname.obj
 0002:00002b68       ??_C@_09HIJEGCPM@__clrcall@ 000000018004ab68     libvcruntime:undname.obj
 0002:00002b74       ??_C@_06GHPCKEAG@__eabi@   000000018004ab74     libvcruntime:undname.obj
 0002:00002b80       ??_C@_09IOPIDJLG@__swift_1@ 000000018004ab80     libvcruntime:undname.obj
 0002:00002b90       ??_C@_09KFNFGKHF@__swift_2@ 000000018004ab90     libvcruntime:undname.obj
 0002:00002ba0       ??_C@_07JOMMBBKO@__ptr64@  000000018004aba0     libvcruntime:undname.obj
 0002:00002ba8       ??_C@_0L@PILCLIHE@__restrict@ 000000018004aba8     libvcruntime:undname.obj
 0002:00002bb8       ??_C@_0M@GFIIJFMG@__unaligned@ 000000018004abb8     libvcruntime:undname.obj
 0002:00002bc8       ??_C@_09DHDLOLLB@restrict?$CI@ 000000018004abc8     libvcruntime:undname.obj
 0002:00002bd2       ??_C@_00CNPNBAHC@@         000000018004abd2     libvcruntime:undname.obj
 0002:00002bd4       ??_C@_04NIHEBCM@?5new@     000000018004abd4     libvcruntime:undname.obj
 0002:00002be0       ??_C@_07FPCDHGMM@?5delete@ 000000018004abe0     libvcruntime:undname.obj
 0002:00002be8       ??_C@_01NEMOKFLO@?$DN@     000000018004abe8     libvcruntime:undname.obj
 0002:00002bec       ??_C@_02GPIOPFAK@?$DO?$DO@ 000000018004abec     libvcruntime:undname.obj
 0002:00002bf0       ??_C@_02FODMEDOG@?$DM?$DM@ 000000018004abf0     libvcruntime:undname.obj
 0002:00002bf4       ??_C@_01DCLJPIOD@?$CB@     000000018004abf4     libvcruntime:undname.obj
 0002:00002bf8       ??_C@_02EGOFBIJA@?$DN?$DN@ 000000018004abf8     libvcruntime:undname.obj
 0002:00002bfc       ??_C@_02FDNJECIE@?$CB?$DN@ 000000018004abfc     libvcruntime:undname.obj
 0002:00002c00       ??_C@_02GPECMEKF@?$FL?$FN@ 000000018004ac00     libvcruntime:undname.obj
 0002:00002c08       ??_C@_08LHJFAFGD@operator@ 000000018004ac08     libvcruntime:undname.obj
 0002:00002c14       ??_C@_02HBOOOICD@?9?$DO@   000000018004ac14     libvcruntime:undname.obj
 0002:00002c18       ??_C@_01NBENCBCI@?$CK@     000000018004ac18     libvcruntime:undname.obj
 0002:00002c1c       ??_C@_02ECNGHCIF@?$CL?$CL@ 000000018004ac1c     libvcruntime:undname.obj
 0002:00002c20       ??_C@_02BAABKJLB@?9?9@     000000018004ac20     libvcruntime:undname.obj
 0002:00002c24       ??_C@_01JOAMLHOP@?9@       000000018004ac24     libvcruntime:undname.obj
 0002:00002c28       ??_C@_01MIFGBAGJ@?$CL@     000000018004ac28     libvcruntime:undname.obj
 0002:00002c2c       ??_C@_01HNPIGOCE@?$CG@     000000018004ac2c     libvcruntime:undname.obj
 0002:00002c30       ??_C@_03MNHNFDLC@?9?$DO?$CK@ 000000018004ac30     libvcruntime:undname.obj
 0002:00002c34       ??_C@_01KMDKNFGN@?1@       000000018004ac34     libvcruntime:undname.obj
 0002:00002c38       ??_C@_01FGNFDNOH@?$CF@     000000018004ac38     libvcruntime:undname.obj
 0002:00002c3c       ??_C@_01MNNFJEPP@?$DM@     000000018004ac3c     libvcruntime:undname.obj
 0002:00002c40       ??_C@_02EHCHHCKH@?$DM?$DN@ 000000018004ac40     libvcruntime:undname.obj
 0002:00002c44       ??_C@_01PPODPGHN@?$DO@     000000018004ac44     libvcruntime:undname.obj
 0002:00002c48       ??_C@_02EEKDKGMJ@?$DO?$DN@ 000000018004ac48     libvcruntime:undname.obj
 0002:00002c4c       ??_C@_01IHBHIGKO@?0@       000000018004ac4c     libvcruntime:undname.obj
 0002:00002c50       ??_C@_02HCKGKOFO@?$CI?$CJ@ 000000018004ac50     libvcruntime:undname.obj
 0002:00002c54       ??_C@_01PJKLJHI@?$HO@      000000018004ac54     libvcruntime:undname.obj
 0002:00002c58       ??_C@_01JKBOJNNK@?$FO@     000000018004ac58     libvcruntime:undname.obj
 0002:00002c5c       ??_C@_01DNKMNLPK@?$HM@     000000018004ac5c     libvcruntime:undname.obj
 0002:00002c60       ??_C@_02PPKAJPJL@?$CG?$CG@ 000000018004ac60     libvcruntime:undname.obj
 0002:00002c64       ??_C@_02NONPIBCD@?$HM?$HM@ 000000018004ac64     libvcruntime:undname.obj
 0002:00002c68       ??_C@_02FPIMKNGF@?$CK?$DN@ 000000018004ac68     libvcruntime:undname.obj
 0002:00002c6c       ??_C@_02FOEOMHFC@?$CL?$DN@ 000000018004ac6c     libvcruntime:undname.obj
 0002:00002c70       ??_C@_02FKMDLLOA@?9?$DN@   000000018004ac70     libvcruntime:undname.obj
 0002:00002c74       ??_C@_02FJEHGPIO@?1?$DN@   000000018004ac74     libvcruntime:undname.obj
 0002:00002c78       ??_C@_02FENAOKFI@?$CF?$DN@ 000000018004ac78     libvcruntime:undname.obj
 0002:00002c7c       ??_C@_03IKFCCPFF@?$DO?$DO?$DN@ 000000018004ac7c     libvcruntime:undname.obj
 0002:00002c80       ??_C@_03CDNPDDLA@?$DM?$DM?$DN@ 000000018004ac80     libvcruntime:undname.obj
 0002:00002c84       ??_C@_02FGJGFEAB@?$CG?$DN@ 000000018004ac84     libvcruntime:undname.obj
 0002:00002c88       ??_C@_02DHLNPPGH@?$HM?$DN@ 000000018004ac88     libvcruntime:undname.obj
 0002:00002c8c       ??_C@_02MHEGNOJ@?$FO?$DN@  000000018004ac8c     libvcruntime:undname.obj
 0002:00002c90       ??_C@_09IFPLHPGF@?$GAvftable?8@ 000000018004ac90     libvcruntime:undname.obj
 0002:00002ca0       ??_C@_09BLBHBJP@?$GAvbtable?8@ 000000018004aca0     libvcruntime:undname.obj
 0002:00002cb0       ??_C@_07FEEIOKP@?$GAvcall?8@ 000000018004acb0     libvcruntime:undname.obj
 0002:00002cb8       ??_C@_08LLFFHHDJ@?$GAtypeof?8@ 000000018004acb8     libvcruntime:undname.obj
 0002:00002cc8       ??_C@_0BF@KDPPACIK@?$GAlocal?5static?5guard?8@ 000000018004acc8     libvcruntime:undname.obj
 0002:00002ce0       ??_C@_08OBABFOLI@?$GAstring?8@ 000000018004ace0     libvcruntime:undname.obj
 0002:00002cf0       ??_C@_0BD@JDLKDPAB@?$GAvbase?5destructor?8@ 000000018004acf0     libvcruntime:undname.obj
 0002:00002d08       ??_C@_0BN@DEGPLNFK@?$GAvector?5deleting?5destructor?8@ 000000018004ad08     libvcruntime:undname.obj
 0002:00002d28       ??_C@_0BO@OBMKPJIG@?$GAdefault?5constructor?5closure?8@ 000000018004ad28     libvcruntime:undname.obj
 0002:00002d48       ??_C@_0BN@IMDCHIKM@?$GAscalar?5deleting?5destructor?8@ 000000018004ad48     libvcruntime:undname.obj
 0002:00002d68       ??_C@_0BO@PFGOCPJJ@?$GAvector?5constructor?5iterator?8@ 000000018004ad68     libvcruntime:undname.obj
 0002:00002d88       ??_C@_0BN@LFPFMEDL@?$GAvector?5destructor?5iterator?8@ 000000018004ad88     libvcruntime:undname.obj
 0002:00002da8       ??_C@_0CE@IKBNEHA@?$GAvector?5vbase?5constructor?5itera@ 000000018004ada8     libvcruntime:undname.obj
 0002:00002dd0       ??_C@_0BL@NILFHHPC@?$GAvirtual?5displacement?5map?8@ 000000018004add0     libvcruntime:undname.obj
 0002:00002df0       ??_C@_0CB@JONCMFFK@?$GAeh?5vector?5constructor?5iterator@ 000000018004adf0     libvcruntime:undname.obj
 0002:00002e18       ??_C@_0CA@GCEOPDGL@?$GAeh?5vector?5destructor?5iterator?8@ 000000018004ae18     libvcruntime:undname.obj
 0002:00002e38       ??_C@_0CH@OOJPLCPH@?$GAeh?5vector?5vbase?5constructor?5it@ 000000018004ae38     libvcruntime:undname.obj
 0002:00002e60       ??_C@_0BL@LLKPOHJI@?$GAcopy?5constructor?5closure?8@ 000000018004ae60     libvcruntime:undname.obj
 0002:00002e80       ??_C@_0BA@KBCDOMBN@?$GAudt?5returning?8@ 000000018004ae80     libvcruntime:undname.obj
 0002:00002e90       ??_C@_03KLGMFNMG@?$GAEH@   000000018004ae90     libvcruntime:undname.obj
 0002:00002e94       ??_C@_05KHLCHHI@?$GARTTI@  000000018004ae94     libvcruntime:undname.obj
 0002:00002ea0       ??_C@_0BA@KKLDJDLB@?$GAlocal?5vftable?8@ 000000018004aea0     libvcruntime:undname.obj
 0002:00002eb0       ??_C@_0CE@IIHCMGGL@?$GAlocal?5vftable?5constructor?5clos@ 000000018004aeb0     libvcruntime:undname.obj
 0002:00002ed4       ??_C@_06FHBGPFGH@?5new?$FL?$FN@ 000000018004aed4     libvcruntime:undname.obj
 0002:00002ee0       ??_C@_09LBNFPBCA@?5delete?$FL?$FN@ 000000018004aee0     libvcruntime:undname.obj
 0002:00002ef0       ??_C@_0P@HJKNJFNN@?$GAomni?5callsig?8@ 000000018004aef0     libvcruntime:undname.obj
 0002:00002f00       ??_C@_0BL@CNOONJFP@?$GAplacement?5delete?5closure?8@ 000000018004af00     libvcruntime:undname.obj
 0002:00002f20       ??_C@_0BN@CKNJLHMB@?$GAplacement?5delete?$FL?$FN?5closure?8@ 000000018004af20     libvcruntime:undname.obj
 0002:00002f40       ??_C@_0CG@CFDHKGGD@?$GAmanaged?5vector?5constructor?5ite@ 000000018004af40     libvcruntime:undname.obj
 0002:00002f68       ??_C@_0CF@IMGKMJNO@?$GAmanaged?5vector?5destructor?5iter@ 000000018004af68     libvcruntime:undname.obj
 0002:00002f90       ??_C@_0CG@HLDDJMAG@?$GAeh?5vector?5copy?5constructor?5ite@ 000000018004af90     libvcruntime:undname.obj
 0002:00002fb8       ??_C@_0CM@FCBBDIGB@?$GAeh?5vector?5vbase?5copy?5construct@ 000000018004afb8     libvcruntime:undname.obj
 0002:00002fe8       ??_C@_0BL@CLIPGLGB@?$GAdynamic?5initializer?5for?5?8@ 000000018004afe8     libvcruntime:undname.obj
 0002:00003008       ??_C@_0CB@PDBIFEP@?$GAdynamic?5atexit?5destructor?5for?5@ 000000018004b008     libvcruntime:undname.obj
 0002:00003030       ??_C@_0CD@CGAJBKEJ@?$GAvector?5copy?5constructor?5iterat@ 000000018004b030     libvcruntime:undname.obj
 0002:00003058       ??_C@_0CJ@GJELGAMM@?$GAvector?5vbase?5copy?5constructor?5@ 000000018004b058     libvcruntime:undname.obj
 0002:00003088       ??_C@_0CL@FGIJHLCE@?$GAmanaged?5vector?5copy?5constructo@ 000000018004b088     libvcruntime:undname.obj
 0002:000030b8       ??_C@_0BM@PMGGMLDN@?$GAlocal?5static?5thread?5guard?8@ 000000018004b0b8     libvcruntime:undname.obj
 0002:000030d8       ??_C@_0N@BDNMDMOL@operator?5?$CC?$CC?5@ 000000018004b0d8     libvcruntime:undname.obj
 0002:000030e8       ??_C@_0BC@GGEBGALA@operator?5co_await@ 000000018004b0e8     libvcruntime:undname.obj
 0002:00003100       ??_C@_0M@GAAIMMOH@operator?$DM?$DN?$DO@ 000000018004b100     libvcruntime:undname.obj
 0002:00003110       ??_C@_0BC@DAFEJGAK@?5Type?5Descriptor?8@ 000000018004b110     libvcruntime:undname.obj
 0002:00003128       ??_C@_0BM@LDKODKLH@?5Base?5Class?5Descriptor?5at?5?$CI@ 000000018004b128     libvcruntime:undname.obj
 0002:00003148       ??_C@_0BD@LGICGFMM@?5Base?5Class?5Array?8@ 000000018004b148     libvcruntime:undname.obj
 0002:00003160       ??_C@_0BN@MECKDCOJ@?5Class?5Hierarchy?5Descriptor?8@ 000000018004b160     libvcruntime:undname.obj
 0002:00003180       ??_C@_0BK@CFCOFLF@?5Complete?5Object?5Locator?8@ 000000018004b180     libvcruntime:undname.obj
 0002:000031a0       ??_C@_0BG@JNJLAMPM@?$GAanonymous?5namespace?8@ 000000018004b1a0     libvcruntime:undname.obj
 0002:000031b8       ??_C@_04HEJADOOB@CV?3?5@   000000018004b1b8     libvcruntime:undname.obj
 0002:000031c0       ??_C@_02MOLJINC@?3?3@      000000018004b1c0     libvcruntime:undname.obj
 0002:000031c8       ??_C@_0BE@JAEOCHPE@template?9parameter?9@ 000000018004b1c8     libvcruntime:undname.obj
 0002:000031e0       ??_C@_0BF@LNLGBBNL@?$GAtemplate?9parameter?9@ 000000018004b1e0     libvcruntime:undname.obj
 0002:000031f8       ??_C@_0O@KHGCOMHP@generic?9type?9@ 000000018004b1f8     libvcruntime:undname.obj
 0002:00003208       ??_C@_0P@ODDENDLM@?$GAgeneric?9type?9@ 000000018004b208     libvcruntime:undname.obj
 0002:00003218       ??_C@_02OHHJMEON@?8?8@     000000018004b218     libvcruntime:undname.obj
 0002:00003220       ??_C@_0BN@IBLMMFAP@?$GAnon?9type?9template?9parameter@ 000000018004b220     libvcruntime:undname.obj
 0002:00003240       ??_C@_03DLDNIBIK@?$CFlf@   000000018004b240     libvcruntime:undname.obj
 0002:00003244       ??_C@_04OFALKAJ@?$DP?$DP_C@ 000000018004b244     libvcruntime:undname.obj
 0002:0000324c       ??_C@_03KHICJKCI@?4?4?4@   000000018004b24c     libvcruntime:undname.obj
 0002:00003250       ??_C@_04HIBGFPH@NULL@      000000018004b250     libvcruntime:undname.obj
 0002:00003258       ??_C@_02DPKJAMEF@?$CFd@    000000018004b258     libvcruntime:undname.obj
 0002:00003260       ??_C@_0BK@IHCCFNEL@?$GAtemplate?9type?9parameter?9@ 000000018004b260     libvcruntime:undname.obj
 0002:00003280       ??_C@_0BK@OFCNNNKO@?$GAgeneric?9class?9parameter?9@ 000000018004b280     libvcruntime:undname.obj
 0002:000032a0       ??_C@_0BL@NGJBLFIL@?$GAgeneric?9method?9parameter?9@ 000000018004b2a0     libvcruntime:undname.obj
 0002:000032c0       ??_C@_07OHNGEDJK@nullptr@  000000018004b2c0     libvcruntime:undname.obj
 0002:000032c8       ??_C@_04GKJNKENE@void@     000000018004b2c8     libvcruntime:undname.obj
 0002:000032d0       ??_C@_0BE@EODMJLIF@?$GAtemplate?9parameter@ 000000018004b2d0     libvcruntime:undname.obj
 0002:000032e4       ??_C@_03OPGICMGF@?$HN?8?5@ 000000018004b2e4     libvcruntime:undname.obj
 0002:000032e8       ??_C@_02IGFCGPIL@?$HN?8@   000000018004b2e8     libvcruntime:undname.obj
 0002:000032f0       ??_C@_0N@CBHHHENL@?$GAvtordispex?$HL@ 000000018004b2f0     libvcruntime:undname.obj
 0002:00003300       ??_C@_0L@GHPFDFH@?$GAvtordisp?$HL@ 000000018004b300     libvcruntime:undname.obj
 0002:00003310       ??_C@_0L@HNGCOGAE@?$GAadjustor?$HL@ 000000018004b310     libvcruntime:undname.obj
 0002:00003320       ??_C@_0CB@KJDOOODE@?$GAlocal?5static?5destructor?5helper@ 000000018004b320     libvcruntime:undname.obj
 0002:00003348       ??_C@_0DB@ILEFOCIJ@?$GAtemplate?5static?5data?5member?5co@ 000000018004b348     libvcruntime:undname.obj
 0002:00003380       ??_C@_0DA@HGFJFBBE@?$GAtemplate?5static?5data?5member?5de@ 000000018004b380     libvcruntime:undname.obj
 0002:000033b0       ??_C@_07PGOEDBHP@static?5@ 000000018004b3b0     libvcruntime:undname.obj
 0002:000033b8       ??_C@_08NIEOINHE@virtual?5@ 000000018004b3b8     libvcruntime:undname.obj
 0002:000033c8       ??_C@_09LAPHOOG@private?3?5@ 000000018004b3c8     libvcruntime:undname.obj
 0002:000033d8       ??_C@_0M@GAIFPFIP@protected?3?5@ 000000018004b3d8     libvcruntime:undname.obj
 0002:000033e8       ??_C@_08GPDDCMKI@public?3?5@ 000000018004b3e8     libvcruntime:undname.obj
 0002:000033f8       ??_C@_08KJLFOPNE@?$FLthunk?$FN?3@ 000000018004b3f8     libvcruntime:undname.obj
 0002:00003408       ??_C@_0M@DHNBOJMP@extern?5?$CCC?$CC?5@ 000000018004b408     libvcruntime:undname.obj
 0002:00003414       ??_C@_02KCKGHPCA@?$CJ?5@   000000018004b414     libvcruntime:undname.obj
 0002:00003418       ??_C@_05CIHEBHNO@char?5@   000000018004b418     libvcruntime:undname.obj
 0002:00003420       ??_C@_06EHJMALKF@short?5@  000000018004b420     libvcruntime:undname.obj
 0002:00003428       ??_C@_04LAHKHJMA@int?5@    000000018004b428     libvcruntime:undname.obj
 0002:00003430       ??_C@_05CJIMAING@long?5@   000000018004b430     libvcruntime:undname.obj
 0002:00003438       ??_C@_09EBBEKKIH@unsigned?5@ 000000018004b438     libvcruntime:undname.obj
 0002:00003444       ??_C@_05BEFAKPML@void?5@   000000018004b444     libvcruntime:undname.obj
 0002:00003450       ??_C@_09GAIEOBLP@volatile?5@ 000000018004b450     libvcruntime:undname.obj
 0002:00003460       ??_C@_08PABEKFH@volatile@  000000018004b460     libvcruntime:undname.obj
 0002:00003470       ??_C@_0BA@LKIJLKPP@std?3?3nullptr_t?5@ 000000018004b470     libvcruntime:undname.obj
 0002:00003480       ??_C@_0P@GCOCNKDM@std?3?3nullptr_t@ 000000018004b480     libvcruntime:undname.obj
 0002:00003490       ??_C@_0L@EGPHHEKN@?$DMellipsis?$DO@ 000000018004b490     libvcruntime:undname.obj
 0002:0000349c       ??_C@_04EENFHACM@?0?4?4?4@ 000000018004b49c     libvcruntime:undname.obj
 0002:000034a8       ??_C@_0M@ELJOJFFH@?0?$DMellipsis?$DO@ 000000018004b4a8     libvcruntime:undname.obj
 0002:000034b8       ??_C@_09DNHFEOJI@?5noexcept@ 000000018004b4b8     libvcruntime:undname.obj
 0002:000034c4       ??_C@_03PBJBJNON@cpu@      000000018004b4c4     libvcruntime:undname.obj
 0002:000034c8       ??_C@_03DCBBJBAA@amp@      000000018004b4c8     libvcruntime:undname.obj
 0002:000034cc       ??_C@_02KEGNLNML@?0?5@     000000018004b4cc     libvcruntime:undname.obj
 0002:000034d0       ??_C@_04ENMBGAPA@char@     000000018004b4d0     libvcruntime:undname.obj
 0002:000034d8       ??_C@_05BFKKPKCG@short@    000000018004b4d8     libvcruntime:undname.obj
 0002:000034e0       ??_C@_03JBIPMCLC@int@      000000018004b4e0     libvcruntime:undname.obj
 0002:000034e4       ??_C@_04GOKPGOLB@long@     000000018004b4e4     libvcruntime:undname.obj
 0002:000034ec       ??_C@_05KNFBNCOH@float@    000000018004b4ec     libvcruntime:undname.obj
 0002:000034f4       ??_C@_06BNJCAIGJ@double@   000000018004b4f4     libvcruntime:undname.obj
 0002:000034fc       ??_C@_06EBGKOKIG@__int8@   000000018004b4fc     libvcruntime:undname.obj
 0002:00003508       ??_C@_07ICFHOGAF@__int16@  000000018004b508     libvcruntime:undname.obj
 0002:00003510       ??_C@_07OFLPPHGP@__int32@  000000018004b510     libvcruntime:undname.obj
 0002:00003518       ??_C@_07LFCOJCAC@__int64@  000000018004b518     libvcruntime:undname.obj
 0002:00003520       ??_C@_08GAHOLHEO@__int128@ 000000018004b520     libvcruntime:undname.obj
 0002:00003530       ??_C@_09EEKGDCPH@?$DMunknown?$DO@ 000000018004b530     libvcruntime:undname.obj
 0002:00003540       ??_C@_07CFHGOPCN@char8_t@  000000018004b540     libvcruntime:undname.obj
 0002:00003548       ??_C@_08HBIPOFJB@char16_t@ 000000018004b548     libvcruntime:undname.obj
 0002:00003558       ??_C@_08IECNCBKG@char32_t@ 000000018004b558     libvcruntime:undname.obj
 0002:00003568       ??_C@_07CLGGIAMF@wchar_t@  000000018004b568     libvcruntime:undname.obj
 0002:00003570       ??_C@_04HAPDLBFF@auto@     000000018004b570     libvcruntime:undname.obj
 0002:00003578       ??_C@_0P@LHCGKIGK@decltype?$CIauto?$CJ@ 000000018004b578     libvcruntime:undname.obj
 0002:00003588       ??_C@_06GCICPBLB@__w64?5@  000000018004b588     libvcruntime:undname.obj
 0002:00003590       ??_C@_07NFANNNEC@UNKNOWN@  000000018004b590     libvcruntime:undname.obj
 0002:00003598       ??_C@_07EDHNAJHC@signed?5@ 000000018004b598     libvcruntime:undname.obj
 0002:000035a0       ??_C@_05BNCCCJPP@const@    000000018004b5a0     libvcruntime:undname.obj
 0002:000035a8       ??_C@_09EFNPDFFP@?5volatile@ 000000018004b5a8     libvcruntime:undname.obj
 0002:000035b8       ??_C@_0P@GCIFDJCJ@?$GAunknown?5ecsu?8@ 000000018004b5b8     libvcruntime:undname.obj
 0002:000035c8       ??_C@_06MOJHIBMG@union?5@  000000018004b5c8     libvcruntime:undname.obj
 0002:000035d0       ??_C@_07DIBCDNGL@struct?5@ 000000018004b5d0     libvcruntime:undname.obj
 0002:000035d8       ??_C@_06LJBABKPM@class?5@  000000018004b5d8     libvcruntime:undname.obj
 0002:000035e0       ??_C@_08KOFANOFK@coclass?5@ 000000018004b5e0     libvcruntime:undname.obj
 0002:000035f0       ??_C@_0N@DLIEFKNA@cointerface?5@ 000000018004b5f0     libvcruntime:undname.obj
 0002:00003600       ??_C@_05LJGMCFOG@enum?5@   000000018004b600     libvcruntime:undname.obj
 0002:00003608       ??_C@_06LIJLOJAG@const?5@  000000018004b608     libvcruntime:undname.obj
 0002:00003610       ??_C@_02KJPKDIBN@?$CG?5@   000000018004b610     libvcruntime:undname.obj
 0002:00003614       ??_C@_03PCKGMOPB@?$CG?$CG?5@ 000000018004b614     libvcruntime:undname.obj
 0002:00003618       ??_C@_0M@EALIELKG@cli?3?3array?$DM@ 000000018004b618     libvcruntime:undname.obj
 0002:00003628       ??_C@_0O@GKABPPIF@cli?3?3pin_ptr?$DM@ 000000018004b628     libvcruntime:undname.obj
 0002:00003638       ??_C@_02GOGNNPBN@?$CJ?$FL@ 000000018004b638     libvcruntime:undname.obj
 0002:0000363c       ??_C@_06EEGAIFAK@?$HLflat?$HN@ 000000018004b63c     libvcruntime:undname.obj
 0002:00003644       ??_C@_05JIBOFOHK@?$HLfor?5@ 000000018004b644     libvcruntime:undname.obj
 0002:0000364c       ??_C@_02MDINNEEG@s?5@      000000018004b64c     libvcruntime:undname.obj
 0002:00003658       ??_7charNode@@6B@          000000018004b658     libvcruntime:undname.obj
 0002:00003680       ??_7pcharNode@@6B@         000000018004b680     libvcruntime:undname.obj
 0002:000036a8       ??_7pDNameNode@@6B@        000000018004b6a8     libvcruntime:undname.obj
 0002:000036d0       ??_7DNameStatusNode@@6B@   000000018004b6d0     libvcruntime:undname.obj
 0002:000036f8       ??_7pairNode@@6B@          000000018004b6f8     libvcruntime:undname.obj
 0002:00003820       ??_C@_04OKOHEJBO@?5?$DP?$DP?5@ 000000018004b820     libvcruntime:undname.obj
 0002:00003830       ?nodes@?1??make@DNameStatusNode@@SAPEBV2@W4DNameStatus@@@Z@4QBV2@B 000000018004b830     libvcruntime:undname.obj
 0002:00003870       ?s_negLengthTab@FH4@@3QBCB 000000018004b870     libvcruntime:risctrnsctrl.obj
 0002:00003880       ?s_shiftTab@FH4@@3QBEB     000000018004b880     libvcruntime:risctrnsctrl.obj
 0002:000039e0       ??_C@_1DM@KHCHBNEB@?$AAa?$AAp?$AAi?$AA?9?$AAm?$AAs?$AA?9?$AAw?$AAi?$AAn?$AA?9?$AAc?$AAo?$AAr?$AAe@ 000000018004b9e0     libvcruntime:winapi_downlevel.obj
 0002:00003a20       ??_C@_1DK@LPPGFMPP@?$AAa?$AAp?$AAi?$AA?9?$AAm?$AAs?$AA?9?$AAw?$AAi?$AAn?$AA?9?$AAc?$AAo?$AAr?$AAe@ 000000018004ba20     libvcruntime:winapi_downlevel.obj
 0002:00003a60       ??_C@_1BC@GDMECMAK@?$AAk?$AAe?$AAr?$AAn?$AAe?$AAl?$AA3?$AA2@ 000000018004ba60     libvcruntime:winapi_downlevel.obj
 0002:00003a78       ??_C@_1BA@PFFKHIOG@?$AAa?$AAp?$AAi?$AA?9?$AAm?$AAs?$AA?9@ 000000018004ba78     libvcruntime:winapi_downlevel.obj
 0002:00003a90       ??_C@_08KNHFBNJ@FlsAlloc@  000000018004ba90     libvcruntime:winapi_downlevel.obj
 0002:00003aa8       ??_C@_07PEJMOBNF@FlsFree@  000000018004baa8     libvcruntime:winapi_downlevel.obj
 0002:00003ab8       ??_C@_0M@GDNOONDI@FlsGetValue@ 000000018004bab8     libvcruntime:winapi_downlevel.obj
 0002:00003ad0       ??_C@_0M@JCPCPOEF@FlsSetValue@ 000000018004bad0     libvcruntime:winapi_downlevel.obj
 0002:00003ae8       ??_C@_0BM@HCFOFFN@InitializeCriticalSectionEx@ 000000018004bae8     libvcruntime:winapi_downlevel.obj
 0002:00003b10       ??_7exception@std@@6B@     000000018004bb10     libvcruntime:frame.obj
 0002:00003b20       ??_C@_0BC@EOODALEL@Unknown?5exception@ 000000018004bb20     libvcruntime:frame.obj
 0002:00003b40       ??_7bad_exception@std@@6B@ 000000018004bb40     libvcruntime:frame.obj
 0002:00003b50       ??_C@_0O@DPKOEFFH@bad?5exception@ 000000018004bb50     libvcruntime:frame.obj
 0002:000042e8       __real@3f1a36e2eb1c432d    000000018004c2e8     libucrt:atan2f.obj
 0002:000042f0       __real@3f490fdb            000000018004c2f0     libucrt:atan2f.obj
 0002:000042f8       __real@3fb0000000000000    000000018004c2f8     libucrt:atan2f.obj
 0002:00004300       __real@3fc2492482bd6be1    000000018004c300     libucrt:atan2f.obj
 0002:00004308       __real@3fc90fdb            000000018004c308     libucrt:atan2f.obj
 0002:00004310       __real@3fc99999999643a3    000000018004c310     libucrt:atan2f.obj
 0002:00004318       __real@3fd5555555550877    000000018004c318     libucrt:atan2f.obj
 0002:00004320       __real@3fd5555555555538    000000018004c320     libucrt:atan2f.obj
 0002:00004328       __real@3ff921fb54442d18    000000018004c328     libucrt:atan2f.obj
 0002:00004330       __real@400921fb54442d18    000000018004c330     libucrt:atan2f.obj
 0002:00004338       __real@4016cbe4            000000018004c338     libucrt:atan2f.obj
 0002:0000433c       __real@40490fdb            000000018004c33c     libucrt:atan2f.obj
 0002:00004340       __real@4070000000000000    000000018004c340     libucrt:atan2f.obj
 0002:00004348       __real@80000000            000000018004c348     libucrt:atan2f.obj
 0002:0000434c       __real@bf490fdb            000000018004c34c     libucrt:atan2f.obj
 0002:00004350       __real@bfc90fdb            000000018004c350     libucrt:atan2f.obj
 0002:00004354       __real@c016cbe4            000000018004c354     libucrt:atan2f.obj
 0002:00004358       __real@c0490fdb            000000018004c358     libucrt:atan2f.obj
 0002:000045b0       __acrt_exception_action_table 000000018004c5b0     libucrt:exception_filter.obj
 0002:00004670       __acrt_signal_action_table_count 000000018004c670     libucrt:exception_filter.obj
 0002:00004678       __acrt_signal_action_first_fpe_index 000000018004c678     libucrt:exception_filter.obj
 0002:00004680       __acrt_signal_action_fpe_count 000000018004c680     libucrt:exception_filter.obj
 0002:000046d8       ??_C@_1BI@BGOHAHKC@?$AAm?$AAs?$AAc?$AAo?$AAr?$AAe?$AAe?$AA?4?$AAd?$AAl?$AAl@ 000000018004c6d8     libucrt:exit.obj
 0002:000046f0       ??_C@_0P@MIGLKIOC@CorExitProcess@ 000000018004c6f0     libucrt:exit.obj
 0002:00004850       ?format_validation_lookup_table_spectre@__crt_stdio_output@@3V?$spectre_mitigated_lookup_table@Ustate_transition_pair@__crt_stdio_output@@$0IA@@1@B 000000018004c850     libucrt:output.obj
 0002:00004950       ??_C@_1O@CEDCILHN@?$AA?$CI?$AAn?$AAu?$AAl?$AAl?$AA?$CJ@ 000000018004c950     libucrt:output.obj
 0002:00004960       ??_C@_06OJHGLDPL@?$CInull?$CJ@ 000000018004c960     libucrt:output.obj
 0002:00004ae0       ??_C@_04LAGPAAHP@sinf@     000000018004cae0     libucrt:sincos_special.obj
 0002:00004ae8       ??_C@_04OBBKPIAC@cosf@     000000018004cae8     libucrt:sincos_special.obj
 0002:00004af0       __Lcosfarray               000000018004caf0     libucrt:lsincosf_array.obj
 0002:00004b20       __Lsinfarray               000000018004cb20     libucrt:lsincosf_array.obj
 0002:00004b40       __L_2_by_pi_bits           000000018004cb40     libucrt:l2_by_pi_bits.obj
 0002:00004e18       ??_C@_1M@HPNHIDJI@?$AAj?$AAa?$AA?9?$AAJ?$AAP@ 000000018004ce18     libucrt:mbctype.obj
 0002:00004e28       ??_C@_1M@BIBDDEMK@?$AAz?$AAh?$AA?9?$AAC?$AAN@ 000000018004ce28     libucrt:mbctype.obj
 0002:00004e38       ??_C@_1M@JLOOOEGK@?$AAk?$AAo?$AA?9?$AAK?$AAR@ 000000018004ce38     libucrt:mbctype.obj
 0002:00004e48       ??_C@_1M@CLNBBOPM@?$AAz?$AAh?$AA?9?$AAT?$AAW@ 000000018004ce48     libucrt:mbctype.obj
 0002:00004f10       ??_C@_1EA@JGEFHKEI@?$AAa?$AAp?$AAi?$AA?9?$AAm?$AAs?$AA?9?$AAw?$AAi?$AAn?$AA?9?$AAc?$AAo?$AAr?$AAe@ 000000018004cf10     libucrt:winapi_thunks.obj
 0002:00004f50       ??_C@_1DI@KMEPCBPN@?$AAa?$AAp?$AAi?$AA?9?$AAm?$AAs?$AA?9?$AAw?$AAi?$AAn?$AA?9?$AAc?$AAo?$AAr?$AAe@ 000000018004cf50     libucrt:winapi_thunks.obj
 0002:00004f88       ??_C@_1DI@IJCEHOCB@?$AAa?$AAp?$AAi?$AA?9?$AAm?$AAs?$AA?9?$AAw?$AAi?$AAn?$AA?9?$AAc?$AAo?$AAr?$AAe@ 000000018004cf88     libucrt:winapi_thunks.obj
 0002:00004fc0       ??_C@_1EI@MPIAOHOC@?$AAa?$AAp?$AAi?$AA?9?$AAm?$AAs?$AA?9?$AAw?$AAi?$AAn?$AA?9?$AAc?$AAo?$AAr?$AAe@ 000000018004cfc0     libucrt:winapi_thunks.obj
 0002:00005010       ??_C@_1FK@FPHCKFIE@?$AAa?$AAp?$AAi?$AA?9?$AAm?$AAs?$AA?9?$AAw?$AAi?$AAn?$AA?9?$AAc?$AAo?$AAr?$AAe@ 000000018004d010     libucrt:winapi_thunks.obj
 0002:00005070       ??_C@_1EM@DILCGIIO@?$AAa?$AAp?$AAi?$AA?9?$AAm?$AAs?$AA?9?$AAw?$AAi?$AAn?$AA?9?$AAc?$AAo?$AAr?$AAe@ 000000018004d070     libucrt:winapi_thunks.obj
 0002:000050c0       ??_C@_1DM@LNCGDDPN@?$AAa?$AAp?$AAi?$AA?9?$AAm?$AAs?$AA?9?$AAw?$AAi?$AAn?$AA?9?$AAc?$AAo?$AAr?$AAe@ 000000018004d0c0     libucrt:winapi_thunks.obj
 0002:00005100       ??_C@_1DO@FPAPJEMD@?$AAa?$AAp?$AAi?$AA?9?$AAm?$AAs?$AA?9?$AAw?$AAi?$AAn?$AA?9?$AAc?$AAo?$AAr?$AAe@ 000000018004d100     libucrt:winapi_thunks.obj
 0002:00005140       ??_C@_1DK@NDHNAHIO@?$AAa?$AAp?$AAi?$AA?9?$AAm?$AAs?$AA?9?$AAw?$AAi?$AAn?$AA?9?$AAc?$AAo?$AAr?$AAe@ 000000018004d140     libucrt:winapi_thunks.obj
 0002:00005180       ??_C@_1DM@KGHDGBCM@?$AAa?$AAp?$AAi?$AA?9?$AAm?$AAs?$AA?9?$AAw?$AAi?$AAn?$AA?9?$AAc?$AAo?$AAr?$AAe@ 000000018004d180     libucrt:winapi_thunks.obj
 0002:000051c0       ??_C@_1EO@IJIOEFOH@?$AAa?$AAp?$AAi?$AA?9?$AAm?$AAs?$AA?9?$AAw?$AAi?$AAn?$AA?9?$AAr?$AAt?$AAc?$AAo@ 000000018004d1c0     libucrt:winapi_thunks.obj
 0002:00005210       ??_C@_1FG@HHGEKANL@?$AAa?$AAp?$AAi?$AA?9?$AAm?$AAs?$AA?9?$AAw?$AAi?$AAn?$AA?9?$AAs?$AAe?$AAc?$AAu@ 000000018004d210     libucrt:winapi_thunks.obj
 0002:00005270       ??_C@_1EG@DBIOJECG@?$AAe?$AAx?$AAt?$AA?9?$AAm?$AAs?$AA?9?$AAw?$AAi?$AAn?$AA?9?$AAn?$AAt?$AAu?$AAs@ 000000018004d270     libucrt:winapi_thunks.obj
 0002:000052c0       ??_C@_1EO@FIHMJCLF@?$AAe?$AAx?$AAt?$AA?9?$AAm?$AAs?$AA?9?$AAw?$AAi?$AAn?$AA?9?$AAn?$AAt?$AAu?$AAs@ 000000018004d2c0     libucrt:winapi_thunks.obj
 0002:00005310       ??_C@_1BC@DNHGCMLG@?$AAa?$AAd?$AAv?$AAa?$AAp?$AAi?$AA3?$AA2@ 000000018004d310     libucrt:winapi_thunks.obj
 0002:00005328       ??_C@_1BG@CJPGBMEF@?$AAk?$AAe?$AAr?$AAn?$AAe?$AAl?$AAb?$AAa?$AAs?$AAe@ 000000018004d328     libucrt:winapi_thunks.obj
 0002:00005340       ??_C@_1M@OAIMIKLP@?$AAn?$AAt?$AAd?$AAl?$AAl@ 000000018004d340     libucrt:winapi_thunks.obj
 0002:00005350       ??_C@_1EG@DPGNFKGC@?$AAa?$AAp?$AAi?$AA?9?$AAm?$AAs?$AA?9?$AAw?$AAi?$AAn?$AA?9?$AAa?$AAp?$AAp?$AAm@ 000000018004d350     libucrt:winapi_thunks.obj
 0002:00005398       ??_C@_1O@BCCLBEOE@?$AAu?$AAs?$AAe?$AAr?$AA3?$AA2@ 000000018004d398     libucrt:winapi_thunks.obj
 0002:000053a8       ??_C@_1BA@IAIFMGEF@?$AAe?$AAx?$AAt?$AA?9?$AAm?$AAs?$AA?9@ 000000018004d3a8     libucrt:winapi_thunks.obj
 0002:000053c0       ??_C@_0BA@FHFNEAED@AreFileApisANSI@ 000000018004d3c0     libucrt:winapi_thunks.obj
 0002:000053e0       ??_C@_0O@KKBNKAPF@LCMapStringEx@ 000000018004d3e0     libucrt:winapi_thunks.obj
 0002:000053f8       ??_C@_0BB@HBDEELFH@LocaleNameToLCID@ 000000018004d3f8     libucrt:winapi_thunks.obj
 0002:00005410       ??_C@_0CF@OJOFEIGO@AppPolicyGetProcessTerminationM@ 000000018004d410     libucrt:winapi_thunks.obj
 0002:00005440       __lc_time_c                000000018004d440     libucrt:nlsdata.obj
 0002:00005700       ??_C@_03KOEHGMDN@Sun@      000000018004d700     libucrt:nlsdata.obj
 0002:00005704       ??_C@_03PDAGKDH@Mon@       000000018004d704     libucrt:nlsdata.obj
 0002:00005708       ??_C@_03NAGEINEP@Tue@      000000018004d708     libucrt:nlsdata.obj
 0002:0000570c       ??_C@_03MHOMLAJA@Wed@      000000018004d70c     libucrt:nlsdata.obj
 0002:00005710       ??_C@_03IOFIKPDN@Thu@      000000018004d710     libucrt:nlsdata.obj
 0002:00005714       ??_C@_03IDIOELNC@Fri@      000000018004d714     libucrt:nlsdata.obj
 0002:00005718       ??_C@_03FEFJNEK@Sat@       000000018004d718     libucrt:nlsdata.obj
 0002:0000571c       ??_C@_06OOPIFAJ@Sunday@    000000018004d71c     libucrt:nlsdata.obj
 0002:00005724       ??_C@_06JLEDEDGH@Monday@   000000018004d724     libucrt:nlsdata.obj
 0002:00005730       ??_C@_07BAAGCFCM@Tuesday@  000000018004d730     libucrt:nlsdata.obj
 0002:00005738       ??_C@_09DLIGFAKA@Wednesday@ 000000018004d738     libucrt:nlsdata.obj
 0002:00005748       ??_C@_08HACCIKIA@Thursday@ 000000018004d748     libucrt:nlsdata.obj
 0002:00005754       ??_C@_06JECMNKMI@Friday@   000000018004d754     libucrt:nlsdata.obj
 0002:00005760       ??_C@_08INBOOONO@Saturday@ 000000018004d760     libucrt:nlsdata.obj
 0002:0000576c       ??_C@_03JIHJHPIE@Jan@      000000018004d76c     libucrt:nlsdata.obj
 0002:00005770       ??_C@_03HJBDCHOM@Feb@      000000018004d770     libucrt:nlsdata.obj
 0002:00005774       ??_C@_03ODNJBKGA@Mar@      000000018004d774     libucrt:nlsdata.obj
 0002:00005778       ??_C@_03LEOLGMJP@Apr@      000000018004d778     libucrt:nlsdata.obj
 0002:0000577c       ??_C@_03CNMDKL@May@        000000018004d77c     libucrt:nlsdata.obj
 0002:00005780       ??_C@_03IDFGHECI@Jun@      000000018004d780     libucrt:nlsdata.obj
 0002:00005784       ??_C@_03LBGABGKK@Jul@      000000018004d784     libucrt:nlsdata.obj
 0002:00005788       ??_C@_03IFJFEIGA@Aug@      000000018004d788     libucrt:nlsdata.obj
 0002:0000578c       ??_C@_03GGCAPAJC@Sep@      000000018004d78c     libucrt:nlsdata.obj
 0002:00005790       ??_C@_03BMAOKBAD@Oct@      000000018004d790     libucrt:nlsdata.obj
 0002:00005794       ??_C@_03JPJOFNIA@Nov@      000000018004d794     libucrt:nlsdata.obj
 0002:00005798       ??_C@_03MKABNOCG@Dec@      000000018004d798     libucrt:nlsdata.obj
 0002:000057a0       ??_C@_07CGJPFGJA@January@  000000018004d7a0     libucrt:nlsdata.obj
 0002:000057a8       ??_C@_08GNJGEPFN@February@ 000000018004d7a8     libucrt:nlsdata.obj
 0002:000057b4       ??_C@_05HPCKOFNC@March@    000000018004d7b4     libucrt:nlsdata.obj
 0002:000057bc       ??_C@_05DMJDNLEJ@April@    000000018004d7bc     libucrt:nlsdata.obj
 0002:000057c4       ??_C@_04CNLMGBGM@June@     000000018004d7c4     libucrt:nlsdata.obj
 0002:000057cc       ??_C@_04MIEPOIFP@July@     000000018004d7cc     libucrt:nlsdata.obj
 0002:000057d4       ??_C@_06LBBHFDDG@August@   000000018004d7d4     libucrt:nlsdata.obj
 0002:000057e0       ??_C@_09BHHEALKD@September@ 000000018004d7e0     libucrt:nlsdata.obj
 0002:000057f0       ??_C@_07JJNFCEND@October@  000000018004d7f0     libucrt:nlsdata.obj
 0002:000057f8       ??_C@_08HCHEGEOA@November@ 000000018004d7f8     libucrt:nlsdata.obj
 0002:00005808       ??_C@_08EDHMEBNP@December@ 000000018004d808     libucrt:nlsdata.obj
 0002:00005814       ??_C@_02DEDBPAFC@AM@       000000018004d814     libucrt:nlsdata.obj
 0002:00005818       ??_C@_02CJNFDJBF@PM@       000000018004d818     libucrt:nlsdata.obj
 0002:00005820       ??_C@_08BPBNCDIB@MM?1dd?1yy@ 000000018004d820     libucrt:nlsdata.obj
 0002:00005830       ??_C@_0BE@CKGJFCPC@dddd?0?5MMMM?5dd?0?5yyyy@ 000000018004d830     libucrt:nlsdata.obj
 0002:00005848       ??_C@_08JCCMCCIL@HH?3mm?3ss@ 000000018004d848     libucrt:nlsdata.obj
 0002:00005858       ??_C@_17MBGCMIPB@?$AAS?$AAu?$AAn@ 000000018004d858     libucrt:nlsdata.obj
 0002:00005860       ??_C@_17KBOMKBF@?$AAM?$AAo?$AAn@ 000000018004d860     libucrt:nlsdata.obj
 0002:00005868       ??_C@_17BMKGEGOJ@?$AAT?$AAu?$AAe@ 000000018004d868     libucrt:nlsdata.obj
 0002:00005870       ??_C@_17CJEDCEPE@?$AAW?$AAe?$AAd@ 000000018004d870     libucrt:nlsdata.obj
 0002:00005878       ??_C@_17PDPHAADD@?$AAT?$AAh?$AAu@ 000000018004d878     libucrt:nlsdata.obj
 0002:00005880       ??_C@_17HFOLPPLP@?$AAF?$AAr?$AAi@ 000000018004d880     libucrt:nlsdata.obj
 0002:00005888       ??_C@_17GGIBDPIH@?$AAS?$AAa?$AAt@ 000000018004d888     libucrt:nlsdata.obj
 0002:00005890       ??_C@_1O@IHNHDHPB@?$AAS?$AAu?$AAn?$AAd?$AAa?$AAy@ 000000018004d890     libucrt:nlsdata.obj
 0002:000058a0       ??_C@_1O@MMNBFLIA@?$AAM?$AAo?$AAn?$AAd?$AAa?$AAy@ 000000018004d8a0     libucrt:nlsdata.obj
 0002:000058b0       ??_C@_1BA@ENFBFFEK@?$AAT?$AAu?$AAe?$AAs?$AAd?$AAa?$AAy@ 000000018004d8b0     libucrt:nlsdata.obj
 0002:000058c0       ??_C@_1BE@EBOGMDOH@?$AAW?$AAe?$AAd?$AAn?$AAe?$AAs?$AAd?$AAa?$AAy@ 000000018004d8c0     libucrt:nlsdata.obj
 0002:000058d8       ??_C@_1BC@HHMNLIHE@?$AAT?$AAh?$AAu?$AAr?$AAs?$AAd?$AAa?$AAy@ 000000018004d8d8     libucrt:nlsdata.obj
 0002:000058f0       ??_C@_1O@PDICJHAG@?$AAF?$AAr?$AAi?$AAd?$AAa?$AAy@ 000000018004d8f0     libucrt:nlsdata.obj
 0002:00005900       ??_C@_1BC@ENMNNPAJ@?$AAS?$AAa?$AAt?$AAu?$AAr?$AAd?$AAa?$AAy@ 000000018004d900     libucrt:nlsdata.obj
 0002:00005918       ??_C@_17DKNBKCHM@?$AAJ?$AAa?$AAn@ 000000018004d918     libucrt:nlsdata.obj
 0002:00005920       ??_C@_17LMDJEKJN@?$AAF?$AAe?$AAb@ 000000018004d920     libucrt:nlsdata.obj
 0002:00005928       ??_C@_17CKNLEDEC@?$AAM?$AAa?$AAr@ 000000018004d928     libucrt:nlsdata.obj
 0002:00005930       ??_C@_17LFPOIHDD@?$AAA?$AAp?$AAr@ 000000018004d930     libucrt:nlsdata.obj
 0002:00005938       ??_C@_17PNNKMEED@?$AAM?$AAa?$AAy@ 000000018004d938     libucrt:nlsdata.obj
 0002:00005940       ??_C@_17KCJGOCPB@?$AAJ?$AAu?$AAn@ 000000018004d940     libucrt:nlsdata.obj
 0002:00005948       ??_C@_17IJPCKHK@?$AAJ?$AAu?$AAl@ 000000018004d948     libucrt:nlsdata.obj
 0002:00005950       ??_C@_17ICPELBCN@?$AAA?$AAu?$AAg@ 000000018004d950     libucrt:nlsdata.obj
 0002:00005958       ??_C@_17HCHCOKMG@?$AAS?$AAe?$AAp@ 000000018004d958     libucrt:nlsdata.obj
 0002:00005960       ??_C@_17FNLKOI@?$AAO?$AAc?$AAt@ 000000018004d960     libucrt:nlsdata.obj
 0002:00005968       ??_C@_17BBDMLCIG@?$AAN?$AAo?$AAv@ 000000018004d968     libucrt:nlsdata.obj
 0002:00005970       ??_C@_17EGKACKIF@?$AAD?$AAe?$AAc@ 000000018004d970     libucrt:nlsdata.obj
 0002:00005978       ??_C@_1BA@EFMEIEBA@?$AAJ?$AAa?$AAn?$AAu?$AAa?$AAr?$AAy@ 000000018004d978     libucrt:nlsdata.obj
 0002:00005988       ??_C@_1BC@JGDDFFAM@?$AAF?$AAe?$AAb?$AAr?$AAu?$AAa?$AAr?$AAy@ 000000018004d988     libucrt:nlsdata.obj
 0002:000059a0       ??_C@_1M@IKEENEDF@?$AAM?$AAa?$AAr?$AAc?$AAh@ 000000018004d9a0     libucrt:nlsdata.obj
 0002:000059b0       ??_C@_1M@GJNLMHFD@?$AAA?$AAp?$AAr?$AAi?$AAl@ 000000018004d9b0     libucrt:nlsdata.obj
 0002:000059c0       ??_C@_19EPFLPGAP@?$AAJ?$AAu?$AAn?$AAe@ 000000018004d9c0     libucrt:nlsdata.obj
 0002:000059d0       ??_C@_19BIFMLPCD@?$AAJ?$AAu?$AAl?$AAy@ 000000018004d9d0     libucrt:nlsdata.obj
 0002:000059e0       ??_C@_1O@PAHLKOAC@?$AAA?$AAu?$AAg?$AAu?$AAs?$AAt@ 000000018004d9e0     libucrt:nlsdata.obj
 0002:000059f0       ??_C@_1BE@DKAAMBJL@?$AAS?$AAe?$AAp?$AAt?$AAe?$AAm?$AAb?$AAe?$AAr@ 000000018004d9f0     libucrt:nlsdata.obj
 0002:00005a08       ??_C@_1BA@EPANDLNG@?$AAO?$AAc?$AAt?$AAo?$AAb?$AAe?$AAr@ 000000018004da08     libucrt:nlsdata.obj
 0002:00005a18       ??_C@_1BC@BGLIFPF@?$AAN?$AAo?$AAv?$AAe?$AAm?$AAb?$AAe?$AAr@ 000000018004da18     libucrt:nlsdata.obj
 0002:00005a30       ??_C@_1BC@FEMKIFH@?$AAD?$AAe?$AAc?$AAe?$AAm?$AAb?$AAe?$AAr@ 000000018004da30     libucrt:nlsdata.obj
 0002:00005a44       ??_C@_15ODEHAHHF@?$AAA?$AAM@ 000000018004da44     libucrt:nlsdata.obj
 0002:00005a4c       ??_C@_15CLMNNGEL@?$AAP?$AAM@ 000000018004da4c     libucrt:nlsdata.obj
 0002:00005a58       ??_C@_1BC@IEBCMHCM@?$AAM?$AAM?$AA?1?$AAd?$AAd?$AA?1?$AAy?$AAy@ 000000018004da58     libucrt:nlsdata.obj
 0002:00005a70       ??_C@_1CI@KNAKOEBC@?$AAd?$AAd?$AAd?$AAd?$AA?0?$AA?5?$AAM?$AAM?$AAM?$AAM?$AA?5?$AAd?$AAd?$AA?0?$AA?5@ 000000018004da70     libucrt:nlsdata.obj
 0002:00005a98       ??_C@_1BC@GDGBMEMK@?$AAH?$AAH?$AA?3?$AAm?$AAm?$AA?3?$AAs?$AAs@ 000000018004da98     libucrt:nlsdata.obj
 0002:00005ab0       ??_C@_1M@BMHNFIME@?$AAe?$AAn?$AA?9?$AAU?$AAS@ 000000018004dab0     libucrt:nlsdata.obj
 0002:00005b40       ??_C@_03OEIAHPBN@INF@      000000018004db40     libucrt:cvt.obj
 0002:00005b44       ??_C@_03OJHLLCGB@inf@      000000018004db44     libucrt:cvt.obj
 0002:00005b48       ??_C@_03LKNCIKJB@NAN@      000000018004db48     libucrt:cvt.obj
 0002:00005b4c       ??_C@_03LHCJEHON@nan@      000000018004db4c     libucrt:cvt.obj
 0002:00005b50       ??_C@_09OFJJIMPC@NAN?$CISNAN?$CJ@ 000000018004db50     libucrt:cvt.obj
 0002:00005b60       ??_C@_09IPFBKMDL@nan?$CIsnan?$CJ@ 000000018004db60     libucrt:cvt.obj
 0002:00005b70       ??_C@_08IKHNHAJ@NAN?$CIIND?$CJ@ 000000018004db70     libucrt:cvt.obj
 0002:00005b80       ??_C@_08OFCDMILK@nan?$CIind?$CJ@ 000000018004db80     libucrt:cvt.obj
 0002:00005b8c       ??_C@_05KLBDPFGC@e?$CL000@ 000000018004db8c     libucrt:cvt.obj
 0002:00005ba0       __newctype                 000000018004dba0     libucrt:ctype.obj
 0002:00005ea0       __newclmap                 000000018004dea0     libucrt:ctype.obj
 0002:00006020       __newcumap                 000000018004e020     libucrt:ctype.obj
 0002:000061b0       ??_C@_05HGHHAHAP@log10@    000000018004e1b0     libucrt:fpexcept.obj
 0002:00007000       ??_C@_15EMKDOKLE@?$AAa?$AAr@ 000000018004f000     libucrt:lcidtoname_downlevel.obj
 0002:00007008       ??_C@_15KNPADPLH@?$AAb?$AAg@ 000000018004f008     libucrt:lcidtoname_downlevel.obj
 0002:00007010       ??_C@_15EDMHLDMO@?$AAc?$AAa@ 000000018004f010     libucrt:lcidtoname_downlevel.obj
 0002:00007018       ??_C@_1O@BPEAJADD@?$AAz?$AAh?$AA?9?$AAC?$AAH?$AAS@ 000000018004f018     libucrt:lcidtoname_downlevel.obj
 0002:00007028       ??_C@_15LJNHCMNK@?$AAc?$AAs@ 000000018004f028     libucrt:lcidtoname_downlevel.obj
 0002:00007030       ??_C@_15FOMCIDHG@?$AAd?$AAa@ 000000018004f030     libucrt:lcidtoname_downlevel.obj
 0002:00007038       ??_C@_15NBKABECB@?$AAd?$AAe@ 000000018004f038     libucrt:lcidtoname_downlevel.obj
 0002:00007040       ??_C@_15GHPEIIAO@?$AAe?$AAl@ 000000018004f040     libucrt:lcidtoname_downlevel.obj
 0002:00007048       ??_C@_15MNPNEAIF@?$AAe?$AAn@ 000000018004f048     libucrt:lcidtoname_downlevel.obj
 0002:00007050       ??_C@_15GPIOMPMH@?$AAe?$AAs@ 000000018004f050     libucrt:lcidtoname_downlevel.obj
 0002:00007058       ??_C@_15NGLOAKJC@?$AAf?$AAi@ 000000018004f058     libucrt:lcidtoname_downlevel.obj
 0002:00007060       ??_C@_15FBKGNKAM@?$AAf?$AAr@ 000000018004f060     libucrt:lcidtoname_downlevel.obj
 0002:00007068       ??_C@_15KGGCNEFK@?$AAh?$AAe@ 000000018004f068     libucrt:lcidtoname_downlevel.obj
 0002:00007070       ??_C@_15PGHLIDMF@?$AAh?$AAu@ 000000018004f070     libucrt:lcidtoname_downlevel.obj
 0002:00007078       ??_C@_15BIEMAPLM@?$AAi?$AAs@ 000000018004f078     libucrt:lcidtoname_downlevel.obj
 0002:00007080       ??_C@_15IFJLDHAF@?$AAi?$AAt@ 000000018004f080     libucrt:lcidtoname_downlevel.obj
 0002:00007088       ??_C@_15GEMIOCAG@?$AAj?$AAa@ 000000018004f088     libucrt:lcidtoname_downlevel.obj
 0002:00007090       ??_C@_15EPELEGJA@?$AAk?$AAo@ 000000018004f090     libucrt:lcidtoname_downlevel.obj
 0002:00007098       ??_C@_15NDDHIMN@?$AAn?$AAl@ 000000018004f098     libucrt:lcidtoname_downlevel.obj
 0002:000070a0       ??_C@_15BPIGNHCD@?$AAn?$AAo@ 000000018004f0a0     libucrt:lcidtoname_downlevel.obj
 0002:000070a8       ??_C@_15DEOPBLCG@?$AAp?$AAl@ 000000018004f0a8     libucrt:lcidtoname_downlevel.obj
 0002:000070b0       ??_C@_15KBECGEFG@?$AAp?$AAt@ 000000018004f0b0     libucrt:lcidtoname_downlevel.obj
 0002:000070b8       ??_C@_15GLJCBFMD@?$AAr?$AAo@ 000000018004f0b8     libucrt:lcidtoname_downlevel.obj
 0002:000070c0       ??_C@_15FEDGKCDI@?$AAr?$AAu@ 000000018004f0c0     libucrt:lcidtoname_downlevel.obj
 0002:000070c8       ??_C@_15GLKMLLHM@?$AAh?$AAr@ 000000018004f0c8     libucrt:lcidtoname_downlevel.obj
 0002:000070d0       ??_C@_15CPKMFBDB@?$AAs?$AAk@ 000000018004f0d0     libucrt:lcidtoname_downlevel.obj
 0002:000070d8       ??_C@_15BAAIOGMK@?$AAs?$AAq@ 000000018004f0d8     libucrt:lcidtoname_downlevel.obj
 0002:000070e0       ??_C@_15INNPNOHD@?$AAs?$AAv@ 000000018004f0e0     libucrt:lcidtoname_downlevel.obj
 0002:000070e8       ??_C@_15CABMMOGH@?$AAt?$AAh@ 000000018004f0e8     libucrt:lcidtoname_downlevel.obj
 0002:000070f0       ??_C@_15BPLIHJJM@?$AAt?$AAr@ 000000018004f0f0     libucrt:lcidtoname_downlevel.obj
 0002:000070f8       ??_C@_15NEOEKKDJ@?$AAu?$AAr@ 000000018004f0f8     libucrt:lcidtoname_downlevel.obj
 0002:00007100       ??_C@_15NFICGAJK@?$AAi?$AAd@ 000000018004f100     libucrt:lcidtoname_downlevel.obj
 0002:00007108       ??_C@_15PJPFLCCM@?$AAu?$AAk@ 000000018004f108     libucrt:lcidtoname_downlevel.obj
 0002:00007110       ??_C@_15HPJPHDM@?$AAb?$AAe@ 000000018004f110     libucrt:lcidtoname_downlevel.obj
 0002:00007118       ??_C@_15LCHLGJII@?$AAs?$AAl@ 000000018004f118     libucrt:lcidtoname_downlevel.obj
 0002:00007120       ??_C@_15PCFJPHHO@?$AAe?$AAt@ 000000018004f120     libucrt:lcidtoname_downlevel.obj
 0002:00007128       ??_C@_15HPFPGODN@?$AAl?$AAv@ 000000018004f128     libucrt:lcidtoname_downlevel.obj
 0002:00007130       ??_C@_15NFFGKGLG@?$AAl?$AAt@ 000000018004f130     libucrt:lcidtoname_downlevel.obj
 0002:00007138       ??_C@_15BDAKCCHN@?$AAf?$AAa@ 000000018004f138     libucrt:lcidtoname_downlevel.obj
 0002:00007140       ??_C@_15NFGIAIAJ@?$AAv?$AAi@ 000000018004f140     libucrt:lcidtoname_downlevel.obj
 0002:00007148       ??_C@_15LMKNDMHN@?$AAh?$AAy@ 000000018004f148     libucrt:lcidtoname_downlevel.obj
 0002:00007150       ??_C@_15IJBHMCFL@?$AAa?$AAz@ 000000018004f150     libucrt:lcidtoname_downlevel.obj
 0002:00007158       ??_C@_15EKOFJABL@?$AAe?$AAu@ 000000018004f158     libucrt:lcidtoname_downlevel.obj
 0002:00007160       ??_C@_15BGHADCNK@?$AAm?$AAk@ 000000018004f160     libucrt:lcidtoname_downlevel.obj
 0002:00007168       ??_C@_15JDNICKHM@?$AAa?$AAf@ 000000018004f168     libucrt:lcidtoname_downlevel.obj
 0002:00007170       ??_C@_15KPJEDBKD@?$AAk?$AAa@ 000000018004f170     libucrt:lcidtoname_downlevel.obj
 0002:00007178       ??_C@_15PDNFFFEO@?$AAf?$AAo@ 000000018004f178     libucrt:lcidtoname_downlevel.obj
 0002:00007180       ??_C@_15OMLEGLOC@?$AAh?$AAi@ 000000018004f180     libucrt:lcidtoname_downlevel.obj
 0002:00007188       ??_C@_15IDNNENKK@?$AAm?$AAs@ 000000018004f188     libucrt:lcidtoname_downlevel.obj
 0002:00007190       ??_C@_15MACJNBMH@?$AAk?$AAk@ 000000018004f190     libucrt:lcidtoname_downlevel.obj
 0002:00007198       ??_C@_15DKDJEOND@?$AAk?$AAy@ 000000018004f198     libucrt:lcidtoname_downlevel.obj
 0002:000071a0       ??_C@_15DFGDLJBG@?$AAs?$AAw@ 000000018004f1a0     libucrt:lcidtoname_downlevel.obj
 0002:000071a8       ??_C@_15BBFAICNG@?$AAu?$AAz@ 000000018004f1a8     libucrt:lcidtoname_downlevel.obj
 0002:000071b0       ??_C@_15DKNDCGEA@?$AAt?$AAt@ 000000018004f1b0     libucrt:lcidtoname_downlevel.obj
 0002:000071b8       ??_C@_15MGIFMDPL@?$AAp?$AAa@ 000000018004f1b8     libucrt:lcidtoname_downlevel.obj
 0002:000071c0       ??_C@_15HCNDBBA@?$AAg?$AAu@ 000000018004f1c0     libucrt:lcidtoname_downlevel.obj
 0002:000071c8       ??_C@_15FNBEIBON@?$AAt?$AAa@ 000000018004f1c8     libucrt:lcidtoname_downlevel.obj
 0002:000071d0       ??_C@_15NCHGBGLK@?$AAt?$AAe@ 000000018004f1d0     libucrt:lcidtoname_downlevel.obj
 0002:000071d8       ??_C@_15PHPHCBPF@?$AAk?$AAn@ 000000018004f1d8     libucrt:lcidtoname_downlevel.obj
 0002:000071e0       ??_C@_15DLGBCKMP@?$AAm?$AAr@ 000000018004f1e0     libucrt:lcidtoname_downlevel.obj
 0002:000071e8       ??_C@_15EABBLBFF@?$AAs?$AAa@ 000000018004f1e8     libucrt:lcidtoname_downlevel.obj
 0002:000071f0       ??_C@_15CBKOMCOI@?$AAm?$AAn@ 000000018004f1f0     libucrt:lcidtoname_downlevel.obj
 0002:000071f8       ??_C@_15CKDMCJAF@?$AAg?$AAl@ 000000018004f1f8     libucrt:lcidtoname_downlevel.obj
 0002:00007200       ??_C@_17CNJFBPG@?$AAk?$AAo?$AAk@ 000000018004f200     libucrt:lcidtoname_downlevel.obj
 0002:00007208       ??_C@_17FFBJICPL@?$AAs?$AAy?$AAr@ 000000018004f208     libucrt:lcidtoname_downlevel.obj
 0002:00007210       ??_C@_17KPNDCPAF@?$AAd?$AAi?$AAv@ 000000018004f210     libucrt:lcidtoname_downlevel.obj
 0002:00007218       ??_C@_11LOCGONAA@@         000000018004f218     libucrt:lcidtoname_downlevel.obj
 0002:00007220       ??_C@_1M@OKAHONE@?$AAa?$AAr?$AA?9?$AAS?$AAA@ 000000018004f220     libucrt:lcidtoname_downlevel.obj
 0002:00007230       ??_C@_1M@FFFIGIGK@?$AAb?$AAg?$AA?9?$AAB?$AAG@ 000000018004f230     libucrt:lcidtoname_downlevel.obj
 0002:00007240       ??_C@_1M@BJNKEDC@?$AAc?$AAa?$AA?9?$AAE?$AAS@ 000000018004f240     libucrt:lcidtoname_downlevel.obj
 0002:00007250       ??_C@_1M@IJJHFJHA@?$AAc?$AAs?$AA?9?$AAC?$AAZ@ 000000018004f250     libucrt:lcidtoname_downlevel.obj
 0002:00007260       ??_C@_1M@CLPEOBGI@?$AAd?$AAa?$AA?9?$AAD?$AAK@ 000000018004f260     libucrt:lcidtoname_downlevel.obj
 0002:00007270       ??_C@_1M@MCMADGCB@?$AAd?$AAe?$AA?9?$AAD?$AAE@ 000000018004f270     libucrt:lcidtoname_downlevel.obj
 0002:00007280       ??_C@_1M@OOCKEMAM@?$AAe?$AAl?$AA?9?$AAG?$AAR@ 000000018004f280     libucrt:lcidtoname_downlevel.obj
 0002:00007290       ??_C@_1M@DDNJFGID@?$AAf?$AAi?$AA?9?$AAF?$AAI@ 000000018004f290     libucrt:lcidtoname_downlevel.obj
 0002:000072a0       ??_C@_1M@GLIPPMAC@?$AAf?$AAr?$AA?9?$AAF?$AAR@ 000000018004f2a0     libucrt:lcidtoname_downlevel.obj
 0002:000072b0       ??_C@_1M@GFMCHPE@?$AAh?$AAe?$AA?9?$AAI?$AAL@ 000000018004f2b0     libucrt:lcidtoname_downlevel.obj
 0002:000072c0       ??_C@_1M@MHLPGNKM@?$AAh?$AAu?$AA?9?$AAH?$AAU@ 000000018004f2c0     libucrt:lcidtoname_downlevel.obj
 0002:000072d0       ??_C@_1M@LPDDNNPN@?$AAi?$AAs?$AA?9?$AAI?$AAS@ 000000018004f2d0     libucrt:lcidtoname_downlevel.obj
 0002:000072e0       ??_C@_1M@MADIPODN@?$AAi?$AAt?$AA?9?$AAI?$AAT@ 000000018004f2e0     libucrt:lcidtoname_downlevel.obj
 0002:000072f0       ??_C@_1M@IHBJJGG@?$AAn?$AAl?$AA?9?$AAN?$AAL@ 000000018004f2f0     libucrt:lcidtoname_downlevel.obj
 0002:00007300       ??_C@_1M@EANAGDL@?$AAn?$AAb?$AA?9?$AAN?$AAO@ 000000018004f300     libucrt:lcidtoname_downlevel.obj
 0002:00007310       ??_C@_1M@NEIEMEGP@?$AAp?$AAl?$AA?9?$AAP?$AAL@ 000000018004f310     libucrt:lcidtoname_downlevel.obj
 0002:00007320       ??_C@_1M@BOCFIGEP@?$AAp?$AAt?$AA?9?$AAB?$AAR@ 000000018004f320     libucrt:lcidtoname_downlevel.obj
 0002:00007330       ??_C@_1M@IMPFOPBG@?$AAr?$AAo?$AA?9?$AAR?$AAO@ 000000018004f330     libucrt:lcidtoname_downlevel.obj
 0002:00007340       ??_C@_1M@IDNNEJMM@?$AAr?$AAu?$AA?9?$AAR?$AAU@ 000000018004f340     libucrt:lcidtoname_downlevel.obj
 0002:00007350       ??_C@_1M@LILEEOGM@?$AAh?$AAr?$AA?9?$AAH?$AAR@ 000000018004f350     libucrt:lcidtoname_downlevel.obj
 0002:00007360       ??_C@_1M@FKIFEHPB@?$AAs?$AAk?$AA?9?$AAS?$AAK@ 000000018004f360     libucrt:lcidtoname_downlevel.obj
 0002:00007370       ??_C@_1M@LJMAMNPJ@?$AAs?$AAq?$AA?9?$AAA?$AAL@ 000000018004f370     libucrt:lcidtoname_downlevel.obj
 0002:00007380       ??_C@_1M@GIAKDKJK@?$AAs?$AAv?$AA?9?$AAS?$AAE@ 000000018004f380     libucrt:lcidtoname_downlevel.obj
 0002:00007390       ??_C@_1M@MKJKIKCL@?$AAt?$AAh?$AA?9?$AAT?$AAH@ 000000018004f390     libucrt:lcidtoname_downlevel.obj
 0002:000073a0       ??_C@_1M@MFLCCMPB@?$AAt?$AAr?$AA?9?$AAT?$AAR@ 000000018004f3a0     libucrt:lcidtoname_downlevel.obj
 0002:000073b0       ??_C@_1M@OIJHDKJN@?$AAu?$AAr?$AA?9?$AAP?$AAK@ 000000018004f3b0     libucrt:lcidtoname_downlevel.obj
 0002:000073c0       ??_C@_1M@LHIPCIEK@?$AAi?$AAd?$AA?9?$AAI?$AAD@ 000000018004f3c0     libucrt:lcidtoname_downlevel.obj
 0002:000073d0       ??_C@_1M@MFMOBGI@?$AAu?$AAk?$AA?9?$AAU?$AAA@ 000000018004f3d0     libucrt:lcidtoname_downlevel.obj
 0002:000073e0       ??_C@_1M@OBGLJIPL@?$AAb?$AAe?$AA?9?$AAB?$AAY@ 000000018004f3e0     libucrt:lcidtoname_downlevel.obj
 0002:000073f0       ??_C@_1M@BCFAJEAD@?$AAs?$AAl?$AA?9?$AAS?$AAI@ 000000018004f3f0     libucrt:lcidtoname_downlevel.obj
 0002:00007400       ??_C@_1M@FKFFEDDN@?$AAe?$AAt?$AA?9?$AAE?$AAE@ 000000018004f400     libucrt:lcidtoname_downlevel.obj
 0002:00007410       ??_C@_1M@KGKKAACI@?$AAl?$AAv?$AA?9?$AAL?$AAV@ 000000018004f410     libucrt:lcidtoname_downlevel.obj
 0002:00007420       ??_C@_1M@IFGBIJO@?$AAl?$AAt?$AA?9?$AAL?$AAT@ 000000018004f420     libucrt:lcidtoname_downlevel.obj
 0002:00007430       ??_C@_1M@FGEAHEDM@?$AAf?$AAa?$AA?9?$AAI?$AAR@ 000000018004f430     libucrt:lcidtoname_downlevel.obj
 0002:00007440       ??_C@_1M@KBMAIBFN@?$AAv?$AAi?$AA?9?$AAV?$AAN@ 000000018004f440     libucrt:lcidtoname_downlevel.obj
 0002:00007450       ??_C@_1M@GPCBKDJK@?$AAh?$AAy?$AA?9?$AAA?$AAM@ 000000018004f450     libucrt:lcidtoname_downlevel.obj
 0002:00007460       ??_C@_1BG@BECMDDJB@?$AAa?$AAz?$AA?9?$AAA?$AAZ?$AA?9?$AAL?$AAa?$AAt?$AAn@ 000000018004f460     libucrt:lcidtoname_downlevel.obj
 0002:00007478       ??_C@_1M@MAOFCAEA@?$AAe?$AAu?$AA?9?$AAE?$AAS@ 000000018004f478     libucrt:lcidtoname_downlevel.obj
 0002:00007488       ??_C@_1M@IGHABKPI@?$AAm?$AAk?$AA?9?$AAM?$AAK@ 000000018004f488     libucrt:lcidtoname_downlevel.obj
 0002:00007498       ??_C@_1M@IAIGNEJG@?$AAt?$AAn?$AA?9?$AAZ?$AAA@ 000000018004f498     libucrt:lcidtoname_downlevel.obj
 0002:000074a8       ??_C@_1M@IIJCOJFA@?$AAx?$AAh?$AA?9?$AAZ?$AAA@ 000000018004f4a8     libucrt:lcidtoname_downlevel.obj
 0002:000074b8       ??_C@_1M@LGPJHNJH@?$AAz?$AAu?$AA?9?$AAZ?$AAA@ 000000018004f4b8     libucrt:lcidtoname_downlevel.obj
 0002:000074c8       ??_C@_1M@HOKAOIO@?$AAa?$AAf?$AA?9?$AAZ?$AAA@ 000000018004f4c8     libucrt:lcidtoname_downlevel.obj
 0002:000074d8       ??_C@_1M@DPCLHLIE@?$AAk?$AAa?$AA?9?$AAG?$AAE@ 000000018004f4d8     libucrt:lcidtoname_downlevel.obj
 0002:000074e8       ??_C@_1M@BLKMHJBI@?$AAf?$AAo?$AA?9?$AAF?$AAO@ 000000018004f4e8     libucrt:lcidtoname_downlevel.obj
 0002:000074f8       ??_C@_1M@LGGJAPPB@?$AAh?$AAi?$AA?9?$AAI?$AAN@ 000000018004f4f8     libucrt:lcidtoname_downlevel.obj
 0002:00007508       ??_C@_1M@FIKPIHFE@?$AAm?$AAt?$AA?9?$AAM?$AAT@ 000000018004f508     libucrt:lcidtoname_downlevel.obj
 0002:00007518       ??_C@_1M@HEGGPBFA@?$AAs?$AAe?$AA?9?$AAN?$AAO@ 000000018004f518     libucrt:lcidtoname_downlevel.obj
 0002:00007528       ??_C@_1M@EIBJEEPA@?$AAm?$AAs?$AA?9?$AAM?$AAY@ 000000018004f528     libucrt:lcidtoname_downlevel.obj
 0002:00007538       ??_C@_1M@FHLBGMPP@?$AAk?$AAk?$AA?9?$AAK?$AAZ@ 000000018004f538     libucrt:lcidtoname_downlevel.obj
 0002:00007548       ??_C@_1M@NGJJLCGI@?$AAk?$AAy?$AA?9?$AAK?$AAG@ 000000018004f548     libucrt:lcidtoname_downlevel.obj
 0002:00007558       ??_C@_1M@GIENNBFC@?$AAs?$AAw?$AA?9?$AAK?$AAE@ 000000018004f558     libucrt:lcidtoname_downlevel.obj
 0002:00007568       ??_C@_1BG@NDGMJIMJ@?$AAu?$AAz?$AA?9?$AAU?$AAZ?$AA?9?$AAL?$AAa?$AAt?$AAn@ 000000018004f568     libucrt:lcidtoname_downlevel.obj
 0002:00007580       ??_C@_1M@IDCCIHBC@?$AAt?$AAt?$AA?9?$AAR?$AAU@ 000000018004f580     libucrt:lcidtoname_downlevel.obj
 0002:00007590       ??_C@_1M@LOICPMOJ@?$AAb?$AAn?$AA?9?$AAI?$AAN@ 000000018004f590     libucrt:lcidtoname_downlevel.obj
 0002:000075a0       ??_C@_1M@KPKKNEAH@?$AAp?$AAa?$AA?9?$AAI?$AAN@ 000000018004f5a0     libucrt:lcidtoname_downlevel.obj
 0002:000075b0       ??_C@_1M@PJGPPBOG@?$AAg?$AAu?$AA?9?$AAI?$AAN@ 000000018004f5b0     libucrt:lcidtoname_downlevel.obj
 0002:000075c0       ??_C@_1M@KMKMOPHI@?$AAt?$AAa?$AA?9?$AAI?$AAN@ 000000018004f5c0     libucrt:lcidtoname_downlevel.obj
 0002:000075d0       ??_C@_1M@KFEHEPAC@?$AAt?$AAe?$AA?9?$AAI?$AAN@ 000000018004f5d0     libucrt:lcidtoname_downlevel.obj
 0002:000075e0       ??_C@_1M@CDCLMGHI@?$AAk?$AAn?$AA?9?$AAI?$AAN@ 000000018004f5e0     libucrt:lcidtoname_downlevel.obj
 0002:000075f0       ??_C@_1M@MIODLDKF@?$AAm?$AAl?$AA?9?$AAI?$AAN@ 000000018004f5f0     libucrt:lcidtoname_downlevel.obj
 0002:00007600       ??_C@_1M@PBIEACPO@?$AAm?$AAr?$AA?9?$AAI?$AAN@ 000000018004f600     libucrt:lcidtoname_downlevel.obj
 0002:00007610       ??_C@_1M@NIDEAGPH@?$AAs?$AAa?$AA?9?$AAI?$AAN@ 000000018004f610     libucrt:lcidtoname_downlevel.obj
 0002:00007620       ??_C@_1M@FHIHCBIO@?$AAm?$AAn?$AA?9?$AAM?$AAN@ 000000018004f620     libucrt:lcidtoname_downlevel.obj
 0002:00007630       ??_C@_1M@JAIJPENP@?$AAc?$AAy?$AA?9?$AAG?$AAB@ 000000018004f630     libucrt:lcidtoname_downlevel.obj
 0002:00007640       ??_C@_1M@PHGFBEPN@?$AAg?$AAl?$AA?9?$AAE?$AAS@ 000000018004f640     libucrt:lcidtoname_downlevel.obj
 0002:00007650       ??_C@_1O@KPIPDNCP@?$AAk?$AAo?$AAk?$AA?9?$AAI?$AAN@ 000000018004f650     libucrt:lcidtoname_downlevel.obj
 0002:00007660       ??_C@_1O@KNHJLDJA@?$AAs?$AAy?$AAr?$AA?9?$AAS?$AAY@ 000000018004f660     libucrt:lcidtoname_downlevel.obj
 0002:00007670       ??_C@_1O@MKEKBLAH@?$AAd?$AAi?$AAv?$AA?9?$AAM?$AAV@ 000000018004f670     libucrt:lcidtoname_downlevel.obj
 0002:00007680       ??_C@_1O@OHDCKDDF@?$AAq?$AAu?$AAz?$AA?9?$AAB?$AAO@ 000000018004f680     libucrt:lcidtoname_downlevel.obj
 0002:00007690       ??_C@_1M@LEPJNLFD@?$AAn?$AAs?$AA?9?$AAZ?$AAA@ 000000018004f690     libucrt:lcidtoname_downlevel.obj
 0002:000076a0       ??_C@_1M@OMLEIIJB@?$AAm?$AAi?$AA?9?$AAN?$AAZ@ 000000018004f6a0     libucrt:lcidtoname_downlevel.obj
 0002:000076b0       ??_C@_1M@PMPEAILG@?$AAa?$AAr?$AA?9?$AAI?$AAQ@ 000000018004f6b0     libucrt:lcidtoname_downlevel.obj
 0002:000076c0       ??_C@_1M@CNKPNOEE@?$AAd?$AAe?$AA?9?$AAC?$AAH@ 000000018004f6c0     libucrt:lcidtoname_downlevel.obj
 0002:000076d0       ??_C@_1M@LKMGMLKO@?$AAe?$AAn?$AA?9?$AAG?$AAB@ 000000018004f6d0     libucrt:lcidtoname_downlevel.obj
 0002:000076e0       ??_C@_1M@PGKJFFGL@?$AAe?$AAs?$AA?9?$AAM?$AAX@ 000000018004f6e0     libucrt:lcidtoname_downlevel.obj
 0002:000076f0       ??_C@_1M@DNNANBDC@?$AAf?$AAr?$AA?9?$AAB?$AAE@ 000000018004f6f0     libucrt:lcidtoname_downlevel.obj
 0002:00007700       ??_C@_1M@HLGMDFHM@?$AAi?$AAt?$AA?9?$AAC?$AAH@ 000000018004f700     libucrt:lcidtoname_downlevel.obj
 0002:00007710       ??_C@_1M@CLLBGJH@?$AAn?$AAl?$AA?9?$AAB?$AAE@ 000000018004f710     libucrt:lcidtoname_downlevel.obj
 0002:00007720       ??_C@_1M@BODBOGLF@?$AAn?$AAn?$AA?9?$AAN?$AAO@ 000000018004f720     libucrt:lcidtoname_downlevel.obj
 0002:00007730       ??_C@_1M@HFFAHKAD@?$AAp?$AAt?$AA?9?$AAP?$AAT@ 000000018004f730     libucrt:lcidtoname_downlevel.obj
 0002:00007740       ??_C@_1BG@LNOAKHIE@?$AAs?$AAr?$AA?9?$AAS?$AAP?$AA?9?$AAL?$AAa?$AAt?$AAn@ 000000018004f740     libucrt:lcidtoname_downlevel.obj
 0002:00007758       ??_C@_1M@HBMHBGAK@?$AAs?$AAv?$AA?9?$AAF?$AAI@ 000000018004f758     libucrt:lcidtoname_downlevel.obj
 0002:00007768       ??_C@_1BG@DGCJGJBE@?$AAa?$AAz?$AA?9?$AAA?$AAZ?$AA?9?$AAC?$AAy?$AAr?$AAl@ 000000018004f768     libucrt:lcidtoname_downlevel.obj
 0002:00007780       ??_C@_1M@KEJDAAHB@?$AAs?$AAe?$AA?9?$AAS?$AAE@ 000000018004f780     libucrt:lcidtoname_downlevel.obj
 0002:00007790       ??_C@_1M@HEIBJJAD@?$AAm?$AAs?$AA?9?$AAB?$AAN@ 000000018004f790     libucrt:lcidtoname_downlevel.obj
 0002:000077a0       ??_C@_1BG@PBGJMCEM@?$AAu?$AAz?$AA?9?$AAU?$AAZ?$AA?9?$AAC?$AAy?$AAr?$AAl@ 000000018004f7a0     libucrt:lcidtoname_downlevel.obj
 0002:000077b8       ??_C@_1O@LAOBCMDF@?$AAq?$AAu?$AAz?$AA?9?$AAE?$AAC@ 000000018004f7b8     libucrt:lcidtoname_downlevel.obj
 0002:000077c8       ??_C@_1M@POEEMAIO@?$AAa?$AAr?$AA?9?$AAE?$AAG@ 000000018004f7c8     libucrt:lcidtoname_downlevel.obj
 0002:000077d8       ??_C@_1M@EFAKDEDL@?$AAz?$AAh?$AA?9?$AAH?$AAK@ 000000018004f7d8     libucrt:lcidtoname_downlevel.obj
 0002:000077e8       ??_C@_1M@HKKIJHGI@?$AAd?$AAe?$AA?9?$AAA?$AAT@ 000000018004f7e8     libucrt:lcidtoname_downlevel.obj
 0002:000077f8       ??_C@_1M@KBFBEHJF@?$AAe?$AAn?$AA?9?$AAA?$AAU@ 000000018004f7f8     libucrt:lcidtoname_downlevel.obj
 0002:00007808       ??_C@_1M@MNPLFAAH@?$AAe?$AAs?$AA?9?$AAE?$AAS@ 000000018004f808     libucrt:lcidtoname_downlevel.obj
 0002:00007818       ??_C@_1M@HJOOJFMA@?$AAf?$AAr?$AA?9?$AAC?$AAA@ 000000018004f818     libucrt:lcidtoname_downlevel.obj
 0002:00007828       ??_C@_1BG@JPOFPNAB@?$AAs?$AAr?$AA?9?$AAS?$AAP?$AA?9?$AAC?$AAy?$AAr?$AAl@ 000000018004f828     libucrt:lcidtoname_downlevel.obj
 0002:00007840       ??_C@_1M@LNFOCMOB@?$AAs?$AAe?$AA?9?$AAF?$AAI@ 000000018004f840     libucrt:lcidtoname_downlevel.obj
 0002:00007850       ??_C@_1O@MGJBOAMB@?$AAq?$AAu?$AAz?$AA?9?$AAP?$AAE@ 000000018004f850     libucrt:lcidtoname_downlevel.obj
 0002:00007860       ??_C@_1M@GJINLBOK@?$AAa?$AAr?$AA?9?$AAL?$AAY@ 000000018004f860     libucrt:lcidtoname_downlevel.obj
 0002:00007870       ??_C@_1M@GGMNHJNL@?$AAz?$AAh?$AA?9?$AAS?$AAG@ 000000018004f870     libucrt:lcidtoname_downlevel.obj
 0002:00007880       ??_C@_1M@HOIKODND@?$AAd?$AAe?$AA?9?$AAL?$AAU@ 000000018004f880     libucrt:lcidtoname_downlevel.obj
 0002:00007890       ??_C@_1M@DDOCCGFG@?$AAe?$AAn?$AA?9?$AAC?$AAA@ 000000018004f890     libucrt:lcidtoname_downlevel.obj
 0002:000078a0       ??_C@_1M@BNOEMJLF@?$AAe?$AAs?$AA?9?$AAG?$AAT@ 000000018004f8a0     libucrt:lcidtoname_downlevel.obj
 0002:000078b0       ??_C@_1M@EOGNKEK@?$AAf?$AAr?$AA?9?$AAC?$AAH@ 000000018004f8b0     libucrt:lcidtoname_downlevel.obj
 0002:000078c0       ??_C@_1M@FLIDJFHL@?$AAh?$AAr?$AA?9?$AAB?$AAA@ 000000018004f8c0     libucrt:lcidtoname_downlevel.obj
 0002:000078d0       ??_C@_1O@FMCELNAJ@?$AAs?$AAm?$AAj?$AA?9?$AAN?$AAO@ 000000018004f8d0     libucrt:lcidtoname_downlevel.obj
 0002:000078e0       ??_C@_1M@JHGLJMGJ@?$AAa?$AAr?$AA?9?$AAD?$AAZ@ 000000018004f8e0     libucrt:lcidtoname_downlevel.obj
 0002:000078f0       ??_C@_1M@JKKFDCNP@?$AAz?$AAh?$AA?9?$AAM?$AAO@ 000000018004f8f0     libucrt:lcidtoname_downlevel.obj
 0002:00007900       ??_C@_1M@GEEFALPE@?$AAd?$AAe?$AA?9?$AAL?$AAI@ 000000018004f900     libucrt:lcidtoname_downlevel.obj
 0002:00007910       ??_C@_1M@IGEOFBG@?$AAe?$AAn?$AA?9?$AAN?$AAZ@ 000000018004f910     libucrt:lcidtoname_downlevel.obj
 0002:00007920       ??_C@_1M@KDBONEHP@?$AAe?$AAs?$AA?9?$AAC?$AAR@ 000000018004f920     libucrt:lcidtoname_downlevel.obj
 0002:00007930       ??_C@_1M@FHMDOHNN@?$AAf?$AAr?$AA?9?$AAL?$AAU@ 000000018004f930     libucrt:lcidtoname_downlevel.obj
 0002:00007940       ??_C@_1BG@NFKKMAFG@?$AAb?$AAs?$AA?9?$AAB?$AAA?$AA?9?$AAL?$AAa?$AAt?$AAn@ 000000018004f940     libucrt:lcidtoname_downlevel.obj
 0002:00007958       ??_C@_1O@IMNBEMCI@?$AAs?$AAm?$AAj?$AA?9?$AAS?$AAE@ 000000018004f958     libucrt:lcidtoname_downlevel.obj
 0002:00007968       ??_C@_1M@DHHMBNDP@?$AAa?$AAr?$AA?9?$AAM?$AAA@ 000000018004f968     libucrt:lcidtoname_downlevel.obj
 0002:00007978       ??_C@_1M@BNBLJCGH@?$AAe?$AAn?$AA?9?$AAI?$AAE@ 000000018004f978     libucrt:lcidtoname_downlevel.obj
 0002:00007988       ??_C@_1M@GEPAFMDL@?$AAe?$AAs?$AA?9?$AAP?$AAA@ 000000018004f988     libucrt:lcidtoname_downlevel.obj
 0002:00007998       ??_C@_1M@OJONDMDL@?$AAf?$AAr?$AA?9?$AAM?$AAC@ 000000018004f998     libucrt:lcidtoname_downlevel.obj
 0002:000079a8       ??_C@_1BG@OBCNFJB@?$AAs?$AAr?$AA?9?$AAB?$AAA?$AA?9?$AAL?$AAa?$AAt?$AAn@ 000000018004f9a8     libucrt:lcidtoname_downlevel.obj
 0002:000079c0       ??_C@_1O@KEMEEGPO@?$AAs?$AAm?$AAa?$AA?9?$AAN?$AAO@ 000000018004f9c0     libucrt:lcidtoname_downlevel.obj
 0002:000079d0       ??_C@_1M@ELMGFODK@?$AAa?$AAr?$AA?9?$AAT?$AAN@ 000000018004f9d0     libucrt:lcidtoname_downlevel.obj
 0002:000079e0       ??_C@_1M@BHDLHFAF@?$AAe?$AAn?$AA?9?$AAZ?$AAA@ 000000018004f9e0     libucrt:lcidtoname_downlevel.obj
 0002:000079f0       ??_C@_1M@BMGIGLIF@?$AAe?$AAs?$AA?9?$AAD?$AAO@ 000000018004f9f0     libucrt:lcidtoname_downlevel.obj
 0002:00007a00       ??_C@_1BG@CMBHIPBE@?$AAs?$AAr?$AA?9?$AAB?$AAA?$AA?9?$AAC?$AAy?$AAr?$AAl@ 000000018004fa00     libucrt:lcidtoname_downlevel.obj
 0002:00007a18       ??_C@_1O@HEDBLHNP@?$AAs?$AAm?$AAa?$AA?9?$AAS?$AAE@ 000000018004fa18     libucrt:lcidtoname_downlevel.obj
 0002:00007a28       ??_C@_1M@DAGCADIM@?$AAa?$AAr?$AA?9?$AAO?$AAM@ 000000018004fa28     libucrt:lcidtoname_downlevel.obj
 0002:00007a38       ??_C@_1M@FODLMICG@?$AAe?$AAn?$AA?9?$AAJ?$AAM@ 000000018004fa38     libucrt:lcidtoname_downlevel.obj
 0002:00007a48       ??_C@_1M@DNMLCIHB@?$AAe?$AAs?$AA?9?$AAV?$AAE@ 000000018004fa48     libucrt:lcidtoname_downlevel.obj
 0002:00007a58       ??_C@_1O@EOKHMKJK@?$AAs?$AAm?$AAs?$AA?9?$AAF?$AAI@ 000000018004fa58     libucrt:lcidtoname_downlevel.obj
 0002:00007a68       ??_C@_1M@CAFJMKOF@?$AAa?$AAr?$AA?9?$AAY?$AAE@ 000000018004fa68     libucrt:lcidtoname_downlevel.obj
 0002:00007a78       ??_C@_1M@CBFHIJLI@?$AAe?$AAn?$AA?9?$AAC?$AAB@ 000000018004fa78     libucrt:lcidtoname_downlevel.obj
 0002:00007a88       ??_C@_1M@BGNFLDN@?$AAe?$AAs?$AA?9?$AAC?$AAO@ 000000018004fa88     libucrt:lcidtoname_downlevel.obj
 0002:00007a98       ??_C@_1O@JMPHMAMC@?$AAs?$AAm?$AAn?$AA?9?$AAF?$AAI@ 000000018004fa98     libucrt:lcidtoname_downlevel.obj
 0002:00007aa8       ??_C@_1M@JLANABKE@?$AAa?$AAr?$AA?9?$AAS?$AAY@ 000000018004faa8     libucrt:lcidtoname_downlevel.obj
 0002:00007ab8       ??_C@_1M@HPKGCFGN@?$AAe?$AAn?$AA?9?$AAB?$AAZ@ 000000018004fab8     libucrt:lcidtoname_downlevel.obj
 0002:00007ac8       ??_C@_1M@OLJCMLGM@?$AAe?$AAs?$AA?9?$AAP?$AAE@ 000000018004fac8     libucrt:lcidtoname_downlevel.obj
 0002:00007ad8       ??_C@_1M@MKKGFKLE@?$AAa?$AAr?$AA?9?$AAJ?$AAO@ 000000018004fad8     libucrt:lcidtoname_downlevel.obj
 0002:00007ae8       ??_C@_1M@EKPGLDNI@?$AAe?$AAn?$AA?9?$AAT?$AAT@ 000000018004fae8     libucrt:lcidtoname_downlevel.obj
 0002:00007af8       ??_C@_1M@OONGHFHE@?$AAe?$AAs?$AA?9?$AAA?$AAR@ 000000018004faf8     libucrt:lcidtoname_downlevel.obj
 0002:00007b08       ??_C@_1M@OOJFGBHE@?$AAa?$AAr?$AA?9?$AAL?$AAB@ 000000018004fb08     libucrt:lcidtoname_downlevel.obj
 0002:00007b18       ??_C@_1M@GCEJHNEG@?$AAe?$AAn?$AA?9?$AAZ?$AAW@ 000000018004fb18     libucrt:lcidtoname_downlevel.obj
 0002:00007b28       ??_C@_1M@JNOCAHJI@?$AAe?$AAs?$AA?9?$AAE?$AAC@ 000000018004fb28     libucrt:lcidtoname_downlevel.obj
 0002:00007b38       ??_C@_1M@JEFHPGGB@?$AAa?$AAr?$AA?9?$AAK?$AAW@ 000000018004fb38     libucrt:lcidtoname_downlevel.obj
 0002:00007b48       ??_C@_1M@MLKIBJOJ@?$AAe?$AAn?$AA?9?$AAP?$AAH@ 000000018004fb48     libucrt:lcidtoname_downlevel.obj
 0002:00007b58       ??_C@_1M@BDNIPEND@?$AAe?$AAs?$AA?9?$AAC?$AAL@ 000000018004fb58     libucrt:lcidtoname_downlevel.obj
 0002:00007b68       ??_C@_1M@MPNMEKBD@?$AAa?$AAr?$AA?9?$AAA?$AAE@ 000000018004fb68     libucrt:lcidtoname_downlevel.obj
 0002:00007b78       ??_C@_1M@KBJALCPI@?$AAe?$AAs?$AA?9?$AAU?$AAY@ 000000018004fb78     libucrt:lcidtoname_downlevel.obj
 0002:00007b88       ??_C@_1M@LLCCOAGA@?$AAa?$AAr?$AA?9?$AAB?$AAH@ 000000018004fb88     libucrt:lcidtoname_downlevel.obj
 0002:00007b98       ??_C@_1M@PBFNCDEL@?$AAe?$AAs?$AA?9?$AAP?$AAY@ 000000018004fb98     libucrt:lcidtoname_downlevel.obj
 0002:00007ba8       ??_C@_1M@EDGINPNP@?$AAa?$AAr?$AA?9?$AAQ?$AAA@ 000000018004fba8     libucrt:lcidtoname_downlevel.obj
 0002:00007bb8       ??_C@_1M@MKDBIIJI@?$AAe?$AAs?$AA?9?$AAB?$AAO@ 000000018004fbb8     libucrt:lcidtoname_downlevel.obj
 0002:00007bc8       ??_C@_1M@CPKKEBLD@?$AAe?$AAs?$AA?9?$AAS?$AAV@ 000000018004fbc8     libucrt:lcidtoname_downlevel.obj
 0002:00007bd8       ??_C@_1M@NDBGMMJL@?$AAe?$AAs?$AA?9?$AAH?$AAN@ 000000018004fbd8     libucrt:lcidtoname_downlevel.obj
 0002:00007be8       ??_C@_1M@JIJIBHDP@?$AAe?$AAs?$AA?9?$AAN?$AAI@ 000000018004fbe8     libucrt:lcidtoname_downlevel.obj
 0002:00007bf8       ??_C@_1M@CGFMKEEK@?$AAe?$AAs?$AA?9?$AAP?$AAR@ 000000018004fbf8     libucrt:lcidtoname_downlevel.obj
 0002:00007c08       ??_C@_1O@ICJHKIIK@?$AAz?$AAh?$AA?9?$AAC?$AAH?$AAT@ 000000018004fc08     libucrt:lcidtoname_downlevel.obj
 0002:00007c18       ??_C@_15CLNEJCE@?$AAs?$AAr@ 000000018004fc18     libucrt:lcidtoname_downlevel.obj
 0002:00008a60       ??_C@_1M@KAHEKEIG@?$AAa?$AAf?$AA?9?$AAz?$AAa@ 0000000180050a60     libucrt:lcidtoname_downlevel.obj
 0002:00008a70       ??_C@_1M@GIECOABL@?$AAa?$AAr?$AA?9?$AAa?$AAe@ 0000000180050a70     libucrt:lcidtoname_downlevel.obj
 0002:00008a80       ??_C@_1M@BMLMEKGI@?$AAa?$AAr?$AA?9?$AAb?$AAh@ 0000000180050a80     libucrt:lcidtoname_downlevel.obj
 0002:00008a90       ??_C@_1M@DAPFDGGB@?$AAa?$AAr?$AA?9?$AAd?$AAz@ 0000000180050a90     libucrt:lcidtoname_downlevel.obj
 0002:00008aa0       ??_C@_1M@FJNKGKIG@?$AAa?$AAr?$AA?9?$AAe?$AAg@ 0000000180050aa0     libucrt:lcidtoname_downlevel.obj
 0002:00008ab0       ??_C@_1M@FLGKKCLO@?$AAa?$AAr?$AA?9?$AAi?$AAq@ 0000000180050ab0     libucrt:lcidtoname_downlevel.obj
 0002:00008ac0       ??_C@_1M@GNDIPALM@?$AAa?$AAr?$AA?9?$AAj?$AAo@ 0000000180050ac0     libucrt:lcidtoname_downlevel.obj
 0002:00008ad0       ??_C@_1M@DDMJFMGJ@?$AAa?$AAr?$AA?9?$AAk?$AAw@ 0000000180050ad0     libucrt:lcidtoname_downlevel.obj
 0002:00008ae0       ??_C@_1M@EJALMLHM@?$AAa?$AAr?$AA?9?$AAl?$AAb@ 0000000180050ae0     libucrt:lcidtoname_downlevel.obj
 0002:00008af0       ??_C@_1M@MOBDBLOC@?$AAa?$AAr?$AA?9?$AAl?$AAy@ 0000000180050af0     libucrt:lcidtoname_downlevel.obj
 0002:00008b00       ??_C@_1M@JAOCLHDH@?$AAa?$AAr?$AA?9?$AAm?$AAa@ 0000000180050b00     libucrt:lcidtoname_downlevel.obj
 0002:00008b10       ??_C@_1M@JHPMKJIE@?$AAa?$AAr?$AA?9?$AAo?$AAm@ 0000000180050b10     libucrt:lcidtoname_downlevel.obj
 0002:00008b20       ??_C@_1M@OEPGHFNH@?$AAa?$AAr?$AA?9?$AAq?$AAa@ 0000000180050b20     libucrt:lcidtoname_downlevel.obj
 0002:00008b30       ??_C@_1M@KJDONENM@?$AAa?$AAr?$AA?9?$AAs?$AAa@ 0000000180050b30     libucrt:lcidtoname_downlevel.obj
 0002:00008b40       ??_C@_1M@DMJDKLKM@?$AAa?$AAr?$AA?9?$AAs?$AAy@ 0000000180050b40     libucrt:lcidtoname_downlevel.obj
 0002:00008b50       ??_C@_1M@OMFIPEDC@?$AAa?$AAr?$AA?9?$AAt?$AAn@ 0000000180050b50     libucrt:lcidtoname_downlevel.obj
 0002:00008b60       ??_C@_1M@IHMHGAON@?$AAa?$AAr?$AA?9?$AAy?$AAe@ 0000000180050b60     libucrt:lcidtoname_downlevel.obj
 0002:00008b70       ??_C@_1BG@KDCPGJGB@?$AAa?$AAz?$AA?9?$AAa?$AAz?$AA?9?$AAc?$AAy?$AAr?$AAl@ 0000000180050b70     libucrt:lcidtoname_downlevel.obj
 0002:00008b88       ??_C@_1BG@IBCKDDOE@?$AAa?$AAz?$AA?9?$AAa?$AAz?$AA?9?$AAl?$AAa?$AAt?$AAn@ 0000000180050b88     libucrt:lcidtoname_downlevel.obj
 0002:00008ba0       ??_C@_1M@EGPFDCPD@?$AAb?$AAe?$AA?9?$AAb?$AAy@ 0000000180050ba0     libucrt:lcidtoname_downlevel.obj
 0002:00008bb0       ??_C@_1M@PCMGMCGC@?$AAb?$AAg?$AA?9?$AAb?$AAg@ 0000000180050bb0     libucrt:lcidtoname_downlevel.obj
 0002:00008bc0       ??_C@_1M@BJBMFGOB@?$AAb?$AAn?$AA?9?$AAi?$AAn@ 0000000180050bc0     libucrt:lcidtoname_downlevel.obj
 0002:00008bd0       ??_C@_1BG@EAKMMACD@?$AAb?$AAs?$AA?9?$AAb?$AAa?$AA?9?$AAl?$AAa?$AAt?$AAn@ 0000000180050bd0     libucrt:lcidtoname_downlevel.obj
 0002:00008be8       ??_C@_1M@KGADAODK@?$AAc?$AAa?$AA?9?$AAe?$AAs@ 0000000180050be8     libucrt:lcidtoname_downlevel.obj
 0002:00008bf8       ??_C@_1M@COAJPDHI@?$AAc?$AAs?$AA?9?$AAc?$AAz@ 0000000180050bf8     libucrt:lcidtoname_downlevel.obj
 0002:00008c08       ??_C@_1M@DHBHFONH@?$AAc?$AAy?$AA?9?$AAg?$AAb@ 0000000180050c08     libucrt:lcidtoname_downlevel.obj
 0002:00008c18       ??_C@_1M@IMGKELGA@?$AAd?$AAa?$AA?9?$AAd?$AAk@ 0000000180050c18     libucrt:lcidtoname_downlevel.obj
 0002:00008c28       ??_C@_1M@NNDGDNGA@?$AAd?$AAe?$AA?9?$AAa?$AAt@ 0000000180050c28     libucrt:lcidtoname_downlevel.obj
 0002:00008c38       ??_C@_1M@IKDBHEEM@?$AAd?$AAe?$AA?9?$AAc?$AAh@ 0000000180050c38     libucrt:lcidtoname_downlevel.obj
 0002:00008c48       ??_C@_1M@GFFOJMCJ@?$AAd?$AAe?$AA?9?$AAd?$AAe@ 0000000180050c48     libucrt:lcidtoname_downlevel.obj
 0002:00008c58       ??_C@_1M@MDNLKBPM@?$AAd?$AAe?$AA?9?$AAl?$AAi@ 0000000180050c58     libucrt:lcidtoname_downlevel.obj
 0002:00008c68       ??_C@_1M@NJBEEJNL@?$AAd?$AAe?$AA?9?$AAl?$AAu@ 0000000180050c68     libucrt:lcidtoname_downlevel.obj
 0002:00008c78       ??_C@_1O@GNNELBAP@?$AAd?$AAi?$AAv?$AA?9?$AAm?$AAv@ 0000000180050c78     libucrt:lcidtoname_downlevel.obj
 0002:00008c88       ??_C@_1M@EJLEOGAE@?$AAe?$AAl?$AA?9?$AAg?$AAr@ 0000000180050c88     libucrt:lcidtoname_downlevel.obj
 0002:00008c98       ??_C@_1M@GMPONJN@?$AAe?$AAn?$AA?9?$AAa?$AAu@ 0000000180050c98     libucrt:lcidtoname_downlevel.obj
 0002:00008ca8       ??_C@_1M@NIDIIPGF@?$AAe?$AAn?$AA?9?$AAb?$AAz@ 0000000180050ca8     libucrt:lcidtoname_downlevel.obj
 0002:00008cb8       ??_C@_1M@JEHMIMFO@?$AAe?$AAn?$AA?9?$AAc?$AAa@ 0000000180050cb8     libucrt:lcidtoname_downlevel.obj
 0002:00008cc8       ??_C@_1M@IGMJCDLA@?$AAe?$AAn?$AA?9?$AAc?$AAb@ 0000000180050cc8     libucrt:lcidtoname_downlevel.obj
 0002:00008cd8       ??_C@_1M@BNFIGBKG@?$AAe?$AAn?$AA?9?$AAg?$AAb@ 0000000180050cd8     libucrt:lcidtoname_downlevel.obj
 0002:00008ce8       ??_C@_1M@LKIFDIGP@?$AAe?$AAn?$AA?9?$AAi?$AAe@ 0000000180050ce8     libucrt:lcidtoname_downlevel.obj
 0002:00008cf8       ??_C@_1M@PJKFGCCO@?$AAe?$AAn?$AA?9?$AAj?$AAm@ 0000000180050cf8     libucrt:lcidtoname_downlevel.obj
 0002:00008d08       ??_C@_1M@KPPKEPBO@?$AAe?$AAn?$AA?9?$AAn?$AAz@ 0000000180050d08     libucrt:lcidtoname_downlevel.obj
 0002:00008d18       ??_C@_1M@GMDGLDOB@?$AAe?$AAn?$AA?9?$AAp?$AAh@ 0000000180050d18     libucrt:lcidtoname_downlevel.obj
 0002:00008d28       ??_C@_1M@ONGIBJNA@?$AAe?$AAn?$AA?9?$AAt?$AAt@ 0000000180050d28     libucrt:lcidtoname_downlevel.obj
 0002:00008d38       ??_C@_1M@LLODPCMM@?$AAe?$AAn?$AA?9?$AAu?$AAs@ 0000000180050d38     libucrt:lcidtoname_downlevel.obj
 0002:00008d48       ??_C@_1M@LAKFNPAN@?$AAe?$AAn?$AA?9?$AAz?$AAa@ 0000000180050d48     libucrt:lcidtoname_downlevel.obj
 0002:00008d58       ??_C@_1M@MFNHNHEO@?$AAe?$AAn?$AA?9?$AAz?$AAw@ 0000000180050d58     libucrt:lcidtoname_downlevel.obj
 0002:00008d68       ??_C@_1M@EJEINPHM@?$AAe?$AAs?$AA?9?$AAa?$AAr@ 0000000180050d68     libucrt:lcidtoname_downlevel.obj
 0002:00008d78       ??_C@_1M@GNKPCCJA@?$AAe?$AAs?$AA?9?$AAb?$AAo@ 0000000180050d78     libucrt:lcidtoname_downlevel.obj
 0002:00008d88       ??_C@_1M@LEEGFONL@?$AAe?$AAs?$AA?9?$AAc?$AAl@ 0000000180050d88     libucrt:lcidtoname_downlevel.obj
 0002:00008d98       ??_C@_1M@KGPDPBDF@?$AAe?$AAs?$AA?9?$AAc?$AAo@ 0000000180050d98     libucrt:lcidtoname_downlevel.obj
 0002:00008da8       ??_C@_1M@EIAHOHH@?$AAe?$AAs?$AA?9?$AAc?$AAr@ 0000000180050da8     libucrt:lcidtoname_downlevel.obj
 0002:00008db8       ??_C@_1M@LLPGMBIN@?$AAe?$AAs?$AA?9?$AAd?$AAo@ 0000000180050db8     libucrt:lcidtoname_downlevel.obj
 0002:00008dc8       ??_C@_1M@DKHMKNJA@?$AAe?$AAs?$AA?9?$AAe?$AAc@ 0000000180050dc8     libucrt:lcidtoname_downlevel.obj
 0002:00008dd8       ??_C@_1M@GKGFPKAP@?$AAe?$AAs?$AA?9?$AAe?$AAs@ 0000000180050dd8     libucrt:lcidtoname_downlevel.obj
 0002:00008de8       ??_C@_1M@LKHKGDLN@?$AAe?$AAs?$AA?9?$AAg?$AAt@ 0000000180050de8     libucrt:lcidtoname_downlevel.obj
 0002:00008df8       ??_C@_1M@HEIIGGJD@?$AAe?$AAs?$AA?9?$AAh?$AAn@ 0000000180050df8     libucrt:lcidtoname_downlevel.obj
 0002:00008e08       ??_C@_1M@FBDHPPGD@?$AAe?$AAs?$AA?9?$AAm?$AAx@ 0000000180050e08     libucrt:lcidtoname_downlevel.obj
 0002:00008e18       ??_C@_1M@DPAGLNDH@?$AAe?$AAs?$AA?9?$AAn?$AAi@ 0000000180050e18     libucrt:lcidtoname_downlevel.obj
 0002:00008e28       ??_C@_1M@MDGOPGDD@?$AAe?$AAs?$AA?9?$AAp?$AAa@ 0000000180050e28     libucrt:lcidtoname_downlevel.obj
 0002:00008e38       ??_C@_1M@EMAMGBGE@?$AAe?$AAs?$AA?9?$AAp?$AAe@ 0000000180050e38     libucrt:lcidtoname_downlevel.obj
 0002:00008e48       ??_C@_1M@IBMCAOEC@?$AAe?$AAs?$AA?9?$AAp?$AAr@ 0000000180050e48     libucrt:lcidtoname_downlevel.obj
 0002:00008e58       ??_C@_1M@FGMDIJED@?$AAe?$AAs?$AA?9?$AAp?$AAy@ 0000000180050e58     libucrt:lcidtoname_downlevel.obj
 0002:00008e68       ??_C@_1M@IIDEOLLL@?$AAe?$AAs?$AA?9?$AAs?$AAv@ 0000000180050e68     libucrt:lcidtoname_downlevel.obj
 0002:00008e78       ??_C@_1M@GAOBIPA@?$AAe?$AAs?$AA?9?$AAu?$AAy@ 0000000180050e78     libucrt:lcidtoname_downlevel.obj
 0002:00008e88       ??_C@_1M@JKFFICHJ@?$AAe?$AAs?$AA?9?$AAv?$AAe@ 0000000180050e88     libucrt:lcidtoname_downlevel.obj
 0002:00008e98       ??_C@_1M@PNMLOJDF@?$AAe?$AAt?$AA?9?$AAe?$AAe@ 0000000180050e98     libucrt:lcidtoname_downlevel.obj
 0002:00008ea8       ??_C@_1M@GHHLIKEI@?$AAe?$AAu?$AA?9?$AAe?$AAs@ 0000000180050ea8     libucrt:lcidtoname_downlevel.obj
 0002:00008eb8       ??_C@_1M@PBNONODE@?$AAf?$AAa?$AA?9?$AAi?$AAr@ 0000000180050eb8     libucrt:lcidtoname_downlevel.obj
 0002:00008ec8       ??_C@_1M@JEEHPMIL@?$AAf?$AAi?$AA?9?$AAf?$AAi@ 0000000180050ec8     libucrt:lcidtoname_downlevel.obj
 0002:00008ed8       ??_C@_1M@LMDCNDBA@?$AAf?$AAo?$AA?9?$AAf?$AAo@ 0000000180050ed8     libucrt:lcidtoname_downlevel.obj
 0002:00008ee8       ??_C@_1M@JKEOHLDK@?$AAf?$AAr?$AA?9?$AAb?$AAe@ 0000000180050ee8     libucrt:lcidtoname_downlevel.obj
 0002:00008ef8       ??_C@_1M@NOHADPMI@?$AAf?$AAr?$AA?9?$AAc?$AAa@ 0000000180050ef8     libucrt:lcidtoname_downlevel.obj
 0002:00008f08       ??_C@_1M@KDHIHAEC@?$AAf?$AAr?$AA?9?$AAc?$AAh@ 0000000180050f08     libucrt:lcidtoname_downlevel.obj
 0002:00008f18       ??_C@_1M@MMBBFGAK@?$AAf?$AAr?$AA?9?$AAf?$AAr@ 0000000180050f18     libucrt:lcidtoname_downlevel.obj
 0002:00008f28       ??_C@_1M@PAFNENNF@?$AAf?$AAr?$AA?9?$AAl?$AAu@ 0000000180050f28     libucrt:lcidtoname_downlevel.obj
 0002:00008f38       ??_C@_1M@EOHDJGDD@?$AAf?$AAr?$AA?9?$AAm?$AAc@ 0000000180050f38     libucrt:lcidtoname_downlevel.obj
 0002:00008f48       ??_C@_1M@FAPLLOPF@?$AAg?$AAl?$AA?9?$AAe?$AAs@ 0000000180050f48     libucrt:lcidtoname_downlevel.obj
 0002:00008f58       ??_C@_1M@FOPBFLOO@?$AAg?$AAu?$AA?9?$AAi?$AAn@ 0000000180050f58     libucrt:lcidtoname_downlevel.obj
 0002:00008f68       ??_C@_1M@KBMCINPM@?$AAh?$AAe?$AA?9?$AAi?$AAl@ 0000000180050f68     libucrt:lcidtoname_downlevel.obj
 0002:00008f78       ??_C@_1M@BBPHKFPJ@?$AAh?$AAi?$AA?9?$AAi?$AAn@ 0000000180050f78     libucrt:lcidtoname_downlevel.obj
 0002:00008f88       ??_C@_1M@PMBNDPHD@?$AAh?$AAr?$AA?9?$AAb?$AAa@ 0000000180050f88     libucrt:lcidtoname_downlevel.obj
 0002:00008f98       ??_C@_1M@BPCKOEGE@?$AAh?$AAr?$AA?9?$AAh?$AAr@ 0000000180050f98     libucrt:lcidtoname_downlevel.obj
 0002:00008fa8       ??_C@_1M@GACBMHKE@?$AAh?$AAu?$AA?9?$AAh?$AAu@ 0000000180050fa8     libucrt:lcidtoname_downlevel.obj
 0002:00008fb8       ??_C@_1M@MILPAJJC@?$AAh?$AAy?$AA?9?$AAa?$AAm@ 0000000180050fb8     libucrt:lcidtoname_downlevel.obj
 0002:00008fc8       ??_C@_1M@BABBICEC@?$AAi?$AAd?$AA?9?$AAi?$AAd@ 0000000180050fc8     libucrt:lcidtoname_downlevel.obj
 0002:00008fd8       ??_C@_1M@BIKNHHPF@?$AAi?$AAs?$AA?9?$AAi?$AAs@ 0000000180050fd8     libucrt:lcidtoname_downlevel.obj
 0002:00008fe8       ??_C@_1M@NMPCJPHE@?$AAi?$AAt?$AA?9?$AAc?$AAh@ 0000000180050fe8     libucrt:lcidtoname_downlevel.obj
 0002:00008ff8       ??_C@_1M@GHKGFEDF@?$AAi?$AAt?$AA?9?$AAi?$AAt@ 0000000180050ff8     libucrt:lcidtoname_downlevel.obj
 0002:00009008       ??_C@_1M@NIEJCJJA@?$AAj?$AAa?$AA?9?$AAj?$AAp@ 0000000180051008     libucrt:lcidtoname_downlevel.obj
 0002:00009018       ??_C@_1M@JILFNBIM@?$AAk?$AAa?$AA?9?$AAg?$AAe@ 0000000180051018     libucrt:lcidtoname_downlevel.obj
 0002:00009028       ??_C@_1M@PACPMGPH@?$AAk?$AAk?$AA?9?$AAk?$AAz@ 0000000180051028     libucrt:lcidtoname_downlevel.obj
 0002:00009038       ??_C@_1M@IELFGMHA@?$AAk?$AAn?$AA?9?$AAi?$AAn@ 0000000180051038     libucrt:lcidtoname_downlevel.obj
 0002:00009048       ??_C@_1O@IBBJHCH@?$AAk?$AAo?$AAk?$AA?9?$AAi?$AAn@ 0000000180051048     libucrt:lcidtoname_downlevel.obj
 0002:00009058       ??_C@_1M@DMHAEOGC@?$AAk?$AAo?$AA?9?$AAk?$AAr@ 0000000180051058     libucrt:lcidtoname_downlevel.obj
 0002:00009068       ??_C@_1M@HBAHBIGA@?$AAk?$AAy?$AA?9?$AAk?$AAg@ 0000000180051068     libucrt:lcidtoname_downlevel.obj
 0002:00009078       ??_C@_1M@KPMILCJG@?$AAl?$AAt?$AA?9?$AAl?$AAt@ 0000000180051078     libucrt:lcidtoname_downlevel.obj
 0002:00009088       ??_C@_1M@BDEKKCA@?$AAl?$AAv?$AA?9?$AAl?$AAv@ 0000000180051088     libucrt:lcidtoname_downlevel.obj
 0002:00009098       ??_C@_1M@ELCKCCJJ@?$AAm?$AAi?$AA?9?$AAn?$AAz@ 0000000180051098     libucrt:lcidtoname_downlevel.obj
 0002:000090a8       ??_C@_1M@CBOOLAPA@?$AAm?$AAk?$AA?9?$AAm?$AAk@ 00000001800510a8     libucrt:lcidtoname_downlevel.obj
 0002:000090b8       ??_C@_1M@GPHNBJKN@?$AAm?$AAl?$AA?9?$AAi?$AAn@ 00000001800510b8     libucrt:lcidtoname_downlevel.obj
 0002:000090c8       ??_C@_1M@PABJILIG@?$AAm?$AAn?$AA?9?$AAm?$AAn@ 00000001800510c8     libucrt:lcidtoname_downlevel.obj
 0002:000090d8       ??_C@_1M@FGBKKIPG@?$AAm?$AAr?$AA?9?$AAi?$AAn@ 00000001800510d8     libucrt:lcidtoname_downlevel.obj
 0002:000090e8       ??_C@_1M@NDBPDDAL@?$AAm?$AAs?$AA?9?$AAb?$AAn@ 00000001800510e8     libucrt:lcidtoname_downlevel.obj
 0002:000090f8       ??_C@_1M@OPIHOOPI@?$AAm?$AAs?$AA?9?$AAm?$AAy@ 00000001800510f8     libucrt:lcidtoname_downlevel.obj
 0002:00009108       ??_C@_1M@PPDBCNFM@?$AAm?$AAt?$AA?9?$AAm?$AAt@ 0000000180051108     libucrt:lcidtoname_downlevel.obj
 0002:00009118       ??_C@_1M@KDJDKMDD@?$AAn?$AAb?$AA?9?$AAn?$AAo@ 0000000180051118     libucrt:lcidtoname_downlevel.obj
 0002:00009128       ??_C@_1M@KFCFLMJP@?$AAn?$AAl?$AA?9?$AAb?$AAe@ 0000000180051128     libucrt:lcidtoname_downlevel.obj
 0002:00009138       ??_C@_1M@KPOPDDGO@?$AAn?$AAl?$AA?9?$AAn?$AAl@ 0000000180051138     libucrt:lcidtoname_downlevel.obj
 0002:00009148       ??_C@_1M@LJKPEMLN@?$AAn?$AAn?$AA?9?$AAn?$AAo@ 0000000180051148     libucrt:lcidtoname_downlevel.obj
 0002:00009158       ??_C@_1M@BDGHHBFL@?$AAn?$AAs?$AA?9?$AAz?$AAa@ 0000000180051158     libucrt:lcidtoname_downlevel.obj
 0002:00009168       ??_C@_1M@IDEHOAP@?$AAp?$AAa?$AA?9?$AAi?$AAn@ 0000000180051168     libucrt:lcidtoname_downlevel.obj
 0002:00009178       ??_C@_1M@HDBKGOGH@?$AAp?$AAl?$AA?9?$AAp?$AAl@ 0000000180051178     libucrt:lcidtoname_downlevel.obj
 0002:00009188       ??_C@_1M@LJLLCMEH@?$AAp?$AAt?$AA?9?$AAb?$AAr@ 0000000180051188     libucrt:lcidtoname_downlevel.obj
 0002:00009198       ??_C@_1M@NCMONAAL@?$AAp?$AAt?$AA?9?$AAp?$AAt@ 0000000180051198     libucrt:lcidtoname_downlevel.obj
 0002:000091a8       ??_C@_1O@EAKMAJDN@?$AAq?$AAu?$AAz?$AA?9?$AAb?$AAo@ 00000001800511a8     libucrt:lcidtoname_downlevel.obj
 0002:000091b8       ??_C@_1O@BHHPIGDN@?$AAq?$AAu?$AAz?$AA?9?$AAe?$AAc@ 00000001800511b8     libucrt:lcidtoname_downlevel.obj
 0002:000091c8       ??_C@_1O@GBAPEKMJ@?$AAq?$AAu?$AAz?$AA?9?$AAp?$AAe@ 00000001800511c8     libucrt:lcidtoname_downlevel.obj
 0002:000091d8       ??_C@_1M@CLGLEFBO@?$AAr?$AAo?$AA?9?$AAr?$AAo@ 00000001800511d8     libucrt:lcidtoname_downlevel.obj
 0002:000091e8       ??_C@_1M@CEEDODME@?$AAr?$AAu?$AA?9?$AAr?$AAu@ 00000001800511e8     libucrt:lcidtoname_downlevel.obj
 0002:000091f8       ??_C@_1M@HPKKKMPP@?$AAs?$AAa?$AA?9?$AAi?$AAn@ 00000001800511f8     libucrt:lcidtoname_downlevel.obj
 0002:00009208       ??_C@_1M@BKMAIGOJ@?$AAs?$AAe?$AA?9?$AAf?$AAi@ 0000000180051208     libucrt:lcidtoname_downlevel.obj
 0002:00009218       ??_C@_1M@NDPIFLFI@?$AAs?$AAe?$AA?9?$AAn?$AAo@ 0000000180051218     libucrt:lcidtoname_downlevel.obj
 0002:00009228       ??_C@_1M@DANKKHJ@?$AAs?$AAe?$AA?9?$AAs?$AAe@ 0000000180051228     libucrt:lcidtoname_downlevel.obj
 0002:00009238       ??_C@_1M@PNBLONPJ@?$AAs?$AAk?$AA?9?$AAs?$AAk@ 0000000180051238     libucrt:lcidtoname_downlevel.obj
 0002:00009248       ??_C@_1M@LFMODOAL@?$AAs?$AAl?$AA?9?$AAs?$AAi@ 0000000180051248     libucrt:lcidtoname_downlevel.obj
 0002:00009258       ??_C@_1O@DFKOMPG@?$AAs?$AAm?$AAa?$AA?9?$AAn?$AAo@ 0000000180051258     libucrt:lcidtoname_downlevel.obj
 0002:00009268       ??_C@_1O@NDKPBNNH@?$AAs?$AAm?$AAa?$AA?9?$AAs?$AAe@ 0000000180051268     libucrt:lcidtoname_downlevel.obj
 0002:00009278       ??_C@_1O@PLLKBHAB@?$AAs?$AAm?$AAj?$AA?9?$AAn?$AAo@ 0000000180051278     libucrt:lcidtoname_downlevel.obj
 0002:00009288       ??_C@_1O@CLEPOGCA@?$AAs?$AAm?$AAj?$AA?9?$AAs?$AAe@ 0000000180051288     libucrt:lcidtoname_downlevel.obj
 0002:00009298       ??_C@_1O@DLGJGKMK@?$AAs?$AAm?$AAn?$AA?9?$AAf?$AAi@ 0000000180051298     libucrt:lcidtoname_downlevel.obj
 0002:000092a8       ??_C@_1O@OJDJGAJC@?$AAs?$AAm?$AAs?$AA?9?$AAf?$AAi@ 00000001800512a8     libucrt:lcidtoname_downlevel.obj
 0002:000092b8       ??_C@_1M@BOFOGHPB@?$AAs?$AAq?$AA?9?$AAa?$AAl@ 00000001800512b8     libucrt:lcidtoname_downlevel.obj
 0002:000092c8       ??_C@_1BG@LJBBIPGB@?$AAs?$AAr?$AA?9?$AAb?$AAa?$AA?9?$AAc?$AAy?$AAr?$AAl@ 00000001800512c8     libucrt:lcidtoname_downlevel.obj
 0002:000092e0       ??_C@_1BG@JLBENFOE@?$AAs?$AAr?$AA?9?$AAb?$AAa?$AA?9?$AAl?$AAa?$AAt?$AAn@ 00000001800512e0     libucrt:lcidtoname_downlevel.obj
 0002:000092f8       ??_C@_1BG@KODPNHE@?$AAs?$AAr?$AA?9?$AAs?$AAp?$AA?9?$AAc?$AAy?$AAr?$AAl@ 00000001800512f8     libucrt:lcidtoname_downlevel.obj
 0002:00009310       ??_C@_1BG@CIOGKHPB@?$AAs?$AAr?$AA?9?$AAs?$AAp?$AA?9?$AAl?$AAa?$AAt?$AAn@ 0000000180051310     libucrt:lcidtoname_downlevel.obj
 0002:00009328       ??_C@_1M@NGFJLMAC@?$AAs?$AAv?$AA?9?$AAf?$AAi@ 0000000180051328     libucrt:lcidtoname_downlevel.obj
 0002:00009338       ??_C@_1M@MPJEJAJC@?$AAs?$AAv?$AA?9?$AAs?$AAe@ 0000000180051338     libucrt:lcidtoname_downlevel.obj
 0002:00009348       ??_C@_1M@MPNDHLFK@?$AAs?$AAw?$AA?9?$AAk?$AAe@ 0000000180051348     libucrt:lcidtoname_downlevel.obj
 0002:00009358       ??_C@_1O@KOHBJJI@?$AAs?$AAy?$AAr?$AA?9?$AAs?$AAy@ 0000000180051358     libucrt:lcidtoname_downlevel.obj
 0002:00009368       ??_C@_1M@LDCEFHA@?$AAt?$AAa?$AA?9?$AAi?$AAn@ 0000000180051368     libucrt:lcidtoname_downlevel.obj
 0002:00009378       ??_C@_1M@CNJOFAK@?$AAt?$AAe?$AA?9?$AAi?$AAn@ 0000000180051378     libucrt:lcidtoname_downlevel.obj
 0002:00009388       ??_C@_1M@GNAECACD@?$AAt?$AAh?$AA?9?$AAt?$AAh@ 0000000180051388     libucrt:lcidtoname_downlevel.obj
 0002:00009398       ??_C@_1M@CHBIHOJO@?$AAt?$AAn?$AA?9?$AAz?$AAa@ 0000000180051398     libucrt:lcidtoname_downlevel.obj
 0002:000093a8       ??_C@_1M@GCCMIGPJ@?$AAt?$AAr?$AA?9?$AAt?$AAr@ 00000001800513a8     libucrt:lcidtoname_downlevel.obj
 0002:000093b8       ??_C@_1M@CELMCNBK@?$AAt?$AAt?$AA?9?$AAr?$AAu@ 00000001800513b8     libucrt:lcidtoname_downlevel.obj
 0002:000093c8       ??_C@_1M@KLMCELGA@?$AAu?$AAk?$AA?9?$AAu?$AAa@ 00000001800513c8     libucrt:lcidtoname_downlevel.obj
 0002:000093d8       ??_C@_1M@EPAJJAJF@?$AAu?$AAr?$AA?9?$AAp?$AAk@ 00000001800513d8     libucrt:lcidtoname_downlevel.obj
 0002:000093e8       ??_C@_1BG@GEGPMCDJ@?$AAu?$AAz?$AA?9?$AAu?$AAz?$AA?9?$AAc?$AAy?$AAr?$AAl@ 00000001800513e8     libucrt:lcidtoname_downlevel.obj
 0002:00009400       ??_C@_1BG@EGGKJILM@?$AAu?$AAz?$AA?9?$AAu?$AAz?$AA?9?$AAl?$AAa?$AAt?$AAn@ 0000000180051400     libucrt:lcidtoname_downlevel.obj
 0002:00009418       ??_C@_1M@GFOCLFF@?$AAv?$AAi?$AA?9?$AAv?$AAn@ 0000000180051418     libucrt:lcidtoname_downlevel.obj
 0002:00009428       ??_C@_1M@CPAMEDFI@?$AAx?$AAh?$AA?9?$AAz?$AAa@ 0000000180051428     libucrt:lcidtoname_downlevel.obj
 0002:00009438       ??_C@_1O@EBKIFIGN@?$AAz?$AAh?$AA?9?$AAc?$AAh?$AAs@ 0000000180051438     libucrt:lcidtoname_downlevel.obj
 0002:00009448       ??_C@_1O@NMHPGANE@?$AAz?$AAh?$AA?9?$AAc?$AAh?$AAt@ 0000000180051448     libucrt:lcidtoname_downlevel.obj
 0002:00009458       ??_C@_1M@LPINJOMC@?$AAz?$AAh?$AA?9?$AAc?$AAn@ 0000000180051458     libucrt:lcidtoname_downlevel.obj
 0002:00009468       ??_C@_1M@OCJEJODD@?$AAz?$AAh?$AA?9?$AAh?$AAk@ 0000000180051468     libucrt:lcidtoname_downlevel.obj
 0002:00009478       ??_C@_1M@DNDLJINH@?$AAz?$AAh?$AA?9?$AAm?$AAo@ 0000000180051478     libucrt:lcidtoname_downlevel.obj
 0002:00009488       ??_C@_1M@MBFDNDND@?$AAz?$AAh?$AA?9?$AAs?$AAg@ 0000000180051488     libucrt:lcidtoname_downlevel.obj
 0002:00009498       ??_C@_1M@IMEPLEPE@?$AAz?$AAh?$AA?9?$AAt?$AAw@ 0000000180051498     libucrt:lcidtoname_downlevel.obj
 0002:000094a8       ??_C@_1M@BBGHNHJP@?$AAz?$AAu?$AA?9?$AAz?$AAa@ 00000001800514a8     libucrt:lcidtoname_downlevel.obj
 0002:000094e0       ?large_power_data@?1??multiply_by_power_of_ten@__crt_strtox@@YA_NAEAUbig_integer@2@I@Z@4QBIB 00000001800514e0     libucrt:cfout.obj
 0002:00009df0       ?large_power_indices@?1??multiply_by_power_of_ten@__crt_strtox@@YA_NAEAUbig_integer@2@I@Z@4QBUunpack_index@?1??12@YA_N0I@Z@B 0000000180051df0     libucrt:cfout.obj
 0002:00009e88       ?small_powers_of_ten@?1??multiply_by_power_of_ten@__crt_strtox@@YA_NAEAUbig_integer@2@I@Z@4QBIB 0000000180051e88     libucrt:cfout.obj
 0002:00009eac       ??_C@_01GBGANLPD@0@        0000000180051eac     libucrt:cfout.obj
 0002:00009eb0       ??_C@_05DNEBIAHO@1?$CDINF@ 0000000180051eb0     libucrt:cfout.obj
 0002:00009eb8       ??_C@_06IMKFLFPG@1?$CDQNAN@ 0000000180051eb8     libucrt:cfout.obj
 0002:00009ec0       ??_C@_06PGGFOGJG@1?$CDSNAN@ 0000000180051ec0     libucrt:cfout.obj
 0002:00009ec8       ??_C@_05PHHOCPM@1?$CDIND@  0000000180051ec8     libucrt:cfout.obj
 0002:0000a120       ??_C@_1BA@BALFACEM@?$AAC?$AAO?$AAN?$AAO?$AAU?$AAT?$AA$@ 0000000180052120     libucrt:initcon.obj
 0002:0000a130       __log10_256_lead           0000000180052130     libucrt:log10_256_lead_tail_table.obj
 0002:0000a940       __log10_256_tail           0000000180052940     libucrt:log10_256_lead_tail_table.obj
 0002:0000b150       __log_F_inv_qword          0000000180053150     libucrt:log_f_inv_qword_table.obj
 0002:0000ba00       ??_R4type_info@@6B@        0000000180053a00     LIBCMT:std_type_info_static.obj
 0002:0000ba28       ??_R3type_info@@8          0000000180053a28     LIBCMT:std_type_info_static.obj
 0002:0000ba40       ??_R2type_info@@8          0000000180053a40     LIBCMT:std_type_info_static.obj
 0002:0000ba50       ??_R1A@?0A@EA@type_info@@8 0000000180053a50     LIBCMT:std_type_info_static.obj
 0002:0000ba78       ??_R3DNameNode@@8          0000000180053a78     libvcruntime:undname.obj
 0002:0000ba90       ??_R2DNameNode@@8          0000000180053a90     libvcruntime:undname.obj
 0002:0000baa0       ??_R1A@?0A@EA@DNameNode@@8 0000000180053aa0     libvcruntime:undname.obj
 0002:0000bac8       ??_R4charNode@@6B@         0000000180053ac8     libvcruntime:undname.obj
 0002:0000baf0       ??_R3charNode@@8           0000000180053af0     libvcruntime:undname.obj
 0002:0000bb08       ??_R2charNode@@8           0000000180053b08     libvcruntime:undname.obj
 0002:0000bb20       ??_R1A@?0A@EA@charNode@@8  0000000180053b20     libvcruntime:undname.obj
 0002:0000bb48       ??_R4pcharNode@@6B@        0000000180053b48     libvcruntime:undname.obj
 0002:0000bb70       ??_R3pcharNode@@8          0000000180053b70     libvcruntime:undname.obj
 0002:0000bb88       ??_R2pcharNode@@8          0000000180053b88     libvcruntime:undname.obj
 0002:0000bba0       ??_R1A@?0A@EA@pcharNode@@8 0000000180053ba0     libvcruntime:undname.obj
 0002:0000bbc8       ??_R4pDNameNode@@6B@       0000000180053bc8     libvcruntime:undname.obj
 0002:0000bbf0       ??_R3pDNameNode@@8         0000000180053bf0     libvcruntime:undname.obj
 0002:0000bc08       ??_R2pDNameNode@@8         0000000180053c08     libvcruntime:undname.obj
 0002:0000bc20       ??_R1A@?0A@EA@pDNameNode@@8 0000000180053c20     libvcruntime:undname.obj
 0002:0000bc48       ??_R4DNameStatusNode@@6B@  0000000180053c48     libvcruntime:undname.obj
 0002:0000bc70       ??_R3DNameStatusNode@@8    0000000180053c70     libvcruntime:undname.obj
 0002:0000bc88       ??_R2DNameStatusNode@@8    0000000180053c88     libvcruntime:undname.obj
 0002:0000bca0       ??_R1A@?0A@EA@DNameStatusNode@@8 0000000180053ca0     libvcruntime:undname.obj
 0002:0000bcc8       ??_R4pairNode@@6B@         0000000180053cc8     libvcruntime:undname.obj
 0002:0000bcf0       ??_R3pairNode@@8           0000000180053cf0     libvcruntime:undname.obj
 0002:0000bd08       ??_R2pairNode@@8           0000000180053d08     libvcruntime:undname.obj
 0002:0000bd20       ??_R1A@?0A@EA@pairNode@@8  0000000180053d20     libvcruntime:undname.obj
 0002:0000bd48       ??_R4exception@std@@6B@    0000000180053d48     libvcruntime:frame.obj
 0002:0000bd70       ??_R3exception@std@@8      0000000180053d70     libvcruntime:frame.obj
 0002:0000bd88       ??_R2exception@std@@8      0000000180053d88     libvcruntime:frame.obj
 0002:0000bd98       ??_R1A@?0A@EA@exception@std@@8 0000000180053d98     libvcruntime:frame.obj
 0002:0000bdc0       ??_R4bad_exception@std@@6B@ 0000000180053dc0     libvcruntime:frame.obj
 0002:0000bde8       ??_R3bad_exception@std@@8  0000000180053de8     libvcruntime:frame.obj
 0002:0000be00       ??_R2bad_exception@std@@8  0000000180053e00     libvcruntime:frame.obj
 0002:0000be18       ??_R1A@?0A@EA@bad_exception@std@@8 0000000180053e18     libvcruntime:frame.obj
 0002:0000be3c       __volatile_metadata        0000000180053e3c     <linker-defined>
 0002:0000c418       __rtc_iaa                  0000000180054418     LIBCMT:initsect.obj
 0002:0000c420       __rtc_izz                  0000000180054420     LIBCMT:initsect.obj
 0002:0000c428       __rtc_taa                  0000000180054428     LIBCMT:initsect.obj
 0002:0000c430       __rtc_tzz                  0000000180054430     LIBCMT:initsect.obj
 0002:00010250       _TI2?AVbad_exception@std@@ 0000000180058250     libvcruntime:frame.obj
 0002:00010270       _CTA2?AVbad_exception@std@@ 0000000180058270     libvcruntime:frame.obj
 0002:00010288       _CT??_R0?AVbad_exception@std@@@8??0bad_exception@std@@QEAA@AEBV01@@Z24 0000000180058288     libvcruntime:frame.obj
 0002:000102b0       _CT??_R0?AVexception@std@@@8??0exception@std@@QEAA@AEBV01@@Z24 00000001800582b0     libvcruntime:frame.obj
 0002:000102d4       __DELAY_IMPORT_DESCRIPTOR_physxcommon_64_dll 00000001800582d4     PhysXCommon_64:PhysXCommon_64.dll
 0002:000102f4       __DELAY_IMPORT_DESCRIPTOR_physxfoundation_64_dll 00000001800582f4     PhysXFoundation_64:PhysXFoundation_64.dll
 0002:00010314       __NULL_DELAY_IMPORT_DESCRIPTOR 0000000180058314     PhysXCommon_64:PhysXCommon_64.dll
 0002:00010458       \177PhysXCommon_64_NULL_THUNK_DATA_DLN 0000000180058458     PhysXCommon_64:PhysXCommon_64.dll
 0002:000104e0       \177PhysXFoundation_64_NULL_THUNK_DATA_DLN 00000001800584e0     PhysXFoundation_64:PhysXFoundation_64.dll
 0002:00010f40       \177PhysXCommon_64_NULL_THUNK_DATA_DLB 0000000180058f40     PhysXCommon_64:PhysXCommon_64.dll
 0002:00011068       \177PhysXFoundation_64_NULL_THUNK_DATA_DLB 0000000180059068     PhysXFoundation_64:PhysXFoundation_64.dll
 0002:00012e24       __IMPORT_DESCRIPTOR_KERNEL32 000000018005ae24     kernel32:KERNEL32.dll
 0002:00012e38       __NULL_IMPORT_DESCRIPTOR   000000018005ae38     kernel32:KERNEL32.dll
 0003:00000008       __pfnDliNotifyHook2        000000018005c008     WindowsCookingDelayLoadHook.obj
 0003:00000010       _fltused                   000000018005c010     LIBCMT:fltused.obj
 0003:00000020       __isa_available            000000018005c020     LIBCMT:cpu_disp.obj
 0003:00000024       __isa_enabled              000000018005c024     LIBCMT:cpu_disp.obj
 0003:00000028       __memcpy_nt_iters          000000018005c028     LIBCMT:cpu_disp.obj
 0003:00000030       __memset_nt_iters          000000018005c030     LIBCMT:cpu_disp.obj
 0003:00000040       __scrt_native_dllmain_reason 000000018005c040     LIBCMT:utility.obj
 0003:00000048       __security_cookie_complement 000000018005c048     LIBCMT:gs_cookie.obj
 0003:00000050       __security_cookie          000000018005c050     LIBCMT:gs_cookie.obj
 0003:00000080       __abort_behavior           000000018005c080     libucrt:abort.obj
 0003:000000b0       __acrt_initial_multibyte_data 000000018005c0b0     libucrt:mbctype.obj
 0003:000005f0       __acrt_initial_locale_data 000000018005c5f0     libucrt:nlsdata.obj
 0003:00000748       __acrt_initial_locale_pointers 000000018005c748     libucrt:nlsdata.obj
 0003:00000758       __acrt_wide_c_locale_string 000000018005c758     libucrt:nlsdata.obj
 0003:00000760       _iob                       000000018005c760     libucrt:_file.obj
 0003:00000870       __globallocalestatus       000000018005c870     libucrt:glstatus.obj
 0003:00000880       __acrt_lconv_c             000000018005c880     libucrt:localeconv.obj
 0003:00000918       __acrt_lconv_static_decimal 000000018005c918     libucrt:localeconv.obj
 0003:0000091c       __acrt_lconv_static_W_decimal 000000018005c91c     libucrt:localeconv.obj
 0003:00000920       _lookuptrailbytes          000000018005c920     libucrt:read.obj
 0003:00000a30       ??_R0?AVAdjEdge@@@8        000000018005ca30     Adjacencies.obj
 0003:00000a50       ??_R0I@8                   000000018005ca50     Adjacencies.obj
 0003:00000a68       ??_R0?AVAdjTriangle@physx@@@8 000000018005ca68     Adjacencies.obj
 0003:00000a90       ??_R0?AVHeightField@Gu@physx@@@8 000000018005ca90     Cooking.obj
 0003:00000ac0       ??_R0?AVCooking@physx@@@8  000000018005cac0     Cooking.obj
 0003:00000ae8       ??_R0?AVQuickHullConvexHullLib@physx@@@8 000000018005cae8     Cooking.obj
 0003:00000b20       ??_R0M@8                   000000018005cb20     CookingUtils.obj
 0003:00000b38       ??_R0?AUEdgeData@Gu@physx@@@8 000000018005cb38     EdgeList.obj
 0003:00000b60       ??_R0?AUEdgeTriangleData@Gu@physx@@@8 000000018005cb60     EdgeList.obj
 0003:00000b90       ??_R0?AVQuantizerImpl@@@8  000000018005cb90     Quantizer.obj
 0003:00000bb8       ??_R0?AVEdgeListBuilder@Gu@physx@@@8 000000018005cbb8     TriangleMeshBuilder.obj
 0003:00000be8       ??_R0?AVBV32Tree@Gu@physx@@@8 000000018005cbe8     TriangleMeshBuilder.obj
 0003:00000c10       ??_R0E@8                   000000018005cc10     TriangleMeshBuilder.obj
 0003:00000c28       ??_R0G@8                   000000018005cc28     TriangleMeshBuilder.obj
 0003:00000c40       ??_R0?AUEdgeDescData@Gu@physx@@@8 000000018005cc40     ConvexHullBuilder.obj
 0003:00000c70       ??_R0_N@8                  000000018005cc70     ConvexHullBuilder.obj
 0003:00000c88       ??_R0?AVConvexHull@physx@@@8 000000018005cc88     ConvexHullUtils.obj
 0003:00000cb0       ??_R0?AVBigConvexData@physx@@@8 000000018005ccb0     ConvexMeshBuilder.obj
 0003:00000ce0       ??_R0?AUHullTriangleData@physx@@@8 000000018005cce0     ConvexPolygonsBuilder.obj
 0003:00000d10       ??_R0?AVQuickHull@local@@@8 000000018005cd10     QuickHullConvexHullLib.obj
 0003:00000d38       ??_R0?AVbad_exception@std@@@8 000000018005cd38     libvcruntime:frame.obj
 0003:00000d60       ??_R0?AVexception@std@@@8  000000018005cd60     libvcruntime:frame.obj
 0003:00000d88       ??_R0?AVtype_info@@@8      000000018005cd88     LIBCMT:std_type_info_static.obj
 0003:00000da8       ??_R0?AVDNameNode@@@8      000000018005cda8     libvcruntime:undname.obj
 0003:00000dc8       ??_R0?AVcharNode@@@8       000000018005cdc8     libvcruntime:undname.obj
 0003:00000de8       ??_R0?AVpcharNode@@@8      000000018005cde8     libvcruntime:undname.obj
 0003:00000e08       ??_R0?AVpDNameNode@@@8     000000018005ce08     libvcruntime:undname.obj
 0003:00000e30       ??_R0?AVDNameStatusNode@@@8 000000018005ce30     libvcruntime:undname.obj
 0003:00000e58       ??_R0?AVpairNode@@@8       000000018005ce58     libvcruntime:undname.obj
 0003:00000e78       __imp_??0RadixSortBuffered@Cm@physx@@QEAA@XZ 000000018005ce78     PhysXCommon_64:PhysXCommon_64.dll
 0003:00000e80       __imp_??1BigConvexData@physx@@QEAA@XZ 000000018005ce80     PhysXCommon_64:PhysXCommon_64.dll
 0003:00000e88       __imp_??1RadixSortBuffered@Cm@physx@@UEAA@XZ 000000018005ce88     PhysXCommon_64:PhysXCommon_64.dll
 0003:00000e90       __imp_?Sort@RadixSortBuffered@Cm@physx@@QEAAAEAV123@PEBIIW4RadixHint@23@@Z 000000018005ce90     PhysXCommon_64:PhysXCommon_64.dll
 0003:00000e98       __imp_??0HeightField@Gu@physx@@QEAA@PEAVGuMeshFactory@2@@Z 000000018005ce98     PhysXCommon_64:PhysXCommon_64.dll
 0003:00000ea0       __imp_?loadFromDesc@HeightField@Gu@physx@@QEAA_NAEBVPxHeightFieldDesc@3@@Z 000000018005cea0     PhysXCommon_64:PhysXCommon_64.dll
 0003:00000ea8       __imp_?computeCellCoordinates@HeightField@Gu@physx@@QEBAIMMAEAM0@Z 000000018005cea8     PhysXCommon_64:PhysXCommon_64.dll
 0003:00000eb0       __imp_?releaseMemory@HeightField@Gu@physx@@QEAAXXZ 000000018005ceb0     PhysXCommon_64:PhysXCommon_64.dll
 0003:00000eb8       __imp_??1HeightField@Gu@physx@@UEAA@XZ 000000018005ceb8     PhysXCommon_64:PhysXCommon_64.dll
 0003:00000ec0       __imp_??0NodeAllocator@Gu@physx@@QEAA@XZ 000000018005cec0     PhysXCommon_64:PhysXCommon_64.dll
 0003:00000ec8       __imp_??1NodeAllocator@Gu@physx@@QEAA@XZ 000000018005cec8     PhysXCommon_64:PhysXCommon_64.dll
 0003:00000ed0       __imp_?release@NodeAllocator@Gu@physx@@QEAAXXZ 000000018005ced0     PhysXCommon_64:PhysXCommon_64.dll
 0003:00000ed8       __imp_?buildAABBTree@Gu@physx@@YA_NAEAVAABBTreeBuildParams@12@AEAVNodeAllocator@12@AEAUBuildStats@12@AEAPEAI@Z 000000018005ced8     PhysXCommon_64:PhysXCommon_64.dll
 0003:00000ee0       __imp_?writeDword@physx@@YAXI_NAEAVPxOutputStream@1@@Z 000000018005cee0     PhysXCommon_64:PhysXCommon_64.dll
 0003:00000ee8       __imp_?writeFloatBuffer@physx@@YAXPEBMI_NAEAVPxOutputStream@1@@Z 000000018005cee8     PhysXCommon_64:PhysXCommon_64.dll
 0003:00000ef0       __imp_?writeHeader@physx@@YA_NCCCCI_NAEAVPxOutputStream@1@@Z 000000018005cef0     PhysXCommon_64:PhysXCommon_64.dll
 0003:00000ef8       __imp_?writeWord@physx@@YAXG_NAEAVPxOutputStream@1@@Z 000000018005cef8     PhysXCommon_64:PhysXCommon_64.dll
 0003:00000f00       __imp_?writeFloat@physx@@YAXM_NAEAVPxOutputStream@1@@Z 000000018005cf00     PhysXCommon_64:PhysXCommon_64.dll
 0003:00000f08       __imp_?computeBoundsAroundVertices@Gu@physx@@YAXAEAVPxBounds3@2@IPEIBVPxVec3@2@@Z 000000018005cf08     PhysXCommon_64:PhysXCommon_64.dll
 0003:00000f10       __imp_??0SourceMesh@Gu@physx@@QEAA@XZ 000000018005cf10     PhysXCommon_64:PhysXCommon_64.dll
 0003:00000f18       __imp_??1SourceMesh@Gu@physx@@QEAA@XZ 000000018005cf18     PhysXCommon_64:PhysXCommon_64.dll
 0003:00000f20       __imp_??0BV4Tree@Gu@physx@@QEAA@XZ 000000018005cf20     PhysXCommon_64:PhysXCommon_64.dll
 0003:00000f28       __imp_??1BV4Tree@Gu@physx@@QEAA@XZ 000000018005cf28     PhysXCommon_64:PhysXCommon_64.dll
 0003:00000f30       __imp_??0BV32Tree@Gu@physx@@QEAA@XZ 000000018005cf30     PhysXCommon_64:PhysXCommon_64.dll
 0003:00000f38       __imp_??1BV32Tree@Gu@physx@@QEAA@XZ 000000018005cf38     PhysXCommon_64:PhysXCommon_64.dll
 0003:00000f40       __imp_?writeWordBuffer@physx@@YAXPEBGI_NAEAVPxOutputStream@1@@Z 000000018005cf40     PhysXCommon_64:PhysXCommon_64.dll
 0003:00000f48       __imp_?computeMaxIndex@physx@@YAIPEBII@Z 000000018005cf48     PhysXCommon_64:PhysXCommon_64.dll
 0003:00000f50       __imp_?storeIndices@physx@@YAXIIPEBIAEAVPxOutputStream@1@_N@Z 000000018005cf50     PhysXCommon_64:PhysXCommon_64.dll
 0003:00000f58       __imp_?BuildBV4Ex@Gu@physx@@YA_NAEAVBV4Tree@12@AEAVSourceMesh@12@MI@Z 000000018005cf58     PhysXCommon_64:PhysXCommon_64.dll
 0003:00000f60       __imp_?BuildBV32Ex@Gu@physx@@YA_NAEAVBV32Tree@12@AEAVSourceMesh@12@MI@Z 000000018005cf60     PhysXCommon_64:PhysXCommon_64.dll
 0003:00000f68       __imp_?computeMaxIndex@physx@@YAGPEBGI@Z 000000018005cf68     PhysXCommon_64:PhysXCommon_64.dll
 0003:00000f70       __imp_?WriteHeader@Gu@physx@@YA_NEEEEI_NAEAVPxOutputStream@2@@Z 000000018005cf70     PhysXCommon_64:PhysXCommon_64.dll
 0003:00000f78       __imp_?StoreIndices@Gu@physx@@YAXGIPEBGAEAVPxOutputStream@2@_N@Z 000000018005cf78     PhysXCommon_64:PhysXCommon_64.dll
 0003:00000f80       __imp_?CreateOffsets@BigConvexData@physx@@IEAAXXZ 000000018005cf80     PhysXCommon_64:PhysXCommon_64.dll
 0003:00000f88       __imp_?computeOBBPoints@Gu@physx@@YAXPEIAVPxVec3@2@AEBV32@1111@Z 000000018005cf88     PhysXCommon_64:PhysXCommon_64.dll
 0003:00000f90       __imp_??0BigConvexData@physx@@QEAA@XZ 000000018005cf90     PhysXCommon_64:PhysXCommon_64.dll
 0003:00000f98       \177PhysXCommon_64_NULL_THUNK_DATA_DLA 000000018005cf98     PhysXCommon_64:PhysXCommon_64.dll
 0003:00000fa0       __imp_PxGetFoundation      000000018005cfa0     PhysXFoundation_64:PhysXFoundation_64.dll
 0003:00000fa8       __imp_?deallocate@TempAllocator@shdfnd@physx@@QEAAXPEAX@Z 000000018005cfa8     PhysXFoundation_64:PhysXFoundation_64.dll
 0003:00000fb0       __imp_?getAllocator@shdfnd@physx@@YAAEAVPxAllocatorCallback@2@XZ 000000018005cfb0     PhysXFoundation_64:PhysXFoundation_64.dll
 0003:00000fb8       __imp_??0NamedAllocator@shdfnd@physx@@QEAA@PEBD@Z 000000018005cfb8     PhysXFoundation_64:PhysXFoundation_64.dll
 0003:00000fc0       __imp_?getInstance@Foundation@shdfnd@physx@@SAAEAV123@XZ 000000018005cfc0     PhysXFoundation_64:PhysXFoundation_64.dll
 0003:00000fc8       __imp_?error@Foundation@shdfnd@physx@@QEAAXW4Enum@PxErrorCode@3@PEBDH1ZZ 000000018005cfc8     PhysXFoundation_64:PhysXFoundation_64.dll
 0003:00000fd0       __imp_?allocate@NamedAllocator@shdfnd@physx@@QEAAPEAX_KPEBDH@Z 000000018005cfd0     PhysXFoundation_64:PhysXFoundation_64.dll
 0003:00000fd8       __imp_?deallocate@NamedAllocator@shdfnd@physx@@QEAAXPEAX@Z 000000018005cfd8     PhysXFoundation_64:PhysXFoundation_64.dll
 0003:00000fe0       __imp_?incRefCount@Foundation@shdfnd@physx@@SAXXZ 000000018005cfe0     PhysXFoundation_64:PhysXFoundation_64.dll
 0003:00000fe8       __imp_?decRefCount@Foundation@shdfnd@physx@@SAXXZ 000000018005cfe8     PhysXFoundation_64:PhysXFoundation_64.dll
 0003:00000ff0       __imp_??0FPUGuard@shdfnd@physx@@QEAA@XZ 000000018005cff0     PhysXFoundation_64:PhysXFoundation_64.dll
 0003:00000ff8       __imp_??1FPUGuard@shdfnd@physx@@QEAA@XZ 000000018005cff8     PhysXFoundation_64:PhysXFoundation_64.dll
 0003:00001000       __imp_??1NamedAllocator@shdfnd@physx@@QEAA@XZ 000000018005d000     PhysXFoundation_64:PhysXFoundation_64.dll
 0003:00001008       __imp_??0NamedAllocator@shdfnd@physx@@QEAA@AEBV012@@Z 000000018005d008     PhysXFoundation_64:PhysXFoundation_64.dll
 0003:00001010       __imp_?allocate@TempAllocator@shdfnd@physx@@QEAAPEAX_KPEBDH@Z 000000018005d010     PhysXFoundation_64:PhysXFoundation_64.dll
 0003:00001018       __imp_?PxDiagonalize@physx@@YA?AVPxVec3@1@AEBVPxMat33@1@AEAVPxQuat@1@@Z 000000018005d018     PhysXFoundation_64:PhysXFoundation_64.dll
 0003:00001020       \177PhysXFoundation_64_NULL_THUNK_DATA_DLA 000000018005d020     PhysXFoundation_64:PhysXFoundation_64.dll
 0003:000013f8       __hmod__PhysXCommon_64_dll 000000018005d3f8     PhysXCommon_64:PhysXCommon_64.dll
 0003:00001400       __hmod__PhysXFoundation_64_dll 000000018005d400     PhysXFoundation_64:PhysXFoundation_64.dll
 0003:00001408       ?DloadKernel32@@3PEAUHINSTANCE__@@EA 000000018005d408     Delayimp:delayhlp.obj
 0003:00001410       ?DloadAcquireSRWLockExclusive@@3P6AXPEA_K@ZEA 000000018005d410     Delayimp:delayhlp.obj
 0003:00001418       ?DloadReleaseSRWLockExclusive@@3P6AXPEA_K@ZEA 000000018005d418     Delayimp:delayhlp.obj
 0003:00001420       ?DloadSrwLock@@3_KA        000000018005d420     Delayimp:delayhlp.obj
 0003:00001428       ?DloadSectionLockCount@@3KA 000000018005d428     Delayimp:delayhlp.obj
 0003:0000142c       ?DloadSectionOldProtection@@3KA 000000018005d42c     Delayimp:delayhlp.obj
 0003:00001430       ?DloadSectionCommitPermanent@@3KA 000000018005d430     Delayimp:delayhlp.obj
 0003:00001440       ?__type_info_root_node@@3U__type_info_node@@A 000000018005d440     LIBCMT:tncleanup.obj
 0003:00001458       __castguard_check_failure_os_handled_fptr 000000018005d458     LIBCMT:guard_support.obj
 0003:00001460       __favor                    000000018005d460     LIBCMT:cpu_disp.obj
 0003:00001468       ?_OptionsStorage@?1??__local_stdio_printf_options@@9@4_KA 000000018005d468     LIBCMT:default_local_stdio_options.obj
 0003:00001470       ?_OptionsStorage@?1??__local_stdio_scanf_options@@9@4_KA 000000018005d470     LIBCMT:default_local_stdio_options.obj
 0003:00001478       __scrt_current_native_startup_state 000000018005d478     LIBCMT:utility.obj
 0003:00001480       __scrt_native_startup_lock 000000018005d480     LIBCMT:utility.obj
 0003:000014c0       __scrt_debugger_hook_flag  000000018005d4c0     LIBCMT:utility_desktop.obj
 0003:000014c8       ?__WinRTOutOfMemoryExceptionCallback@@3P6APEAXXZEA 000000018005d4c8     libvcruntime:ehhelpers.obj
 0003:000014d0       __pPurecall                000000018005d4d0     libvcruntime:purevirt_data.obj
 0003:000014d8       ?pArgList@UnDecorator@@0PEAVReplicator@@EA 000000018005d4d8     libvcruntime:undname.obj
 0003:000014e0       ?pZNameList@UnDecorator@@0PEAVReplicator@@EA 000000018005d4e0     libvcruntime:undname.obj
 0003:000014e8       ?pTemplateArgList@UnDecorator@@0PEAVReplicator@@EA 000000018005d4e8     libvcruntime:undname.obj
 0003:000014f0       ?gName@UnDecorator@@0PEBDEB 000000018005d4f0     libvcruntime:undname.obj
 0003:000014f8       ?name@UnDecorator@@0PEBDEB 000000018005d4f8     libvcruntime:undname.obj
 0003:00001500       ?disableFlags@UnDecorator@@0KA 000000018005d500     libvcruntime:undname.obj
 0003:00001504       ?fExplicitTemplateParams@UnDecorator@@0_NA 000000018005d504     libvcruntime:undname.obj
 0003:00001505       ?fGetTemplateArgumentList@UnDecorator@@0_NA 000000018005d505     libvcruntime:undname.obj
 0003:00001508       ?m_pGetParameter@UnDecorator@@0P6APEADJ@ZEA 000000018005d508     libvcruntime:undname.obj
 0003:00001510       ?m_CHPENameOffset@UnDecorator@@0KA 000000018005d510     libvcruntime:undname.obj
 0003:00001514       ?m_recursionLevel@UnDecorator@@0KA 000000018005d514     libvcruntime:undname.obj
 0003:00001758       _environ_table             000000018005d758     libucrt:environment_initialization.obj
 0003:00001760       _wenviron_table            000000018005d760     libucrt:environment_initialization.obj
 0003:00001768       __dcrt_initial_wide_environment 000000018005d768     libucrt:environment_initialization.obj
 0003:00001770       __dcrt_initial_narrow_environment 000000018005d770     libucrt:environment_initialization.obj
 0003:00001778       __acrt_atexit_table        000000018005d778     libucrt:onexit.obj
 0003:00001790       __acrt_at_quick_exit_table 000000018005d790     libucrt:onexit.obj
 0003:000017a8       __fma3_is_available        000000018005d7a8     libucrt:fma3_available.obj
 0003:000017ac       __use_fma3_lib             000000018005d7ac     libucrt:fma3_available.obj
 0003:000019f0       _mbctype                   000000018005d9f0     libucrt:mbctype.obj
 0003:000019f8       _mbcasemap                 000000018005d9f8     libucrt:mbctype.obj
 0003:00001a00       __acrt_current_multibyte_data 000000018005da00     libucrt:mbctype.obj
 0003:00001a10       _pgmptr                    000000018005da10     libucrt:argv_data.obj
 0003:00001a18       __argc                     000000018005da18     libucrt:argv_data.obj
 0003:00001a20       __argv                     000000018005da20     libucrt:argv_data.obj
 0003:00001a28       __wargv                    000000018005da28     libucrt:argv_data.obj
 0003:00001a30       _acmdln                    000000018005da30     libucrt:argv_data.obj
 0003:00001a38       _wcmdln                    000000018005da38     libucrt:argv_data.obj
 0003:00001be8       __acrt_heap                000000018005dbe8     libucrt:heap_handle.obj
 0003:00001bf0       __pioinfo                  000000018005dbf0     libucrt:ioinit.obj
 0003:00001ff0       _nhandle                   000000018005dff0     libucrt:ioinit.obj
 0003:00002028       __acrt_current_locale_data 000000018005e028     libucrt:nlsdata.obj
 0003:00002030       _nstream                   000000018005e030     libucrt:_file.obj
 0003:00002038       __piob                     000000018005e038     libucrt:_file.obj
 0003:00002040       __acrt_stdout_buffer       000000018005e040     libucrt:_sftbuf.obj
 0003:00002048       __acrt_stderr_buffer       000000018005e048     libucrt:_sftbuf.obj
 0003:00002060       __acrt_locale_changed_data 000000018005e060     libucrt:wsetlocale.obj
 0003:00002068       __acrt_lconv_static_null   000000018005e068     libucrt:localeconv.obj
 0003:0000206c       __acrt_lconv_static_W_null 000000018005e06c     libucrt:localeconv.obj
 0003:000025f0       __scrt_ucrt_dll_is_in_use  000000018005e5f0     <common>
 0003:000025f8       __dyn_tls_init_callback    000000018005e5f8     <common>
 0005:00000100       __common_ssin_reduction_data 0000000180063100     LIBCMT:svml_s_sin_data.obj
 0005:00000d00       __common_ssin_data         0000000180063d00     LIBCMT:svml_s_sin_data.obj

 entry point at        0001:00026f30

 Static symbols

 0000:fff98000       .debug$S                   0000000180000000     PhysXCooking_64.exp
 0000:fff98000       .debug$S                   0000000180000000     kernel32:KERNEL32.dll
 0000:fff98000       .debug$S                   0000000180000000     kernel32:KERNEL32.dll
 0000:fff98000       .debug$S                   0000000180000000     kernel32:KERNEL32.dll
 0000:fff98000       .debug$S                   0000000180000000     kernel32:KERNEL32.dll
 0000:fff98000       .debug$S                   0000000180000000     kernel32:KERNEL32.dll
 0000:fff98000       .debug$S                   0000000180000000     kernel32:KERNEL32.dll
 0000:fff98000       .debug$S                   0000000180000000     kernel32:KERNEL32.dll
 0000:fff98000       .debug$S                   0000000180000000     kernel32:KERNEL32.dll
 0000:fff98000       .debug$S                   0000000180000000     kernel32:KERNEL32.dll
 0000:fff98000       .debug$S                   0000000180000000     kernel32:KERNEL32.dll
 0000:fff98000       .debug$S                   0000000180000000     kernel32:KERNEL32.dll
 0000:fff98000       .debug$S                   0000000180000000     kernel32:KERNEL32.dll
 0000:fff98000       .debug$S                   0000000180000000     kernel32:KERNEL32.dll
 0000:fff98000       .debug$S                   0000000180000000     kernel32:KERNEL32.dll
 0000:fff98000       .debug$S                   0000000180000000     kernel32:KERNEL32.dll
 0000:fff98000       .debug$S                   0000000180000000     kernel32:KERNEL32.dll
 0000:fff98000       .debug$S                   0000000180000000     kernel32:KERNEL32.dll
 0000:fff98000       .debug$S                   0000000180000000     kernel32:KERNEL32.dll
 0000:fff98000       .debug$S                   0000000180000000     kernel32:KERNEL32.dll
 0000:fff98000       .debug$S                   0000000180000000     kernel32:KERNEL32.dll
 0000:fff98000       .debug$S                   0000000180000000     kernel32:KERNEL32.dll
 0000:fff98000       .debug$S                   0000000180000000     kernel32:KERNEL32.dll
 0000:fff98000       .debug$S                   0000000180000000     kernel32:KERNEL32.dll
 0000:fff98000       .debug$S                   0000000180000000     kernel32:KERNEL32.dll
 0000:fff98000       .debug$S                   0000000180000000     kernel32:KERNEL32.dll
 0000:fff98000       .debug$S                   0000000180000000     kernel32:KERNEL32.dll
 0000:fff98000       .debug$S                   0000000180000000     kernel32:KERNEL32.dll
 0000:fff98000       .debug$S                   0000000180000000     kernel32:KERNEL32.dll
 0000:fff98000       .debug$S                   0000000180000000     kernel32:KERNEL32.dll
 0000:fff98000       .debug$S                   0000000180000000     kernel32:KERNEL32.dll
 0000:fff98000       .debug$S                   0000000180000000     kernel32:KERNEL32.dll
 0000:fff98000       .debug$S                   0000000180000000     kernel32:KERNEL32.dll
 0000:fff98000       .debug$S                   0000000180000000     kernel32:KERNEL32.dll
 0000:fff98000       .debug$S                   0000000180000000     kernel32:KERNEL32.dll
 0000:fff98000       .debug$S                   0000000180000000     kernel32:KERNEL32.dll
 0000:fff98000       .debug$S                   0000000180000000     kernel32:KERNEL32.dll
 0000:fff98000       .debug$S                   0000000180000000     kernel32:KERNEL32.dll
 0000:fff98000       .debug$S                   0000000180000000     kernel32:KERNEL32.dll
 0000:fff98000       .debug$S                   0000000180000000     kernel32:KERNEL32.dll
 0000:fff98000       .debug$S                   0000000180000000     kernel32:KERNEL32.dll
 0000:fff98000       .debug$S                   0000000180000000     kernel32:KERNEL32.dll
 0000:fff98000       .debug$S                   0000000180000000     kernel32:KERNEL32.dll
 0000:fff98000       .debug$S                   0000000180000000     kernel32:KERNEL32.dll
 0000:fff98000       .debug$S                   0000000180000000     kernel32:KERNEL32.dll
 0000:fff98000       .debug$S                   0000000180000000     kernel32:KERNEL32.dll
 0000:fff98000       .debug$S                   0000000180000000     kernel32:KERNEL32.dll
 0000:fff98000       .debug$S                   0000000180000000     kernel32:KERNEL32.dll
 0000:fff98000       .debug$S                   0000000180000000     kernel32:KERNEL32.dll
 0000:fff98000       .debug$S                   0000000180000000     kernel32:KERNEL32.dll
 0000:fff98000       .debug$S                   0000000180000000     kernel32:KERNEL32.dll
 0000:fff98000       .debug$S                   0000000180000000     kernel32:KERNEL32.dll
 0000:fff98000       .debug$S                   0000000180000000     kernel32:KERNEL32.dll
 0000:fff98000       .debug$S                   0000000180000000     kernel32:KERNEL32.dll
 0000:fff98000       .debug$S                   0000000180000000     kernel32:KERNEL32.dll
 0000:fff98000       .debug$S                   0000000180000000     kernel32:KERNEL32.dll
 0000:fff98000       .debug$S                   0000000180000000     kernel32:KERNEL32.dll
 0000:fff98000       .debug$S                   0000000180000000     kernel32:KERNEL32.dll
 0000:fff98000       .debug$S                   0000000180000000     kernel32:KERNEL32.dll
 0000:fff98000       .debug$S                   0000000180000000     kernel32:KERNEL32.dll
 0000:fff98000       .debug$S                   0000000180000000     kernel32:KERNEL32.dll
 0000:fff98000       .debug$S                   0000000180000000     kernel32:KERNEL32.dll
 0000:fff98000       .debug$S                   0000000180000000     kernel32:KERNEL32.dll
 0000:fff98000       .debug$S                   0000000180000000     kernel32:KERNEL32.dll
 0000:fff98000       .debug$S                   0000000180000000     kernel32:KERNEL32.dll
 0000:fff98000       .debug$S                   0000000180000000     kernel32:KERNEL32.dll
 0000:fff98000       .debug$S                   0000000180000000     kernel32:KERNEL32.dll
 0000:fff98000       .debug$S                   0000000180000000     kernel32:KERNEL32.dll
 0000:fff98000       .debug$S                   0000000180000000     kernel32:KERNEL32.dll
 0000:fff98000       .debug$S                   0000000180000000     kernel32:KERNEL32.dll
 0000:fff98000       .debug$S                   0000000180000000     kernel32:KERNEL32.dll
 0000:fff98000       .debug$S                   0000000180000000     kernel32:KERNEL32.dll
 0000:fff98000       .debug$S                   0000000180000000     kernel32:KERNEL32.dll
 0000:fff98000       .debug$S                   0000000180000000     kernel32:KERNEL32.dll
 0000:fff98000       .debug$S                   0000000180000000     kernel32:KERNEL32.dll
 0000:fff98000       .debug$S                   0000000180000000     kernel32:KERNEL32.dll
 0000:fff98000       .debug$S                   0000000180000000     kernel32:KERNEL32.dll
 0000:fff98000       .debug$S                   0000000180000000     kernel32:KERNEL32.dll
 0000:fff98000       .debug$S                   0000000180000000     kernel32:KERNEL32.dll
 0000:fff98000       .debug$S                   0000000180000000     kernel32:KERNEL32.dll
 0000:fff98000       .debug$S                   0000000180000000     kernel32:KERNEL32.dll
 0000:fff98000       .debug$S                   0000000180000000     kernel32:KERNEL32.dll
 0000:fff98000       .debug$S                   0000000180000000     kernel32:KERNEL32.dll
 0000:fff98000       .debug$S                   0000000180000000     kernel32:KERNEL32.dll
 0000:fff98000       .debug$S                   0000000180000000     kernel32:KERNEL32.dll
 0000:fff98000       .debug$S                   0000000180000000     kernel32:KERNEL32.dll
 0000:fff98000       .debug$S                   0000000180000000     kernel32:KERNEL32.dll
 0000:fff98000       .debug$S                   0000000180000000     kernel32:KERNEL32.dll
 0000:fff98000       .debug$S                   0000000180000000     kernel32:KERNEL32.dll
 0000:fff98000       .debug$S                   0000000180000000     kernel32:KERNEL32.dll
 0000:fff98000       .debug$S                   0000000180000000     kernel32:KERNEL32.dll
 0000:fff98000       .debug$S                   0000000180000000     kernel32:KERNEL32.dll
 0000:fff98000       .debug$S                   0000000180000000     kernel32:KERNEL32.dll
 0000:fff98000       .debug$S                   0000000180000000     kernel32:KERNEL32.dll
 0000:fff98000       .debug$S                   0000000180000000     kernel32:KERNEL32.dll
 0000:fff98000       .debug$S                   0000000180000000     PhysXCommon_64:PhysXCommon_64.dll
 0000:fff98000       .debug$S                   0000000180000000     PhysXCommon_64:PhysXCommon_64.dll
 0000:fff98000       .debug$S                   0000000180000000     PhysXCommon_64:PhysXCommon_64.dll
 0000:fff98000       .debug$S                   0000000180000000     PhysXCommon_64:PhysXCommon_64.dll
 0000:fff98000       .debug$S                   0000000180000000     PhysXCommon_64:PhysXCommon_64.dll
 0000:fff98000       .debug$S                   0000000180000000     PhysXCommon_64:PhysXCommon_64.dll
 0000:fff98000       .debug$S                   0000000180000000     PhysXCommon_64:PhysXCommon_64.dll
 0000:fff98000       .debug$S                   0000000180000000     PhysXCommon_64:PhysXCommon_64.dll
 0000:fff98000       .debug$S                   0000000180000000     PhysXCommon_64:PhysXCommon_64.dll
 0000:fff98000       .debug$S                   0000000180000000     PhysXCommon_64:PhysXCommon_64.dll
 0000:fff98000       .debug$S                   0000000180000000     PhysXCommon_64:PhysXCommon_64.dll
 0000:fff98000       .debug$S                   0000000180000000     PhysXCommon_64:PhysXCommon_64.dll
 0000:fff98000       .debug$S                   0000000180000000     PhysXCommon_64:PhysXCommon_64.dll
 0000:fff98000       .debug$S                   0000000180000000     PhysXCommon_64:PhysXCommon_64.dll
 0000:fff98000       .debug$S                   0000000180000000     PhysXCommon_64:PhysXCommon_64.dll
 0000:fff98000       .debug$S                   0000000180000000     PhysXCommon_64:PhysXCommon_64.dll
 0000:fff98000       .debug$S                   0000000180000000     PhysXCommon_64:PhysXCommon_64.dll
 0000:fff98000       .debug$S                   0000000180000000     PhysXCommon_64:PhysXCommon_64.dll
 0000:fff98000       .debug$S                   0000000180000000     PhysXCommon_64:PhysXCommon_64.dll
 0000:fff98000       .debug$S                   0000000180000000     PhysXCommon_64:PhysXCommon_64.dll
 0000:fff98000       .debug$S                   0000000180000000     PhysXCommon_64:PhysXCommon_64.dll
 0000:fff98000       .debug$S                   0000000180000000     PhysXCommon_64:PhysXCommon_64.dll
 0000:fff98000       .debug$S                   0000000180000000     PhysXCommon_64:PhysXCommon_64.dll
 0000:fff98000       .debug$S                   0000000180000000     PhysXCommon_64:PhysXCommon_64.dll
 0000:fff98000       .debug$S                   0000000180000000     PhysXCommon_64:PhysXCommon_64.dll
 0000:fff98000       .debug$S                   0000000180000000     PhysXCommon_64:PhysXCommon_64.dll
 0000:fff98000       .debug$S                   0000000180000000     PhysXCommon_64:PhysXCommon_64.dll
 0000:fff98000       .debug$S                   0000000180000000     PhysXCommon_64:PhysXCommon_64.dll
 0000:fff98000       .debug$S                   0000000180000000     PhysXCommon_64:PhysXCommon_64.dll
 0000:fff98000       .debug$S                   0000000180000000     PhysXCommon_64:PhysXCommon_64.dll
 0000:fff98000       .debug$S                   0000000180000000     PhysXCommon_64:PhysXCommon_64.dll
 0000:fff98000       .debug$S                   0000000180000000     PhysXCommon_64:PhysXCommon_64.dll
 0000:fff98000       .debug$S                   0000000180000000     PhysXCommon_64:PhysXCommon_64.dll
 0000:fff98000       .debug$S                   0000000180000000     PhysXCommon_64:PhysXCommon_64.dll
 0000:fff98000       .debug$S                   0000000180000000     PhysXCommon_64:PhysXCommon_64.dll
 0000:fff98000       .debug$S                   0000000180000000     PhysXCommon_64:PhysXCommon_64.dll
 0000:fff98000       .debug$S                   0000000180000000     PhysXCommon_64:PhysXCommon_64.dll
 0000:fff98000       .debug$S                   0000000180000000     PhysXCommon_64:PhysXCommon_64.dll
 0000:fff98000       .debug$S                   0000000180000000     PhysXFoundation_64:PhysXFoundation_64.dll
 0000:fff98000       .debug$S                   0000000180000000     PhysXFoundation_64:PhysXFoundation_64.dll
 0000:fff98000       .debug$S                   0000000180000000     PhysXFoundation_64:PhysXFoundation_64.dll
 0000:fff98000       .debug$S                   0000000180000000     PhysXFoundation_64:PhysXFoundation_64.dll
 0000:fff98000       .debug$S                   0000000180000000     PhysXFoundation_64:PhysXFoundation_64.dll
 0000:fff98000       .debug$S                   0000000180000000     PhysXFoundation_64:PhysXFoundation_64.dll
 0000:fff98000       .debug$S                   0000000180000000     PhysXFoundation_64:PhysXFoundation_64.dll
 0000:fff98000       .debug$S                   0000000180000000     PhysXFoundation_64:PhysXFoundation_64.dll
 0000:fff98000       .debug$S                   0000000180000000     PhysXFoundation_64:PhysXFoundation_64.dll
 0000:fff98000       .debug$S                   0000000180000000     PhysXFoundation_64:PhysXFoundation_64.dll
 0000:fff98000       .debug$S                   0000000180000000     PhysXFoundation_64:PhysXFoundation_64.dll
 0000:fff98000       .debug$S                   0000000180000000     PhysXFoundation_64:PhysXFoundation_64.dll
 0000:fff98000       .debug$S                   0000000180000000     PhysXFoundation_64:PhysXFoundation_64.dll
 0000:fff98000       .debug$S                   0000000180000000     PhysXFoundation_64:PhysXFoundation_64.dll
 0000:fff98000       .debug$S                   0000000180000000     PhysXFoundation_64:PhysXFoundation_64.dll
 0000:fff98000       .debug$S                   0000000180000000     PhysXFoundation_64:PhysXFoundation_64.dll
 0001:00000000       ??__EmaxFError@_VecMathTests@aos@shdfnd@physx@@YAXXZ 0000000180001000 f   Cooking.obj
 0001:00000010       ??__EmaxV3Error@_VecMathTests@aos@shdfnd@physx@@YAXXZ 0000000180001010 f   Cooking.obj
 0001:00000020       ??__EmaxV4Error@_VecMathTests@aos@shdfnd@physx@@YAXXZ 0000000180001020 f   Cooking.obj
 0001:00000030       ??__EminFError@_VecMathTests@aos@shdfnd@physx@@YAXXZ 0000000180001030 f   Cooking.obj
 0001:00000040       ??__EminV3Error@_VecMathTests@aos@shdfnd@physx@@YAXXZ 0000000180001040 f   Cooking.obj
 0001:00000050       ??__EminV4Error@_VecMathTests@aos@shdfnd@physx@@YAXXZ 0000000180001050 f   Cooking.obj
 0001:00000060       ??__EmaxFError@_VecMathTests@aos@shdfnd@physx@@YAXXZ 0000000180001060 f   BVHStructureBuilder.obj
 0001:00000070       ??__EmaxV3Error@_VecMathTests@aos@shdfnd@physx@@YAXXZ 0000000180001070 f   BVHStructureBuilder.obj
 0001:00000080       ??__EmaxV4Error@_VecMathTests@aos@shdfnd@physx@@YAXXZ 0000000180001080 f   BVHStructureBuilder.obj
 0001:00000090       ??__EminFError@_VecMathTests@aos@shdfnd@physx@@YAXXZ 0000000180001090 f   BVHStructureBuilder.obj
 0001:000000a0       ??__EminV3Error@_VecMathTests@aos@shdfnd@physx@@YAXXZ 00000001800010a0 f   BVHStructureBuilder.obj
 0001:000000b0       ??__EminV4Error@_VecMathTests@aos@shdfnd@physx@@YAXXZ 00000001800010b0 f   BVHStructureBuilder.obj
 0001:000000c0       ??__EmaxFError@_VecMathTests@aos@shdfnd@physx@@YAXXZ 00000001800010c0 f   RTreeCooking.obj
 0001:000000d0       ??__EmaxV3Error@_VecMathTests@aos@shdfnd@physx@@YAXXZ 00000001800010d0 f   RTreeCooking.obj
 0001:000000e0       ??__EmaxV4Error@_VecMathTests@aos@shdfnd@physx@@YAXXZ 00000001800010e0 f   RTreeCooking.obj
 0001:000000f0       ??__EminFError@_VecMathTests@aos@shdfnd@physx@@YAXXZ 00000001800010f0 f   RTreeCooking.obj
 0001:00000100       ??__EminV3Error@_VecMathTests@aos@shdfnd@physx@@YAXXZ 0000000180001100 f   RTreeCooking.obj
 0001:00000110       ??__EminV4Error@_VecMathTests@aos@shdfnd@physx@@YAXXZ 0000000180001110 f   RTreeCooking.obj
 0001:00000120       ??__EmaxFError@_VecMathTests@aos@shdfnd@physx@@YAXXZ 0000000180001120 f   MeshBuilder.obj
 0001:00000130       ??__EmaxV3Error@_VecMathTests@aos@shdfnd@physx@@YAXXZ 0000000180001130 f   MeshBuilder.obj
 0001:00000140       ??__EmaxV4Error@_VecMathTests@aos@shdfnd@physx@@YAXXZ 0000000180001140 f   MeshBuilder.obj
 0001:00000150       ??__EminFError@_VecMathTests@aos@shdfnd@physx@@YAXXZ 0000000180001150 f   MeshBuilder.obj
 0001:00000160       ??__EminV3Error@_VecMathTests@aos@shdfnd@physx@@YAXXZ 0000000180001160 f   MeshBuilder.obj
 0001:00000170       ??__EminV4Error@_VecMathTests@aos@shdfnd@physx@@YAXXZ 0000000180001170 f   MeshBuilder.obj
 0001:00000180       ??__EmaxFError@_VecMathTests@aos@shdfnd@physx@@YAXXZ 0000000180001180 f   TriangleMeshBuilder.obj
 0001:00000190       ??__EmaxV3Error@_VecMathTests@aos@shdfnd@physx@@YAXXZ 0000000180001190 f   TriangleMeshBuilder.obj
 0001:000001a0       ??__EmaxV4Error@_VecMathTests@aos@shdfnd@physx@@YAXXZ 00000001800011a0 f   TriangleMeshBuilder.obj
 0001:000001b0       ??__EminFError@_VecMathTests@aos@shdfnd@physx@@YAXXZ 00000001800011b0 f   TriangleMeshBuilder.obj
 0001:000001c0       ??__EminV3Error@_VecMathTests@aos@shdfnd@physx@@YAXXZ 00000001800011c0 f   TriangleMeshBuilder.obj
 0001:000001d0       ??__EminV4Error@_VecMathTests@aos@shdfnd@physx@@YAXXZ 00000001800011d0 f   TriangleMeshBuilder.obj
 0001:000001e0       ??__EmaxFError@_VecMathTests@aos@shdfnd@physx@@YAXXZ 00000001800011e0 f   BigConvexDataBuilder.obj
 0001:000001f0       ??__EmaxV3Error@_VecMathTests@aos@shdfnd@physx@@YAXXZ 00000001800011f0 f   BigConvexDataBuilder.obj
 0001:00000200       ??__EmaxV4Error@_VecMathTests@aos@shdfnd@physx@@YAXXZ 0000000180001200 f   BigConvexDataBuilder.obj
 0001:00000210       ??__EminFError@_VecMathTests@aos@shdfnd@physx@@YAXXZ 0000000180001210 f   BigConvexDataBuilder.obj
 0001:00000220       ??__EminV3Error@_VecMathTests@aos@shdfnd@physx@@YAXXZ 0000000180001220 f   BigConvexDataBuilder.obj
 0001:00000230       ??__EminV4Error@_VecMathTests@aos@shdfnd@physx@@YAXXZ 0000000180001230 f   BigConvexDataBuilder.obj
 0001:00000240       ??__EmaxFError@_VecMathTests@aos@shdfnd@physx@@YAXXZ 0000000180001240 f   ConvexHullBuilder.obj
 0001:00000250       ??__EmaxV3Error@_VecMathTests@aos@shdfnd@physx@@YAXXZ 0000000180001250 f   ConvexHullBuilder.obj
 0001:00000260       ??__EmaxV4Error@_VecMathTests@aos@shdfnd@physx@@YAXXZ 0000000180001260 f   ConvexHullBuilder.obj
 0001:00000270       ??__EminFError@_VecMathTests@aos@shdfnd@physx@@YAXXZ 0000000180001270 f   ConvexHullBuilder.obj
 0001:00000280       ??__EminV3Error@_VecMathTests@aos@shdfnd@physx@@YAXXZ 0000000180001280 f   ConvexHullBuilder.obj
 0001:00000290       ??__EminV4Error@_VecMathTests@aos@shdfnd@physx@@YAXXZ 0000000180001290 f   ConvexHullBuilder.obj
 0001:000002a0       ??__EmaxFError@_VecMathTests@aos@shdfnd@physx@@YAXXZ 00000001800012a0 f   ConvexHullUtils.obj
 0001:000002b0       ??__EmaxV3Error@_VecMathTests@aos@shdfnd@physx@@YAXXZ 00000001800012b0 f   ConvexHullUtils.obj
 0001:000002c0       ??__EmaxV4Error@_VecMathTests@aos@shdfnd@physx@@YAXXZ 00000001800012c0 f   ConvexHullUtils.obj
 0001:000002d0       ??__EminFError@_VecMathTests@aos@shdfnd@physx@@YAXXZ 00000001800012d0 f   ConvexHullUtils.obj
 0001:000002e0       ??__EminV3Error@_VecMathTests@aos@shdfnd@physx@@YAXXZ 00000001800012e0 f   ConvexHullUtils.obj
 0001:000002f0       ??__EminV4Error@_VecMathTests@aos@shdfnd@physx@@YAXXZ 00000001800012f0 f   ConvexHullUtils.obj
 0001:00000300       ??__EmaxFError@_VecMathTests@aos@shdfnd@physx@@YAXXZ 0000000180001300 f   ConvexMeshBuilder.obj
 0001:00000310       ??__EmaxV3Error@_VecMathTests@aos@shdfnd@physx@@YAXXZ 0000000180001310 f   ConvexMeshBuilder.obj
 0001:00000320       ??__EmaxV4Error@_VecMathTests@aos@shdfnd@physx@@YAXXZ 0000000180001320 f   ConvexMeshBuilder.obj
 0001:00000330       ??__EminFError@_VecMathTests@aos@shdfnd@physx@@YAXXZ 0000000180001330 f   ConvexMeshBuilder.obj
 0001:00000340       ??__EminV3Error@_VecMathTests@aos@shdfnd@physx@@YAXXZ 0000000180001340 f   ConvexMeshBuilder.obj
 0001:00000350       ??__EminV4Error@_VecMathTests@aos@shdfnd@physx@@YAXXZ 0000000180001350 f   ConvexMeshBuilder.obj
 0001:00000360       ??__EmaxFError@_VecMathTests@aos@shdfnd@physx@@YAXXZ 0000000180001360 f   VolumeIntegration.obj
 0001:00000370       ??__EmaxV3Error@_VecMathTests@aos@shdfnd@physx@@YAXXZ 0000000180001370 f   VolumeIntegration.obj
 0001:00000380       ??__EmaxV4Error@_VecMathTests@aos@shdfnd@physx@@YAXXZ 0000000180001380 f   VolumeIntegration.obj
 0001:00000390       ??__EminFError@_VecMathTests@aos@shdfnd@physx@@YAXXZ 0000000180001390 f   VolumeIntegration.obj
 0001:000003a0       ??__EminV3Error@_VecMathTests@aos@shdfnd@physx@@YAXXZ 00000001800013a0 f   VolumeIntegration.obj
 0001:000003b0       ??__EminV4Error@_VecMathTests@aos@shdfnd@physx@@YAXXZ 00000001800013b0 f   VolumeIntegration.obj
 0001:00000650       ?CreateDatabase@@YA_NPEAVAdjTriangle@physx@@IPEBVAdjEdge@@AEBUADJACENCIESCREATE@2@@Z 0000000180001650 f   Adjacencies.obj
 0001:00000c60       ?UpdateLink@@YA_NIIIIPEAVAdjTriangle@physx@@AEBUADJACENCIESCREATE@2@@Z 0000000180001c60 f   Adjacencies.obj
 0001:00008c10       ?buildFromBounds@physx@@YAXAEAURTree@Gu@1@PEBUPxBounds3V@1@IAEAV?$Array@IVNamedAllocator@shdfnd@physx@@@shdfnd@1@PEAURemapCallback@RTreeCooker@1@AEAT__m128@@4MW4Enum@PxMeshCookingHint@1@@Z 0000000180009c10 f   RTreeCooking.obj
 0001:0000cd90       ?buildAdjacencies@physx@@YAXPEAUuint4@1@PEAVPxVec3@1@PEBV31@PEBUuint3@1@I@Z 000000018000dd90 f   TriangleMeshBuilder.obj
 0001:0000e3d0       ?findAdjacent@physx@@YAIPEBVPxVec3@1@0PEBUuint3@1@IIIAEBVPxPlane@1@PEAUEdgeTriLookup@1@I@Z 000000018000f3d0 f   TriangleMeshBuilder.obj
 0001:00013250       ?checkPointsAABBValidity@local@@YA_NIPEBVPxVec3@physx@@IMMAEAV23@1AEAIPEAV23@_N@Z 0000000180014250 f   ConvexHullLib.obj
 0001:000186d0       ?ComputeInternalExtent@@YAXAEAUConvexHullData@Gu@physx@@PEBUHullPolygonData@23@@Z 00000001800196d0 f   ConvexMeshBuilder.obj
 0001:00019af0       ?CheckFloodFillFace@Local@?7??extractHullPolygons@@YA_NAEAIAEAV?$Array@IVNamedAllocator@shdfnd@physx@@@shdfnd@physx@@AEBVConvexPolygonsBuilder@5@PEAV345@1@Z@SA_NIPEBVAdjTriangle@5@PEBI@Z 000000018001aaf0 f   ConvexPolygonsBuilder.obj
 0001:0001a0e0       ?FloodFill@Local@?7??extractHullPolygons@@YA_NAEAIAEAV?$Array@IVNamedAllocator@shdfnd@physx@@@shdfnd@physx@@AEBVConvexPolygonsBuilder@5@PEAV345@1@Z@SAX1PEBVAdjTriangle@5@IPEA_N@Z 000000018001b0e0 f   ConvexPolygonsBuilder.obj
 0001:0001a1c0       ?TestDuplicateTriangles@@YA_NAEAIPEAU?$TriangleT@I@Gu@physx@@_N@Z 000000018001b1c0 f   ConvexPolygonsBuilder.obj
 0001:0001a350       ?checkRedundantVertices@@YAXAEAIAEAV?$Array@IVNamedAllocator@shdfnd@physx@@@shdfnd@physx@@AEBVConvexPolygonsBuilder@3@11@Z 000000018001b350 f   ConvexPolygonsBuilder.obj
 0001:0001d0d0       ?extractHullPolygons@@YA_NAEAIAEAV?$Array@IVNamedAllocator@shdfnd@physx@@@shdfnd@physx@@AEBVConvexPolygonsBuilder@3@PEAV123@1@Z 000000018001e0d0 f   ConvexPolygonsBuilder.obj
 0001:0001db60       ?findLineStrip@@YA_NAEAV?$Array@IVNamedAllocator@shdfnd@physx@@@shdfnd@physx@@AEBV?$Array@VPair@@VNamedAllocator@shdfnd@physx@@@23@@Z 000000018001eb60 f   ConvexPolygonsBuilder.obj
 0001:00024de0       ?computeVolumeIntegrals@VolumeIntegratorEberly@?A0xebc0dd8a@physx@@QEAA_NAEAUPxIntegrals@3@AEBVPxVec3@3@@Z 0000000180025de0 f   VolumeIntegration.obj
 0001:000258e0       ?computeVolumeIntegralsSIMD@VolumeIntegratorEberly@?A0xebc0dd8a@physx@@QEAA_NAEAUPxIntegrals@3@AEBVPxVec3@3@@Z 00000001800268e0 f   VolumeIntegration.obj
 0001:00025fa0       $LN24                      0000000180026fa0     WindowsCookingDelayLoadHook.obj
 0001:00026b30       $$000000                   0000000180027b30     LIBCMT:chkstk.obj
 0001:00026b90       ?<lambda_invoker_cdecl>@_Closure_wrapper_807afafe_2@@CAXQEAX@Z 0000000180027b90 f   libvcruntime:std_type_info.obj
 0001:00026ba0       $$000000                   0000000180027ba0     LIBCMT:svml_ssinf4_dispatch.obj
 0001:00026c10       ?dllmain_crt_dispatch@@YAHQEAUHINSTANCE__@@KQEAX@Z 0000000180027c10 f   LIBCMT:dll_dllmain.obj
 0001:00026c60       ?dllmain_crt_process_attach@@YAHQEAUHINSTANCE__@@QEAX@Z 0000000180027c60 f   LIBCMT:dll_dllmain.obj
 0001:00026d78       ?dllmain_crt_process_detach@@YAH_N@Z 0000000180027d78 f   LIBCMT:dll_dllmain.obj
 0001:00026dfc       ?dllmain_dispatch@@YAHQEAUHINSTANCE__@@KQEAX@Z 0000000180027dfc f   LIBCMT:dll_dllmain.obj
 0001:00027120       $$000000                   0000000180028120     LIBCMT:svml_ssinf4_sse2.obj
 0001:00027a60       $$000000                   0000000180028a60     LIBCMT:svml_ssinf4_sse4.obj
 0001:000287b0       $$000000                   00000001800297b0     LIBCMT:svml_s_sin_cout.obj
 0001:00028854       ?<lambda_invoker_cdecl>@_Closure_wrapper_807afafe_1@@CAPEAX_K@Z 0000000180029854 f   libvcruntime:std_type_info.obj
 0001:000289d0       $$000000                   00000001800299d0     libvcruntime:memset.obj
 0001:00028b90       $$000000                   0000000180029b90     libvcruntime:memcpy.obj
 0001:00029d1c       ??1TrackRecursion@?1??getDecoratedName@UnDecorator@@CA?AVDName@@XZ@QEAA@XZ 000000018002ad1c f   libvcruntime:undname.obj
 0001:00031520       $$000000                   0000000180032520     libvcruntime:notify.obj
 0001:00032490       ?try_get_function@@YAPEAXW4function_id@?A0xa2c972ab@@QEBDQEBW4module_id@2@2@Z 0000000180033490 f   libvcruntime:winapi_downlevel.obj
 0001:0003296c       ??$BuildCatchObjectHelperInternal@V__FrameHandler3@@@@YAHPEAUEHExceptionRecord@@PEAXPEBU_s_HandlerType@@PEBU_s_CatchableType@@@Z 000000018003396c f   libvcruntime:frame.obj
 0001:00032b6c       ??$BuildCatchObjectHelperInternal@V__FrameHandler4@@@@YAHPEAUEHExceptionRecord@@PEAXPEAUHandlerType4@FH4@@PEBU_s_CatchableType@@@Z 0000000180033b6c f   libvcruntime:frame.obj
 0001:00032d70       ??$BuildCatchObjectInternal@V__FrameHandler3@@@@YAXPEAUEHExceptionRecord@@PEAXPEBU_s_HandlerType@@PEBU_s_CatchableType@@@Z 0000000180033d70 f   libvcruntime:frame.obj
 0001:00032e30       ??$BuildCatchObjectInternal@V__FrameHandler4@@@@YAXPEAUEHExceptionRecord@@PEAXPEAUHandlerType4@FH4@@PEBU_s_CatchableType@@@Z 0000000180033e30 f   libvcruntime:frame.obj
 0001:00032ef4       ??$CatchIt@V__FrameHandler3@@@@YAXPEAUEHExceptionRecord@@PEA_KPEAU_CONTEXT@@PEAU_xDISPATCHER_CONTEXT@@PEBU_s_FuncInfo@@PEBU_s_HandlerType@@PEBU_s_CatchableType@@PEBU_s_TryBlockMapEntry@@H1EE@Z 0000000180033ef4 f   libvcruntime:frame.obj
 0001:00032fc8       ??$CatchIt@V__FrameHandler4@@@@YAXPEAUEHExceptionRecord@@PEA_KPEAU_CONTEXT@@PEAU_xDISPATCHER_CONTEXT@@PEAUFuncInfo4@FH4@@PEAUHandlerType4@4@PEBU_s_CatchableType@@PEAUTryBlockMapEntry4@4@H1EE@Z 0000000180033fc8 f   libvcruntime:frame.obj
 0001:0003309c       ??$FindHandler@V__FrameHandler3@@@@YAXPEAUEHExceptionRecord@@PEA_KPEAU_CONTEXT@@PEAU_xDISPATCHER_CONTEXT@@PEBU_s_FuncInfo@@EH1@Z 000000018003409c f   libvcruntime:frame.obj
 0001:00033564       ??$FindHandler@V__FrameHandler4@@@@YAXPEAUEHExceptionRecord@@PEA_KPEAU_CONTEXT@@PEAU_xDISPATCHER_CONTEXT@@PEAUFuncInfo4@FH4@@EH1@Z 0000000180034564 f   libvcruntime:frame.obj
 0001:00033a60       ??$FindHandlerForForeignException@V__FrameHandler3@@@@YAXPEAUEHExceptionRecord@@PEA_KPEAU_CONTEXT@@PEAU_xDISPATCHER_CONTEXT@@PEBU_s_FuncInfo@@HH1@Z 0000000180034a60 f   libvcruntime:frame.obj
 0001:00033c78       ??$FindHandlerForForeignException@V__FrameHandler4@@@@YAXPEAUEHExceptionRecord@@PEA_KPEAU_CONTEXT@@PEAU_xDISPATCHER_CONTEXT@@PEAUFuncInfo4@FH4@@HH1@Z 0000000180034c78 f   libvcruntime:frame.obj
 0001:00034eb8       ?ExFilterRethrow@@YAHPEAU_EXCEPTION_POINTERS@@PEAUEHExceptionRecord@@PEAH@Z 0000000180035eb8 f   libvcruntime:frame.obj
 0001:00034f40       ?ExFilterRethrowFH4@@YAHPEAU_EXCEPTION_POINTERS@@PEAUEHExceptionRecord@@HPEAH@Z 0000000180035f40 f   libvcruntime:frame.obj
 0001:0003547c       ?IsInExceptionSpec@@YAEPEAUEHExceptionRecord@@PEBU_s_ESTypeList@@@Z 000000018003647c f   libvcruntime:frame.obj
 0001:0003556c       ?Is_bad_exception_allowed@@YAEPEBU_s_ESTypeList@@@Z 000000018003656c f   libvcruntime:frame.obj
 0001:00035860       $$000000                   0000000180036860     libvcruntime:handlers.obj
 0001:00035ac0       $$000000                   0000000180036ac0     libucrt:strcmp.obj
 0001:00035fc0       $$000000                   0000000180036fc0     libucrt:cosf.obj
 0001:000364c0       $$000000                   00000001800374c0     libucrt:sinf.obj
 0001:00036df0       ??$?RV<lambda_d80eeec6fff315bfe5c115232f3240e3>@@AEAV<lambda_6e4b09c48022b2350581041d5f6b0c4c>@@V<lambda_2358e3775559c9db80273638284d5e45>@@@?$__crt_seh_guarded_call@X@@QEAAX$$QEAV<lambda_d80eeec6fff315bfe5c115232f3240e3>@@AEAV<lambda_6e4b09c48022b2350581041d5f6b0c4c>@@$$QEAV<lambda_2358e3775559c9db80273638284d5e45>@@@Z 0000000180037df0 f   libucrt:exit.obj
 0001:00036e28       ??R<lambda_6e4b09c48022b2350581041d5f6b0c4c>@@QEBA@XZ 0000000180037e28 f   libucrt:exit.obj
 0001:00036ef4       ?common_exit@@YAXHW4_crt_exit_cleanup_mode@@W4_crt_exit_return_mode@@@Z 0000000180037ef4 f   libucrt:exit.obj
 0001:00036fbc       ?exit_or_terminate_process@@YAXI@Z 0000000180037fbc f   libucrt:exit.obj
 0001:00036ff0       ?should_call_terminate_process@@YA_NXZ 0000000180037ff0 f   libucrt:exit.obj
 0001:00037014       ?try_cor_exit_process@@YAXI@Z 0000000180038014 f   libucrt:exit.obj
 0001:000370b0       ??$parse_command_line@D@@YAXPEADPEAPEAD0PEA_K2@Z 00000001800380b0 f   libucrt:argv_parsing.obj
 0001:00037460       ??$common_initialize_environment_nolock@D@@YAHXZ 0000000180038460 f   libucrt:environment_initialization.obj
 0001:000374d4       ??$create_environment@D@@YAQEAPEADQEAD@Z 00000001800384d4 f   libucrt:environment_initialization.obj
 0001:000375e4       ??$free_environment@D@@YAXQEAPEAD@Z 00000001800385e4 f   libucrt:environment_initialization.obj
 0001:000375e4       ??$free_environment@_W@@YAXQEAPEA_W@Z 00000001800385e4 f   libucrt:environment_initialization.obj
 0001:00037628       ??$uninitialize_environment_internal@D@@YAXAEAPEAPEAD@Z 0000000180038628 f   libucrt:environment_initialization.obj
 0001:00037644       ??$uninitialize_environment_internal@_W@@YAXAEAPEAPEA_W@Z 0000000180038644 f   libucrt:environment_initialization.obj
 0001:000376ac       ??$?RV<lambda_7777bce6b2f8c936911f934f8298dc43>@@AEAV<lambda_f03950bc5685219e0bcd2087efbe011e>@@V<lambda_3883c3dff614d5e0c5f61bb1ac94921c>@@@?$__crt_seh_guarded_call@H@@QEAAH$$QEAV<lambda_7777bce6b2f8c936911f934f8298dc43>@@AEAV<lambda_f03950bc5685219e0bcd2087efbe011e>@@$$QEAV<lambda_3883c3dff614d5e0c5f61bb1ac94921c>@@@Z 00000001800386ac f   libucrt:onexit.obj
 0001:000376e8       ??R<lambda_f03950bc5685219e0bcd2087efbe011e>@@QEBA@XZ 00000001800386e8 f   libucrt:onexit.obj
 0001:00037874       initialize_global_variables 0000000180038874 f   libucrt:initialization.obj
 0001:00037888       initialize_c               0000000180038888 f   libucrt:initialization.obj
 0001:000378ac       initialize_environment     00000001800388ac f   libucrt:initialization.obj
 0001:000378ac       initialize_global_state_isolation 00000001800388ac f   libucrt:initialization.obj
 0001:000378ac       report_memory_leaks        00000001800388ac f   libucrt:initialization.obj
 0001:000378ac       uninitialize_c             00000001800388ac f   libucrt:initialization.obj
 0001:000378ac       uninitialize_global_state_isolation 00000001800388ac f   libucrt:initialization.obj
 0001:000378b0       uninitialize_environment   00000001800388b0 f   libucrt:initialization.obj
 0001:000378c0       initialize_pointers        00000001800388c0 f   libucrt:initialization.obj
 0001:00037900       uninitialize_vcruntime     0000000180038900 f   libucrt:initialization.obj
 0001:00037908       uninitialize_allocated_memory 0000000180038908 f   libucrt:initialization.obj
 0001:00037948       uninitialize_allocated_io_buffers 0000000180038948 f   libucrt:initialization.obj
 0001:00037b10       ??$common_vsprintf@Vformat_validation_base@__crt_stdio_output@@D@@YAH_KQEAD0QEBDAEAV__crt_cached_ptd_host@@1@Z 0000000180038b10 f   libucrt:output.obj
 0001:00039f30       $$000000                   000000018003af30     libucrt:strncmp.obj
 0001:0003a0c4       _call_matherr              000000018003b0c4 f   libucrt:libm_error.obj
 0001:0003a12c       _exception_enabled         000000018003b12c f   libucrt:libm_error.obj
 0001:0003a470       $$000000                   000000018003b470     libucrt:remainder_piby2f_forasm.obj
 0001:0003a5c0       $$000000                   000000018003b5c0     libucrt:remainder_piby2_forfma3.obj
 0001:0003a83c       _sincosf_special           000000018003b83c f   libucrt:sincos_special.obj
 0001:0003a950       $$000000                   000000018003b950     libucrt:remainder_piby2f_forc.obj
 0001:0003ab18       ??$?RV<lambda_0ae27a3a962d80f24befdcbee591983d>@@AEAV<lambda_8d0ee55de4b1038c4002e0adecdf1839>@@V<lambda_dc504788e8f1664fe9b84e20bfb512f2>@@@?$__crt_seh_guarded_call@X@@QEAAX$$QEAV<lambda_0ae27a3a962d80f24befdcbee591983d>@@AEAV<lambda_8d0ee55de4b1038c4002e0adecdf1839>@@$$QEAV<lambda_dc504788e8f1664fe9b84e20bfb512f2>@@@Z 000000018003bb18 f   libucrt:per_thread_data.obj
 0001:0003ab58       ??$?RV<lambda_2d41944a1d46af3157314b8a01080d33>@@AEAV<lambda_8f455de75cd7d7f24b4096f044d8b9e6>@@V<lambda_aa500f224e6afead328df44964fe2772>@@@?$__crt_seh_guarded_call@X@@QEAAX$$QEAV<lambda_2d41944a1d46af3157314b8a01080d33>@@AEAV<lambda_8f455de75cd7d7f24b4096f044d8b9e6>@@$$QEAV<lambda_aa500f224e6afead328df44964fe2772>@@@Z 000000018003bb58 f   libucrt:per_thread_data.obj
 0001:0003ab98       ??$?RV<lambda_aa87e3671a710a21b5dc78c0bdf72e11>@@AEAV<lambda_92619d2358a28f41a33ba319515a20b9>@@V<lambda_6992ecaafeb10aed2b74cb1fae11a551>@@@?$__crt_seh_guarded_call@X@@QEAAX$$QEAV<lambda_aa87e3671a710a21b5dc78c0bdf72e11>@@AEAV<lambda_92619d2358a28f41a33ba319515a20b9>@@$$QEAV<lambda_6992ecaafeb10aed2b74cb1fae11a551>@@@Z 000000018003bb98 f   libucrt:per_thread_data.obj
 0001:0003abe0       ??$?RV<lambda_f2e299630e499de9f9a165e60fcd3db5>@@AEAV<lambda_2ae9d31cdba2644fcbeaf08da7c24588>@@V<lambda_40d01ff24d0e7b3814fdbdcee8eab3c7>@@@?$__crt_seh_guarded_call@X@@QEAAX$$QEAV<lambda_f2e299630e499de9f9a165e60fcd3db5>@@AEAV<lambda_2ae9d31cdba2644fcbeaf08da7c24588>@@$$QEAV<lambda_40d01ff24d0e7b3814fdbdcee8eab3c7>@@@Z 000000018003bbe0 f   libucrt:per_thread_data.obj
 0001:0003ac40       ?construct_ptd_array@@YAXQEAU__acrt_ptd@@@Z 000000018003bc40 f   libucrt:per_thread_data.obj
 0001:0003ad10       ?destroy_fls@@YAXPEAX@Z    000000018003bd10 f   libucrt:per_thread_data.obj
 0001:0003ad30       ?destroy_ptd_array@@YAXQEAU__acrt_ptd@@@Z 000000018003bd30 f   libucrt:per_thread_data.obj
 0001:0003ae28       ?replace_current_thread_locale_nolock@@YAXQEAU__acrt_ptd@@QEAU__crt_locale_data@@@Z 000000018003be28 f   libucrt:per_thread_data.obj
 0001:0003b8a8       ?<lambda_invoker_cdecl>@<lambda_a1ce4c8ae42411fd470c77163914f50e>@@CAHPEBX0@Z 000000018003c8a8 f   libucrt:argv_wildcards.obj
 0001:0003bbc4       ??$common_expand_argv_wildcards@D@@YAHQEAPEADQEAPEAPEAD@Z 000000018003cbc4 f   libucrt:argv_wildcards.obj
 0001:0003be08       ??$copy_and_add_argument_to_buffer@D@@YAHQEBD0_KAEAV?$argument_list@D@?A0x5f5c8891@@@Z 000000018003ce08 f   libucrt:argv_wildcards.obj
 0001:0003bf8c       ??$expand_argument_wildcards@D@@YAHQEAD0AEAV?$argument_list@D@?A0x5f5c8891@@@Z 000000018003cf8c f   libucrt:argv_wildcards.obj
 0001:0003c5c0       ??$?RV<lambda_efdfa57d1f175319df784efa44bb7b81>@@AEAV<lambda_5f0a4c1567f8adc6734073e5d1e1b35c>@@V<lambda_2e8a7d3640ea6ccb4c2413664c2db6fd>@@@?$__crt_seh_guarded_call@X@@QEAAX$$QEAV<lambda_efdfa57d1f175319df784efa44bb7b81>@@AEAV<lambda_5f0a4c1567f8adc6734073e5d1e1b35c>@@$$QEAV<lambda_2e8a7d3640ea6ccb4c2413664c2db6fd>@@@Z 000000018003d5c0 f   libucrt:mbctype.obj
 0001:0003c790       ?getSystemCP@@YAHH@Z       000000018003d790 f   libucrt:mbctype.obj
 0001:0003c810       ?setSBCS@@YAXPEAU__crt_multibyte_data@@@Z 000000018003d810 f   libucrt:mbctype.obj
 0001:0003c8a8       ?setSBUpLow@@YAXPEAU__crt_multibyte_data@@@Z 000000018003d8a8 f   libucrt:mbctype.obj
 0001:0003ca90       ?setmbcp_internal@@YAHH_NQEAU__acrt_ptd@@QEAPEAU__crt_multibyte_data@@@Z 000000018003da90 f   libucrt:mbctype.obj
 0001:0003cd00       ?update_thread_multibyte_data_internal@@YAPEAU__crt_multibyte_data@@QEAU__acrt_ptd@@QEAPEAU1@@Z 000000018003dd00 f   libucrt:mbctype.obj
 0001:0003d0f4       ?x_ismbbtype_l@@YAHPEAU__crt_locale_pointers@@IHH@Z 000000018003e0f4 f   libucrt:ismbbyte.obj
 0001:0003d4bc       ?try_get_function@@YAPEAXW4function_id@?A0x391cf84c@@QEBDQEBW4module_id@2@2@Z 000000018003e4bc f   libucrt:winapi_thunks.obj
 0001:0003d980       ?initialize_inherited_file_handles_nolock@@YAXXZ 000000018003e980 f   libucrt:ioinit.obj
 0001:0003da70       ?initialize_stdio_handles_nolock@@YAXXZ 000000018003ea70 f   libucrt:ioinit.obj
 0001:0003dd50       ??$?RV<lambda_450d765d439847d4c735a33c368b5fc0>@@AEAV<lambda_44731a7d0e6d81c3e6aa82d741081786>@@V<lambda_601a2a7da3b7a96e9554ac7215c4b07c>@@@?$__crt_seh_guarded_call@P6AXH@Z@@QEAAP6AXH@Z$$QEAV<lambda_450d765d439847d4c735a33c368b5fc0>@@AEAV<lambda_44731a7d0e6d81c3e6aa82d741081786>@@$$QEAV<lambda_601a2a7da3b7a96e9554ac7215c4b07c>@@@Z 000000018003ed50 f   libucrt:signal.obj
 0001:0003e0c8       ??$?RV<lambda_842d9ff0dc9ef11c61343bbaebe7f885>@@AEAV<lambda_c5860995281e5c4ce005b3de8f5874ee>@@V<lambda_d90129c13df834fdcbf8d2b88dafcf2d>@@@?$__crt_seh_guarded_call@X@@QEAAX$$QEAV<lambda_842d9ff0dc9ef11c61343bbaebe7f885>@@AEAV<lambda_c5860995281e5c4ce005b3de8f5874ee>@@$$QEAV<lambda_d90129c13df834fdcbf8d2b88dafcf2d>@@@Z 000000018003f0c8 f   libucrt:fflush.obj
 0001:0003e164       ??$?RV<lambda_886d6c58226a84441f68b9f2b8217b83>@@AEAV<lambda_ab61a845afdef5b7c387490eaf3616ee>@@V<lambda_f7f22ab5edc0698d5f6905b0d3f44752>@@@?$__crt_seh_guarded_call@X@@QEAAX$$QEAV<lambda_886d6c58226a84441f68b9f2b8217b83>@@AEAV<lambda_ab61a845afdef5b7c387490eaf3616ee>@@$$QEAV<lambda_f7f22ab5edc0698d5f6905b0d3f44752>@@@Z 000000018003f164 f   libucrt:fflush.obj
 0001:0003e248       ?common_flush_all@@YAH_N@Z 000000018003f248 f   libucrt:fflush.obj
 0001:0003ea04       ?fp_format_a@@YAHQEBNPEAD_KQEAD2H_NIW4__acrt_rounding_mode@@AEAV__crt_cached_ptd_host@@@Z 000000018003fa04 f   libucrt:cvt.obj
 0001:0003ed9c       ?fp_format_e@@YAHQEBNQEAD_K12H_NIW4__acrt_rounding_mode@@AEAV__crt_cached_ptd_host@@@Z 000000018003fd9c f   libucrt:cvt.obj
 0001:0003ee98       ?fp_format_e_internal@@YAHQEAD_KH_NIQEAU_strflt@@2AEAV__crt_cached_ptd_host@@@Z 000000018003fe98 f   libucrt:cvt.obj
 0001:0003f07c       ?fp_format_f@@YAHQEBNQEAD_K12HW4__acrt_rounding_mode@@AEAV__crt_cached_ptd_host@@@Z 000000018004007c f   libucrt:cvt.obj
 0001:0003f154       ?fp_format_f_internal@@YAHQEAD_KHQEAU_strflt@@_NAEAV__crt_cached_ptd_host@@@Z 0000000180040154 f   libucrt:cvt.obj
 0001:0003f2ac       ?fp_format_g@@YAHQEBNQEAD_K12H_NIW4__acrt_rounding_mode@@AEAV__crt_cached_ptd_host@@@Z 00000001800402ac f   libucrt:cvt.obj
 0001:0003f400       ?should_round_up@@YA_NQEBN_KFW4__acrt_rounding_mode@@@Z 0000000180040400 f   libucrt:cvt.obj
 0001:0003fb68       ??$?RV<lambda_410d79af7f07d98d83a3f525b3859a53>@@AEAV<lambda_3e16ef9562a7dcce91392c22ab16ea36>@@V<lambda_38119f0e861e05405d8a144b9b982f0a>@@@?$__crt_seh_guarded_call@X@@QEAAX$$QEAV<lambda_410d79af7f07d98d83a3f525b3859a53>@@AEAV<lambda_3e16ef9562a7dcce91392c22ab16ea36>@@$$QEAV<lambda_38119f0e861e05405d8a144b9b982f0a>@@@Z 0000000180040b68 f   libucrt:wsetlocale.obj
 0001:0003fd50       $$000000                   0000000180040d50     libucrt:fpsr.obj
 0001:00040a50       fallbackMethod             0000000180041a50 f   libucrt:strpbrk.obj
 0001:00040dfc       $LN79                      0000000180041dfc     libucrt:strpbrk.obj
 0001:00040e38       $LN78                      0000000180041e38     libucrt:strpbrk.obj
 0001:00040e78       $LN77                      0000000180041e78     libucrt:strpbrk.obj
 0001:000410e4       ?__acrt_LCMapStringA_stat@@YAHPEAU__crt_locale_pointers@@PEB_WKPEBDHPEADHHH@Z 00000001800420e4 f   libucrt:lcmapstringa.obj
 0001:000414b0       ?initialize_multibyte@@YAHXZ 00000001800424b0 f   libucrt:multibyte_initializer.obj
 0001:00041948       ??$?RV<lambda_a37b2b86f63e897a80ea819b0eb08c01>@@AEAV<lambda_38ce7e780aa69e748d6df282ebc68efe>@@V<lambda_99fb1378e971ab6e7edea83e3a7a83a2>@@@?$__crt_seh_guarded_call@H@@QEAAH$$QEAV<lambda_a37b2b86f63e897a80ea819b0eb08c01>@@AEAV<lambda_38ce7e780aa69e748d6df282ebc68efe>@@$$QEAV<lambda_99fb1378e971ab6e7edea83e3a7a83a2>@@@Z 0000000180042948 f   libucrt:commit.obj
 0001:00041a68       ?write_double_translated_ansi_nolock@@YA?AUwrite_result@?A0x17268360@@HQEBDIAEAV__crt_cached_ptd_host@@@Z 0000000180042a68 f   libucrt:write.obj
 0001:00041ee0       ?write_text_ansi_nolock@@YA?AUwrite_result@?A0x17268360@@HQEBDI@Z 0000000180042ee0 f   libucrt:write.obj
 0001:00041fe4       ?write_text_utf16le_nolock@@YA?AUwrite_result@?A0x17268360@@HQEBDI@Z 0000000180042fe4 f   libucrt:write.obj
 0001:00042100       ?write_text_utf8_nolock@@YA?AUwrite_result@?A0x17268360@@HQEBDI@Z 0000000180043100 f   libucrt:write.obj
 0001:000427f0       ?should_round_up@@YA_NQEBD0HW4__acrt_has_trailing_digits@@W4__acrt_rounding_mode@@@Z 00000001800437f0 f   libucrt:_fptostr.obj
 0001:000440fc       memcpy_s                   00000001800450fc f   libucrt:cfout.obj
 0001:0004459c       ?free_crt_array_internal@@YAXQEAPEBX_K@Z 000000018004559c f   libucrt:inittime.obj
 0001:00044744       ??$common_lseek_nolock@_J@@YA_JH_JHAEAV__crt_cached_ptd_host@@@Z 0000000180045744 f   libucrt:lseek.obj
 0001:00044834       ?_fclose_internal@@YAHQEAU_iobuf@@AEAV__crt_cached_ptd_host@@@Z 0000000180045834 f   libucrt:fclose.obj
 0001:000448b0       ?_fclose_nolock_internal@@YAHQEAU_iobuf@@AEAV__crt_cached_ptd_host@@@Z 00000001800458b0 f   libucrt:fclose.obj
 0001:00044be0       $$000000                   0000000180045be0     libucrt:log10.obj
 0001:000457a8       ??$?RV<lambda_ad8af0d99a0adf03d037d7dffe354bb5>@@AEAV<lambda_c9ba49e555ba839a7b07aa3fbecb7617>@@V<lambda_2f1ebd5d68526518146ae959c9e734c8>@@@?$__crt_seh_guarded_call@H@@QEAAH$$QEAV<lambda_ad8af0d99a0adf03d037d7dffe354bb5>@@AEAV<lambda_c9ba49e555ba839a7b07aa3fbecb7617>@@$$QEAV<lambda_2f1ebd5d68526518146ae959c9e734c8>@@@Z 00000001800467a8 f   libucrt:close.obj
 0001:00045a44       common_control87           0000000180046a44 f   libucrt:ieee.obj
 0001:00045d00       _log_special_common        0000000180046d00 f   libucrt:log_special.obj
 0001:00045ef0       $$000000                   0000000180046ef0     LIBCMT:amdsecgs.obj
 0001:00046160       capture_current_context    0000000180047160 f   LIBCMT:gs_report.obj
 0001:000461d0       capture_previous_context   00000001800471d0 f   LIBCMT:gs_report.obj
 0001:00046440       $$000000                   0000000180047440     libvcruntime:memcmp.obj
 0001:00046520       $$000000                   0000000180047520     LIBCMT:guard_dispatch.obj
 0001:00046540       $$000000                   0000000180047540     LIBCMT:guard_xfg_dispatch.obj
 0001:00046560       ?fin$0@?0??dllmain_crt_process_attach@@YAHQEAUHINSTANCE__@@QEAX@Z@4HA 0000000180047560 f   LIBCMT:dll_dllmain.obj
 0001:00046577       ?fin$0@?0??dllmain_crt_process_detach@@YAH_N@Z@4HA 0000000180047577 f   LIBCMT:dll_dllmain.obj
 0001:00046590       ?fin$1@?0??dllmain_crt_process_detach@@YAH_N@Z@4HA 0000000180047590 f   LIBCMT:dll_dllmain.obj
 0001:000465a4       ?filt$0@?0??dllmain_dispatch@@YAHQEAUHINSTANCE__@@KQEAX@Z@4HA 00000001800475a4 f   LIBCMT:dll_dllmain.obj
 0001:000465da       __scrt_is_nonwritable_in_current_image$filt$0 00000001800475da f   LIBCMT:utility.obj
 0001:000465f2       __DestructExceptionObject$filt$0 00000001800475f2 f   libvcruntime:ehhelpers.obj
 0001:00046688       ?dtor$0@?0??getDecoratedName@UnDecorator@@CA?AVDName@@XZ@4HA 0000000180047688 f   libvcruntime:undname.obj
 0001:00046694       __unDNameEx$fin$0          0000000180047694 f   libvcruntime:undname.obj
 0001:000466aa       ?filt$0@?0???$_CallSETranslator@V__FrameHandler3@@@@YAHPEAUEHExceptionRecord@@PEA_KPEAU_CONTEXT@@PEAU_xDISPATCHER_CONTEXT@@PEBU_s_FuncInfo@@K1H@Z@4HA 00000001800476aa f   libvcruntime:risctrnsctrl.obj
 0001:0004673b       ?filt$0@?0???$_CallSETranslator@V__FrameHandler4@@@@YAHPEAUEHExceptionRecord@@PEA_KPEAU_CONTEXT@@PEAU_xDISPATCHER_CONTEXT@@PEAUFuncInfo4@FH4@@K1H@Z@4HA 000000018004773b f   libvcruntime:risctrnsctrl.obj
 0001:000467da       ?filt$0@?0??CxxCallCatchBlock@__FrameHandler3@@SAPEAXPEAU_EXCEPTION_RECORD@@@Z@4HA 00000001800477da f   libvcruntime:frame.obj
 0001:000467ff       ?fin$1@?0??CxxCallCatchBlock@__FrameHandler3@@SAPEAXPEAU_EXCEPTION_RECORD@@@Z@4HA 00000001800477ff f   libvcruntime:frame.obj
 0001:00046877       ?filt$0@?0??CxxCallCatchBlock@__FrameHandler4@@SAPEAXPEAU_EXCEPTION_RECORD@@@Z@4HA 0000000180047877 f   libvcruntime:frame.obj
 0001:000468a6       ?fin$1@?0??CxxCallCatchBlock@__FrameHandler4@@SAPEAXPEAU_EXCEPTION_RECORD@@@Z@4HA 00000001800478a6 f   libvcruntime:frame.obj
 0001:00046929       ?filt$0@?0??FrameUnwindToState@__FrameHandler3@@SAXPEA_KPEAU_xDISPATCHER_CONTEXT@@PEBU_s_FuncInfo@@H@Z@4HA 0000000180047929 f   libvcruntime:frame.obj
 0001:0004693f       ?fin$1@?0??FrameUnwindToState@__FrameHandler3@@SAXPEA_KPEAU_xDISPATCHER_CONTEXT@@PEBU_s_FuncInfo@@H@Z@4HA 000000018004793f f   libvcruntime:frame.obj
 0001:00046962       ?filt$0@?0??FrameUnwindToState@__FrameHandler4@@SAXPEA_KPEAU_xDISPATCHER_CONTEXT@@PEAUFuncInfo4@FH4@@H@Z@4HA 0000000180047962 f   libvcruntime:frame.obj
 0001:00046978       ?fin$1@?0??FrameUnwindToState@__FrameHandler4@@SAXPEA_KPEAU_xDISPATCHER_CONTEXT@@PEAUFuncInfo4@FH4@@H@Z@4HA 0000000180047978 f   libvcruntime:frame.obj
 0001:0004699b       ?fin$0@?0???$?RV<lambda_0ae27a3a962d80f24befdcbee591983d>@@AEAV<lambda_8d0ee55de4b1038c4002e0adecdf1839>@@V<lambda_dc504788e8f1664fe9b84e20bfb512f2>@@@?$__crt_seh_guarded_call@X@@QEAAX$$QEAV<lambda_0ae27a3a962d80f24befdcbee591983d>@@AEAV<lambda_8d0ee55de4b1038c4002e0adecdf1839>@@$$QEAV<lambda_dc504788e8f1664fe9b84e20bfb512f2>@@@Z@4HA 000000018004799b f   libucrt:per_thread_data.obj
 0001:0004699b       ?fin$0@?0???$?RV<lambda_2d41944a1d46af3157314b8a01080d33>@@AEAV<lambda_8f455de75cd7d7f24b4096f044d8b9e6>@@V<lambda_aa500f224e6afead328df44964fe2772>@@@?$__crt_seh_guarded_call@X@@QEAAX$$QEAV<lambda_2d41944a1d46af3157314b8a01080d33>@@AEAV<lambda_8f455de75cd7d7f24b4096f044d8b9e6>@@$$QEAV<lambda_aa500f224e6afead328df44964fe2772>@@@Z@4HA 000000018004799b f   libucrt:per_thread_data.obj
 0001:0004699b       ?fin$0@?0???$?RV<lambda_aa87e3671a710a21b5dc78c0bdf72e11>@@AEAV<lambda_92619d2358a28f41a33ba319515a20b9>@@V<lambda_6992ecaafeb10aed2b74cb1fae11a551>@@@?$__crt_seh_guarded_call@X@@QEAAX$$QEAV<lambda_aa87e3671a710a21b5dc78c0bdf72e11>@@AEAV<lambda_92619d2358a28f41a33ba319515a20b9>@@$$QEAV<lambda_6992ecaafeb10aed2b74cb1fae11a551>@@@Z@4HA 000000018004799b f   libucrt:per_thread_data.obj
 0001:0004699b       ?fin$0@?0???$?RV<lambda_f2e299630e499de9f9a165e60fcd3db5>@@AEAV<lambda_2ae9d31cdba2644fcbeaf08da7c24588>@@V<lambda_40d01ff24d0e7b3814fdbdcee8eab3c7>@@@?$__crt_seh_guarded_call@X@@QEAAX$$QEAV<lambda_f2e299630e499de9f9a165e60fcd3db5>@@AEAV<lambda_2ae9d31cdba2644fcbeaf08da7c24588>@@$$QEAV<lambda_40d01ff24d0e7b3814fdbdcee8eab3c7>@@@Z@4HA 000000018004799b f   libucrt:per_thread_data.obj
 0001:0004699b       ?fin$0@?0???$?RV<lambda_450d765d439847d4c735a33c368b5fc0>@@AEAV<lambda_44731a7d0e6d81c3e6aa82d741081786>@@V<lambda_601a2a7da3b7a96e9554ac7215c4b07c>@@@?$__crt_seh_guarded_call@P6AXH@Z@@QEAAP6AXH@Z$$QEAV<lambda_450d765d439847d4c735a33c368b5fc0>@@AEAV<lambda_44731a7d0e6d81c3e6aa82d741081786>@@$$QEAV<lambda_601a2a7da3b7a96e9554ac7215c4b07c>@@@Z@4HA 000000018004799b f   libucrt:signal.obj
 0001:0004699b       ?fin$0@?0???$?RV<lambda_d80eeec6fff315bfe5c115232f3240e3>@@AEAV<lambda_6e4b09c48022b2350581041d5f6b0c4c>@@V<lambda_2358e3775559c9db80273638284d5e45>@@@?$__crt_seh_guarded_call@X@@QEAAX$$QEAV<lambda_d80eeec6fff315bfe5c115232f3240e3>@@AEAV<lambda_6e4b09c48022b2350581041d5f6b0c4c>@@$$QEAV<lambda_2358e3775559c9db80273638284d5e45>@@@Z@4HA 000000018004799b f   libucrt:exit.obj
 0001:0004699b       ?fin$0@?0???$?RV<lambda_7777bce6b2f8c936911f934f8298dc43>@@AEAV<lambda_f03950bc5685219e0bcd2087efbe011e>@@V<lambda_3883c3dff614d5e0c5f61bb1ac94921c>@@@?$__crt_seh_guarded_call@H@@QEAAH$$QEAV<lambda_7777bce6b2f8c936911f934f8298dc43>@@AEAV<lambda_f03950bc5685219e0bcd2087efbe011e>@@$$QEAV<lambda_3883c3dff614d5e0c5f61bb1ac94921c>@@@Z@4HA 000000018004799b f   libucrt:onexit.obj
 0001:000469b5       ?filt$0@?0???R<lambda_6e4b09c48022b2350581041d5f6b0c4c>@@QEBA@XZ@4HA 00000001800479b5 f   libucrt:exit.obj
 0001:000469e2       _ctrlfp$filt$0             00000001800479e2 f   libucrt:fpctrl.obj
 0001:000469e2       common_control87$filt$0    00000001800479e2 f   libucrt:ieee.obj
 0001:00046a0e       ?fin$0@?0???$?RV<lambda_efdfa57d1f175319df784efa44bb7b81>@@AEAV<lambda_5f0a4c1567f8adc6734073e5d1e1b35c>@@V<lambda_2e8a7d3640ea6ccb4c2413664c2db6fd>@@@?$__crt_seh_guarded_call@X@@QEAAX$$QEAV<lambda_efdfa57d1f175319df784efa44bb7b81>@@AEAV<lambda_5f0a4c1567f8adc6734073e5d1e1b35c>@@$$QEAV<lambda_2e8a7d3640ea6ccb4c2413664c2db6fd>@@@Z@4HA 0000000180047a0e f   libucrt:mbctype.obj
 0001:00046a28       ?fin$0@?0??update_thread_multibyte_data_internal@@YAPEAU__crt_multibyte_data@@QEAU__acrt_ptd@@QEAPEAU1@@Z@4HA 0000000180047a28 f   libucrt:mbctype.obj
 0001:00046a41       __acrt_initialize_lowio$fin$0 0000000180047a41 f   libucrt:ioinit.obj
 0001:00046a41       __acrt_lowio_ensure_fh_exists$fin$0 0000000180047a41 f   libucrt:osfinfo.obj
 0001:00046a5a       _query_new_handler$fin$0   0000000180047a5a f   libucrt:new_handler.obj
 0001:00046a70       raise$fin$0                0000000180047a70 f   libucrt:signal.obj
 0001:00046a91       ?fin$0@?0???$?RV<lambda_842d9ff0dc9ef11c61343bbaebe7f885>@@AEAV<lambda_c5860995281e5c4ce005b3de8f5874ee>@@V<lambda_d90129c13df834fdcbf8d2b88dafcf2d>@@@?$__crt_seh_guarded_call@X@@QEAAX$$QEAV<lambda_842d9ff0dc9ef11c61343bbaebe7f885>@@AEAV<lambda_c5860995281e5c4ce005b3de8f5874ee>@@$$QEAV<lambda_d90129c13df834fdcbf8d2b88dafcf2d>@@@Z@4HA 0000000180047a91 f   libucrt:fflush.obj
 0001:00046aac       ?fin$0@?0???$?RV<lambda_886d6c58226a84441f68b9f2b8217b83>@@AEAV<lambda_ab61a845afdef5b7c387490eaf3616ee>@@V<lambda_f7f22ab5edc0698d5f6905b0d3f44752>@@@?$__crt_seh_guarded_call@X@@QEAAX$$QEAV<lambda_886d6c58226a84441f68b9f2b8217b83>@@AEAV<lambda_ab61a845afdef5b7c387490eaf3616ee>@@$$QEAV<lambda_f7f22ab5edc0698d5f6905b0d3f44752>@@@Z@4HA 0000000180047aac f   libucrt:fflush.obj
 0001:00046ac9       ?fin$0@?0???$?RV<lambda_410d79af7f07d98d83a3f525b3859a53>@@AEAV<lambda_3e16ef9562a7dcce91392c22ab16ea36>@@V<lambda_38119f0e861e05405d8a144b9b982f0a>@@@?$__crt_seh_guarded_call@X@@QEAAX$$QEAV<lambda_410d79af7f07d98d83a3f525b3859a53>@@AEAV<lambda_3e16ef9562a7dcce91392c22ab16ea36>@@$$QEAV<lambda_38119f0e861e05405d8a144b9b982f0a>@@@Z@4HA 0000000180047ac9 f   libucrt:wsetlocale.obj
 0001:00046ae3       __acrt_update_thread_locale_data$fin$0 0000000180047ae3 f   libucrt:locale_refcounting.obj
 0001:00046afc       ?fin$0@?0???$?RV<lambda_ad8af0d99a0adf03d037d7dffe354bb5>@@AEAV<lambda_c9ba49e555ba839a7b07aa3fbecb7617>@@V<lambda_2f1ebd5d68526518146ae959c9e734c8>@@@?$__crt_seh_guarded_call@H@@QEAAH$$QEAV<lambda_ad8af0d99a0adf03d037d7dffe354bb5>@@AEAV<lambda_c9ba49e555ba839a7b07aa3fbecb7617>@@$$QEAV<lambda_2f1ebd5d68526518146ae959c9e734c8>@@@Z@4HA 0000000180047afc f   libucrt:close.obj
 0001:00046afc       ?fin$0@?0???$?RV<lambda_a37b2b86f63e897a80ea819b0eb08c01>@@AEAV<lambda_38ce7e780aa69e748d6df282ebc68efe>@@V<lambda_99fb1378e971ab6e7edea83e3a7a83a2>@@@?$__crt_seh_guarded_call@H@@QEAAH$$QEAV<lambda_a37b2b86f63e897a80ea819b0eb08c01>@@AEAV<lambda_38ce7e780aa69e748d6df282ebc68efe>@@$$QEAV<lambda_99fb1378e971ab6e7edea83e3a7a83a2>@@@Z@4HA 0000000180047afc f   libucrt:commit.obj
 0001:00046b16       _write_internal$fin$0      0000000180047b16 f   libucrt:write.obj
 0001:00046b2d       _fcloseall$fin$0           0000000180047b2d f   libucrt:closeall.obj
 0001:00046b46       ?fin$0@?0??_fclose_internal@@YAHQEAU_iobuf@@AEAV__crt_cached_ptd_host@@@Z@4HA 0000000180047b46 f   libucrt:fclose.obj
 0001:00046b60       _IsNonwritableInCurrentImage$filt$0 0000000180047b60 f   LIBCMT:pesect.obj
 0002:000002a8       ?minFError$initializer$@_VecMathTests@aos@shdfnd@physx@@3P6AXXZEA 00000001800482a8     Cooking.obj
 0002:000002b0       ?maxFError$initializer$@_VecMathTests@aos@shdfnd@physx@@3P6AXXZEA 00000001800482b0     Cooking.obj
 0002:000002b8       ?minV3Error$initializer$@_VecMathTests@aos@shdfnd@physx@@3P6AXXZEA 00000001800482b8     Cooking.obj
 0002:000002c0       ?maxV3Error$initializer$@_VecMathTests@aos@shdfnd@physx@@3P6AXXZEA 00000001800482c0     Cooking.obj
 0002:000002c8       ?minV4Error$initializer$@_VecMathTests@aos@shdfnd@physx@@3P6AXXZEA 00000001800482c8     Cooking.obj
 0002:000002d0       ?maxV4Error$initializer$@_VecMathTests@aos@shdfnd@physx@@3P6AXXZEA 00000001800482d0     Cooking.obj
 0002:000002d8       ?minFError$initializer$@_VecMathTests@aos@shdfnd@physx@@3P6AXXZEA 00000001800482d8     BVHStructureBuilder.obj
 0002:000002e0       ?maxFError$initializer$@_VecMathTests@aos@shdfnd@physx@@3P6AXXZEA 00000001800482e0     BVHStructureBuilder.obj
 0002:000002e8       ?minV3Error$initializer$@_VecMathTests@aos@shdfnd@physx@@3P6AXXZEA 00000001800482e8     BVHStructureBuilder.obj
 0002:000002f0       ?maxV3Error$initializer$@_VecMathTests@aos@shdfnd@physx@@3P6AXXZEA 00000001800482f0     BVHStructureBuilder.obj
 0002:000002f8       ?minV4Error$initializer$@_VecMathTests@aos@shdfnd@physx@@3P6AXXZEA 00000001800482f8     BVHStructureBuilder.obj
 0002:00000300       ?maxV4Error$initializer$@_VecMathTests@aos@shdfnd@physx@@3P6AXXZEA 0000000180048300     BVHStructureBuilder.obj
 0002:00000308       ?minFError$initializer$@_VecMathTests@aos@shdfnd@physx@@3P6AXXZEA 0000000180048308     RTreeCooking.obj
 0002:00000310       ?maxFError$initializer$@_VecMathTests@aos@shdfnd@physx@@3P6AXXZEA 0000000180048310     RTreeCooking.obj
 0002:00000318       ?minV3Error$initializer$@_VecMathTests@aos@shdfnd@physx@@3P6AXXZEA 0000000180048318     RTreeCooking.obj
 0002:00000320       ?maxV3Error$initializer$@_VecMathTests@aos@shdfnd@physx@@3P6AXXZEA 0000000180048320     RTreeCooking.obj
 0002:00000328       ?minV4Error$initializer$@_VecMathTests@aos@shdfnd@physx@@3P6AXXZEA 0000000180048328     RTreeCooking.obj
 0002:00000330       ?maxV4Error$initializer$@_VecMathTests@aos@shdfnd@physx@@3P6AXXZEA 0000000180048330     RTreeCooking.obj
 0002:00000338       ?minFError$initializer$@_VecMathTests@aos@shdfnd@physx@@3P6AXXZEA 0000000180048338     MeshBuilder.obj
 0002:00000340       ?maxFError$initializer$@_VecMathTests@aos@shdfnd@physx@@3P6AXXZEA 0000000180048340     MeshBuilder.obj
 0002:00000348       ?minV3Error$initializer$@_VecMathTests@aos@shdfnd@physx@@3P6AXXZEA 0000000180048348     MeshBuilder.obj
 0002:00000350       ?maxV3Error$initializer$@_VecMathTests@aos@shdfnd@physx@@3P6AXXZEA 0000000180048350     MeshBuilder.obj
 0002:00000358       ?minV4Error$initializer$@_VecMathTests@aos@shdfnd@physx@@3P6AXXZEA 0000000180048358     MeshBuilder.obj
 0002:00000360       ?maxV4Error$initializer$@_VecMathTests@aos@shdfnd@physx@@3P6AXXZEA 0000000180048360     MeshBuilder.obj
 0002:00000368       ?minFError$initializer$@_VecMathTests@aos@shdfnd@physx@@3P6AXXZEA 0000000180048368     TriangleMeshBuilder.obj
 0002:00000370       ?maxFError$initializer$@_VecMathTests@aos@shdfnd@physx@@3P6AXXZEA 0000000180048370     TriangleMeshBuilder.obj
 0002:00000378       ?minV3Error$initializer$@_VecMathTests@aos@shdfnd@physx@@3P6AXXZEA 0000000180048378     TriangleMeshBuilder.obj
 0002:00000380       ?maxV3Error$initializer$@_VecMathTests@aos@shdfnd@physx@@3P6AXXZEA 0000000180048380     TriangleMeshBuilder.obj
 0002:00000388       ?minV4Error$initializer$@_VecMathTests@aos@shdfnd@physx@@3P6AXXZEA 0000000180048388     TriangleMeshBuilder.obj
 0002:00000390       ?maxV4Error$initializer$@_VecMathTests@aos@shdfnd@physx@@3P6AXXZEA 0000000180048390     TriangleMeshBuilder.obj
 0002:00000398       ?minFError$initializer$@_VecMathTests@aos@shdfnd@physx@@3P6AXXZEA 0000000180048398     BigConvexDataBuilder.obj
 0002:000003a0       ?maxFError$initializer$@_VecMathTests@aos@shdfnd@physx@@3P6AXXZEA 00000001800483a0     BigConvexDataBuilder.obj
 0002:000003a8       ?minV3Error$initializer$@_VecMathTests@aos@shdfnd@physx@@3P6AXXZEA 00000001800483a8     BigConvexDataBuilder.obj
 0002:000003b0       ?maxV3Error$initializer$@_VecMathTests@aos@shdfnd@physx@@3P6AXXZEA 00000001800483b0     BigConvexDataBuilder.obj
 0002:000003b8       ?minV4Error$initializer$@_VecMathTests@aos@shdfnd@physx@@3P6AXXZEA 00000001800483b8     BigConvexDataBuilder.obj
 0002:000003c0       ?maxV4Error$initializer$@_VecMathTests@aos@shdfnd@physx@@3P6AXXZEA 00000001800483c0     BigConvexDataBuilder.obj
 0002:000003c8       ?minFError$initializer$@_VecMathTests@aos@shdfnd@physx@@3P6AXXZEA 00000001800483c8     ConvexHullBuilder.obj
 0002:000003d0       ?maxFError$initializer$@_VecMathTests@aos@shdfnd@physx@@3P6AXXZEA 00000001800483d0     ConvexHullBuilder.obj
 0002:000003d8       ?minV3Error$initializer$@_VecMathTests@aos@shdfnd@physx@@3P6AXXZEA 00000001800483d8     ConvexHullBuilder.obj
 0002:000003e0       ?maxV3Error$initializer$@_VecMathTests@aos@shdfnd@physx@@3P6AXXZEA 00000001800483e0     ConvexHullBuilder.obj
 0002:000003e8       ?minV4Error$initializer$@_VecMathTests@aos@shdfnd@physx@@3P6AXXZEA 00000001800483e8     ConvexHullBuilder.obj
 0002:000003f0       ?maxV4Error$initializer$@_VecMathTests@aos@shdfnd@physx@@3P6AXXZEA 00000001800483f0     ConvexHullBuilder.obj
 0002:000003f8       ?minFError$initializer$@_VecMathTests@aos@shdfnd@physx@@3P6AXXZEA 00000001800483f8     ConvexHullUtils.obj
 0002:00000400       ?maxFError$initializer$@_VecMathTests@aos@shdfnd@physx@@3P6AXXZEA 0000000180048400     ConvexHullUtils.obj
 0002:00000408       ?minV3Error$initializer$@_VecMathTests@aos@shdfnd@physx@@3P6AXXZEA 0000000180048408     ConvexHullUtils.obj
 0002:00000410       ?maxV3Error$initializer$@_VecMathTests@aos@shdfnd@physx@@3P6AXXZEA 0000000180048410     ConvexHullUtils.obj
 0002:00000418       ?minV4Error$initializer$@_VecMathTests@aos@shdfnd@physx@@3P6AXXZEA 0000000180048418     ConvexHullUtils.obj
 0002:00000420       ?maxV4Error$initializer$@_VecMathTests@aos@shdfnd@physx@@3P6AXXZEA 0000000180048420     ConvexHullUtils.obj
 0002:00000428       ?minFError$initializer$@_VecMathTests@aos@shdfnd@physx@@3P6AXXZEA 0000000180048428     ConvexMeshBuilder.obj
 0002:00000430       ?maxFError$initializer$@_VecMathTests@aos@shdfnd@physx@@3P6AXXZEA 0000000180048430     ConvexMeshBuilder.obj
 0002:00000438       ?minV3Error$initializer$@_VecMathTests@aos@shdfnd@physx@@3P6AXXZEA 0000000180048438     ConvexMeshBuilder.obj
 0002:00000440       ?maxV3Error$initializer$@_VecMathTests@aos@shdfnd@physx@@3P6AXXZEA 0000000180048440     ConvexMeshBuilder.obj
 0002:00000448       ?minV4Error$initializer$@_VecMathTests@aos@shdfnd@physx@@3P6AXXZEA 0000000180048448     ConvexMeshBuilder.obj
 0002:00000450       ?maxV4Error$initializer$@_VecMathTests@aos@shdfnd@physx@@3P6AXXZEA 0000000180048450     ConvexMeshBuilder.obj
 0002:00000458       ?minFError$initializer$@_VecMathTests@aos@shdfnd@physx@@3P6AXXZEA 0000000180048458     VolumeIntegration.obj
 0002:00000460       ?maxFError$initializer$@_VecMathTests@aos@shdfnd@physx@@3P6AXXZEA 0000000180048460     VolumeIntegration.obj
 0002:00000468       ?minV3Error$initializer$@_VecMathTests@aos@shdfnd@physx@@3P6AXXZEA 0000000180048468     VolumeIntegration.obj
 0002:00000470       ?maxV3Error$initializer$@_VecMathTests@aos@shdfnd@physx@@3P6AXXZEA 0000000180048470     VolumeIntegration.obj
 0002:00000478       ?minV4Error$initializer$@_VecMathTests@aos@shdfnd@physx@@3P6AXXZEA 0000000180048478     VolumeIntegration.obj
 0002:00000480       ?maxV4Error$initializer$@_VecMathTests@aos@shdfnd@physx@@3P6AXXZEA 0000000180048480     VolumeIntegration.obj
 0002:00000600       ?minus1w@?A0xc075a7ad@aos@shdfnd@physx@@3QBMB 0000000180048600     Cooking.obj
 0002:00000610       ?gMaskXYZ@internalWindowsSimd@aos@shdfnd@physx@@3QBIB 0000000180048610     Cooking.obj
 0002:00000dc0       ?minus1w@?A0xa6427239@aos@shdfnd@physx@@3QBMB 0000000180048dc0     BVHStructureBuilder.obj
 0002:00000dd0       ?gMaskXYZ@internalWindowsSimd@aos@shdfnd@physx@@3QBIB 0000000180048dd0     BVHStructureBuilder.obj
 0002:00000e60       ?minus1w@?A0x45d39163@aos@shdfnd@physx@@3QBMB 0000000180048e60     RTreeCooking.obj
 0002:00000e70       ?gMaskXYZ@internalWindowsSimd@aos@shdfnd@physx@@3QBIB 0000000180048e70     RTreeCooking.obj
 0002:00000eb8       ?stopAtTrisPerPage@physx@@3QBIB 0000000180048eb8     RTreeCooking.obj
 0002:00000ef8       ?stopAtTrisPerLeaf@physx@@3QBIB 0000000180048ef8     RTreeCooking.obj
 0002:000010a0       ?minus1w@?A0x5d9e4d56@aos@shdfnd@physx@@3QBMB 00000001800490a0     MeshBuilder.obj
 0002:000010b0       ?gMaskXYZ@internalWindowsSimd@aos@shdfnd@physx@@3QBIB 00000001800490b0     MeshBuilder.obj
 0002:000010d0       ?minus1w@?A0x8ed94072@aos@shdfnd@physx@@3QBMB 00000001800490d0     TriangleMeshBuilder.obj
 0002:000010e0       ?gMaskXYZ@internalWindowsSimd@aos@shdfnd@physx@@3QBIB 00000001800490e0     TriangleMeshBuilder.obj
 0002:00001520       ?minus1w@?A0x4073a44f@aos@shdfnd@physx@@3QBMB 0000000180049520     BigConvexDataBuilder.obj
 0002:00001530       ?gMaskXYZ@internalWindowsSimd@aos@shdfnd@physx@@3QBIB 0000000180049530     BigConvexDataBuilder.obj
 0002:000015b0       ?minus1w@?A0x6a2eceae@aos@shdfnd@physx@@3QBMB 00000001800495b0     ConvexHullBuilder.obj
 0002:000015c0       ?gMaskXYZ@internalWindowsSimd@aos@shdfnd@physx@@3QBIB 00000001800495c0     ConvexHullBuilder.obj
 0002:00001a50       ?minus1w@?A0xd65d6430@aos@shdfnd@physx@@3QBMB 0000000180049a50     ConvexHullUtils.obj
 0002:00001a60       ?gMaskXYZ@internalWindowsSimd@aos@shdfnd@physx@@3QBIB 0000000180049a60     ConvexHullUtils.obj
 0002:00001b00       ?minus1w@?A0xa48a6efb@aos@shdfnd@physx@@3QBMB 0000000180049b00     ConvexMeshBuilder.obj
 0002:00001b10       ?gMaskXYZ@internalWindowsSimd@aos@shdfnd@physx@@3QBIB 0000000180049b10     ConvexMeshBuilder.obj
 0002:000020a0       ?minus1w@?A0xebc0dd8a@aos@shdfnd@physx@@3QBMB 000000018004a0a0     VolumeIntegration.obj
 0002:000020b0       ?gMaskXYZ@internalWindowsSimd@aos@shdfnd@physx@@3QBIB 000000018004a0b0     VolumeIntegration.obj
 0002:00002230       L_abs_mask                 000000018004a230     LIBCMT:svml_ssinf4_dispatch.obj
 0002:00002240       L_real_one                 000000018004a240     LIBCMT:svml_ssinf4_dispatch.obj
 0002:00002250       L_one_half                 000000018004a250     LIBCMT:svml_ssinf4_dispatch.obj
 0002:00002260       L_two_to_neg_13            000000018004a260     LIBCMT:svml_ssinf4_dispatch.obj
 0002:00002270       L_pi_over_two              000000018004a270     LIBCMT:svml_ssinf4_dispatch.obj
 0002:00002280       L_pi_over_two2             000000018004a280     LIBCMT:svml_ssinf4_dispatch.obj
 0002:00002400       ?tokenTable@@3QBUStringLiteral@@B 000000018004a400     libvcruntime:undname.obj
 0002:00002500       ?nameTable@@3QBUStringLiteral@@B 000000018004a500     libvcruntime:undname.obj
 0002:00002a30       ?rttiTable@@3QBUStringLiteral@@B 000000018004aa30     libvcruntime:undname.obj
 0002:00002a80       ?IndirectionName@@3QBUStringLiteral@@B 000000018004aa80     libvcruntime:undname.obj
 0002:00002ae0       ?PrefixName@@3QBUStringLiteral@@B 000000018004aae0     libvcruntime:undname.obj
 0002:00003720       ?result@?1??IsValidIdentChar@@YA_ND@Z@4U<unnamed-type-result>@?1??InitValidIdentChar@@YA@XZ@B 000000018004b720     libvcruntime:undname.obj
 0002:00003890       ?ExceptionTemplate@?1??UnwindNestedFrames@__FrameHandler4@@SAXPEA_KPEAUEHExceptionRecord@@PEAU_CONTEXT@@0PEAXPEAUFuncInfo4@FH4@@HHPEAUHandlerType4@6@PEAU_xDISPATCHER_CONTEXT@@E@Z@4U_EXCEPTION_RECORD@@B 000000018004b890     libvcruntime:risctrnsctrl.obj
 0002:00003930       ?ExceptionTemplate@?1??UnwindNestedFrames@__FrameHandler3@@SAXPEA_KPEAUEHExceptionRecord@@PEAU_CONTEXT@@0PEAXPEBU_s_FuncInfo@@HHPEBU_s_HandlerType@@PEAU_xDISPATCHER_CONTEXT@@E@Z@4U_EXCEPTION_RECORD@@B 000000018004b930     libvcruntime:risctrnsctrl.obj
 0002:000039c8       ?module_names@?A0xa2c972ab@@3QBQEB_WB 000000018004b9c8     libvcruntime:winapi_downlevel.obj
 0002:00003a88       ?candidate_modules@?1??try_get_FlsAlloc@@YAP6AKP6AXPEAX@Z@ZXZ@4QBW4module_id@?A0xa2c972ab@@B 000000018004ba88     libvcruntime:winapi_downlevel.obj
 0002:00003aa0       ?candidate_modules@?1??try_get_FlsFree@@YAP6AHK@ZXZ@4QBW4module_id@?A0xa2c972ab@@B 000000018004baa0     libvcruntime:winapi_downlevel.obj
 0002:00003ab0       ?candidate_modules@?1??try_get_FlsGetValue@@YAP6APEAXK@ZXZ@4QBW4module_id@?A0xa2c972ab@@B 000000018004bab0     libvcruntime:winapi_downlevel.obj
 0002:00003ac8       ?candidate_modules@?1??try_get_FlsSetValue@@YAP6AHKPEAX@ZXZ@4QBW4module_id@?A0xa2c972ab@@B 000000018004bac8     libvcruntime:winapi_downlevel.obj
 0002:00003ae0       ?candidate_modules@?1??try_get_InitializeCriticalSectionEx@@YAP6AHPEAU_RTL_CRITICAL_SECTION@@KK@ZXZ@4QBW4module_id@?A0xa2c972ab@@B 000000018004bae0     libvcruntime:winapi_downlevel.obj
 0002:00003b60       ?atan_jby256@?1??atan2f@@9@9 000000018004bb60     libucrt:atan2f.obj
 0002:00004360       L_real_one                 000000018004c360     libucrt:cosf.obj
 0002:00004370       L_one_half                 000000018004c370     libucrt:cosf.obj
 0002:00004380       L_2bypi                    000000018004c380     libucrt:cosf.obj
 0002:00004390       L_one_sixth                000000018004c390     libucrt:cosf.obj
 0002:000043a0       L_piby2                    000000018004c3a0     libucrt:cosf.obj
 0002:000043b0       L_piby2_1                  000000018004c3b0     libucrt:cosf.obj
 0002:000043c0       L_piby2_1tail              000000018004c3c0     libucrt:cosf.obj
 0002:000043d0       L_piby2_2                  000000018004c3d0     libucrt:cosf.obj
 0002:000043e0       L_piby2_2tail              000000018004c3e0     libucrt:cosf.obj
 0002:000043f0       L_large_x_sse2             000000018004c3f0     libucrt:cosf.obj
 0002:00004400       L_large_x_fma3             000000018004c400     libucrt:cosf.obj
 0002:00004410       L_sign_mask                000000018004c410     libucrt:cosf.obj
 0002:00004420       L__int_three               000000018004c420     libucrt:cosf.obj
 0002:00004430       L__min_norm_double         000000018004c430     libucrt:cosf.obj
 0002:00004440       L_two_to_neg_7             000000018004c440     libucrt:cosf.obj
 0002:00004450       L_two_to_neg_13            000000018004c450     libucrt:cosf.obj
 0002:00004460       L_two_to_32_float          000000018004c460     libucrt:cosf.obj
 0002:00004468       L_one_float                000000018004c468     libucrt:cosf.obj
 0002:00004470       L_inf_mask_32              000000018004c470     libucrt:cosf.obj
 0002:00004480       L_signbit                  000000018004c480     libucrt:sinf.obj
 0002:00004490       L_sign_mask                000000018004c490     libucrt:sinf.obj
 0002:000044a0       L_one                      000000018004c4a0     libucrt:sinf.obj
 0002:000044b0       L_int_three                000000018004c4b0     libucrt:sinf.obj
 0002:000044c0       L_one_half                 000000018004c4c0     libucrt:sinf.obj
 0002:000044d0       L_twobypi                  000000018004c4d0     libucrt:sinf.obj
 0002:000044e0       L_piby2_1                  000000018004c4e0     libucrt:sinf.obj
 0002:000044f0       L_one_sixth                000000018004c4f0     libucrt:sinf.obj
 0002:00004500       L_piby2_1tail              000000018004c500     libucrt:sinf.obj
 0002:00004510       L_piby2_2                  000000018004c510     libucrt:sinf.obj
 0002:00004520       L_piby2_2tail              000000018004c520     libucrt:sinf.obj
 0002:00004530       L_inf_mask_32              000000018004c530     libucrt:sinf.obj
 0002:00004540       L_int_two                  000000018004c540     libucrt:sinf.obj
 0002:00004550       L_piby2_lead               000000018004c550     libucrt:sinf.obj
 0002:00004560       L_piby4                    000000018004c560     libucrt:sinf.obj
 0002:00004570       L_mask_3f2                 000000018004c570     libucrt:sinf.obj
 0002:00004580       L_mask_3f8                 000000018004c580     libucrt:sinf.obj
 0002:00004590       L_large_x_fma3             000000018004c590     libucrt:sinf.obj
 0002:00004598       L_large_x_sse2             000000018004c598     libucrt:sinf.obj
 0002:000045a0       L_near_one                 000000018004c5a0     libucrt:sinf.obj
 0002:000045a8       L_two_to_32                000000018004c5a8     libucrt:sinf.obj
 0002:00004688       $cppxdata$?try_cor_exit_process@@YAXI@Z 000000018004c688     libucrt:exit.obj
 0002:000046b0       $cppxdata$?common_exit@@YAXHW4_crt_exit_cleanup_mode@@W4_crt_exit_return_mode@@@Z 000000018004c6b0     libucrt:exit.obj
 0002:00004700       $cppxdata$__dcrt_uninitialize_environments_nolock 000000018004c700     libucrt:environment_initialization.obj
 0002:00004728       $cppxdata$_execute_onexit_table 000000018004c728     libucrt:onexit.obj
 0002:00004750       __acrt_initializers        000000018004c750     libucrt:initialization.obj
 0002:00004970       L__piby2                   000000018004c970     libucrt:remainder_piby2f_forasm.obj
 0002:00004980       L_piby2_lead               000000018004c980     libucrt:remainder_piby2_forfma3.obj
 0002:00004990       L_fff800                   000000018004c990     libucrt:remainder_piby2_forfma3.obj
 0002:000049a0       L_piby2_part1              000000018004c9a0     libucrt:remainder_piby2_forfma3.obj
 0002:000049b0       L_piby2_part2              000000018004c9b0     libucrt:remainder_piby2_forfma3.obj
 0002:000049c0       L_piby2_part3              000000018004c9c0     libucrt:remainder_piby2_forfma3.obj
 0002:000049d0       L_piby2_1                  000000018004c9d0     libucrt:remainder_piby2_forfma3.obj
 0002:000049e0       L_piby2_2                  000000018004c9e0     libucrt:remainder_piby2_forfma3.obj
 0002:000049f0       L_piby2_3                  000000018004c9f0     libucrt:remainder_piby2_forfma3.obj
 0002:00004a00       L_piby2_1tail              000000018004ca00     libucrt:remainder_piby2_forfma3.obj
 0002:00004a10       L_piby2_2tail              000000018004ca10     libucrt:remainder_piby2_forfma3.obj
 0002:00004a20       L_piby2_3tail              000000018004ca20     libucrt:remainder_piby2_forfma3.obj
 0002:00004a30       L_sign_mask                000000018004ca30     libucrt:remainder_piby2_forfma3.obj
 0002:00004a40       L_twobypi                  000000018004ca40     libucrt:remainder_piby2_forfma3.obj
 0002:00004a50       L_point_five               000000018004ca50     libucrt:remainder_piby2_forfma3.obj
 0002:00004a60       L_int_three                000000018004ca60     libucrt:remainder_piby2_forfma3.obj
 0002:00004a70       L_inf_mask_64              000000018004ca70     libucrt:remainder_piby2_forfma3.obj
 0002:00004a80       L_signbit                  000000018004ca80     libucrt:remainder_piby2_forfma3.obj
 0002:00004a90       L_r                        000000018004ca90     libucrt:remainder_piby2_forfma3.obj
 0002:00004aa0       L_xc1                      000000018004caa0     libucrt:remainder_piby2_forfma3.obj
 0002:00004ab0       L_xc2                      000000018004cab0     libucrt:remainder_piby2_forfma3.obj
 0002:00004ac0       L_xc3                      000000018004cac0     libucrt:remainder_piby2_forfma3.obj
 0002:00004ad0       L_sigma                    000000018004cad0     libucrt:remainder_piby2_forfma3.obj
 0002:00004be0       L__piby2                   000000018004cbe0     libucrt:remainder_piby2f_forc.obj
 0002:00004bf0       L__2_by_pi_bits            000000018004cbf0     libucrt:remainder_piby2f_forc.obj
 0002:00004c90       ?errtable@@3QBUerrentry@?A0x31fdb9ec@@B 000000018004cc90     libucrt:errno.obj
 0002:00004df8       ?_mb_locale_names@@3QBQEB_WB 000000018004cdf8     libucrt:mbctype.obj
 0002:00004e60       ?module_names@?A0x391cf84c@@3QBQEB_WB 000000018004ce60     libucrt:winapi_thunks.obj
 0002:000053b8       ?candidate_modules@?1??try_get_AreFileApisANSI@@YAP6AHXZXZ@4QBW4module_id@?A0x391cf84c@@B 000000018004d3b8     libucrt:winapi_thunks.obj
 0002:000053d0       ?candidate_modules@?1??try_get_InitializeCriticalSectionEx@@YAP6AHPEAU_RTL_CRITICAL_SECTION@@KK@ZXZ@4QBW4module_id@?A0x391cf84c@@B 000000018004d3d0     libucrt:winapi_thunks.obj
 0002:000053d8       ?candidate_modules@?1??try_get_LCMapStringEx@@YAP6AHPEB_WK0HPEA_WHPEAU_nlsversioninfo@@PEAX_J@ZXZ@4QBW4module_id@?A0x391cf84c@@B 000000018004d3d8     libucrt:winapi_thunks.obj
 0002:000053f0       ?candidate_modules@?1??try_get_LocaleNameToLCID@@YAP6AKPEB_WK@ZXZ@4QBW4module_id@?A0x391cf84c@@B 000000018004d3f0     libucrt:winapi_thunks.obj
 0002:0000540c       ?candidate_modules@?1??try_get_AppPolicyGetProcessTerminationMethod@@YAP6AJPEAXPEAW4AppPolicyProcessTerminationMethod@@@ZXZ@4QBW4module_id@?A0x391cf84c@@B 000000018004d40c     libucrt:winapi_thunks.obj
 0002:00005ac0       ?strings@?1??fp_format_nan_or_infinity@@YAHW4__acrt_fp_class@@_NPEAD_K1@Z@4QAY03QEBDA 000000018004dac0     libucrt:cvt.obj
 0002:000061a0       __real@433fffffffffffff    000000018004e1a0     libucrt:fpsr.obj
 0002:000061a8       __real@c33fffffffffffff    000000018004e1a8     libucrt:fpsr.obj
 0002:000061c0       ?LcidToLocaleNameTable@?A0x881e4c05@@3QBULcidToLocaleName@1@B 000000018004e1c0     libucrt:lcidtoname_downlevel.obj
 0002:00007c20       ?LocaleNameToIndexTable@?A0x881e4c05@@3QBULocaleNameIndex@1@B 000000018004fc20     libucrt:lcidtoname_downlevel.obj
 0002:000094b8       $cppxdata$?write_double_translated_ansi_nolock@@YA?AUwrite_result@?A0x17268360@@HQEBDIAEAV__crt_cached_ptd_host@@@Z 00000001800514b8     libucrt:write.obj
 0002:00009ed0       __real_ninf                0000000180051ed0     libucrt:log10.obj
 0002:00009ee0       __real_inf                 0000000180051ee0     libucrt:log10.obj
 0002:00009ef0       __real_neg_qnan            0000000180051ef0     libucrt:log10.obj
 0002:00009f00       __real_qnanbit             0000000180051f00     libucrt:log10.obj
 0002:00009f10       __int_1023                 0000000180051f10     libucrt:log10.obj
 0002:00009f20       __mask_001                 0000000180051f20     libucrt:log10.obj
 0002:00009f30       __mask_mant                0000000180051f30     libucrt:log10.obj
 0002:00009f40       __mask_mant_top8           0000000180051f40     libucrt:log10.obj
 0002:00009f50       __mask_mant9               0000000180051f50     libucrt:log10.obj
 0002:00009f60       __real_log10_e             0000000180051f60     libucrt:log10.obj
 0002:00009f70       __real_log10_e_lead        0000000180051f70     libucrt:log10.obj
 0002:00009f80       __real_log10_e_tail        0000000180051f80     libucrt:log10.obj
 0002:00009f90       __real_log10_2_lead        0000000180051f90     libucrt:log10.obj
 0002:00009fa0       __real_log10_2_tail        0000000180051fa0     libucrt:log10.obj
 0002:00009fb0       __real_two                 0000000180051fb0     libucrt:log10.obj
 0002:00009fc0       __real_one                 0000000180051fc0     libucrt:log10.obj
 0002:00009fd0       __real_half                0000000180051fd0     libucrt:log10.obj
 0002:00009fe0       __mask_100                 0000000180051fe0     libucrt:log10.obj
 0002:00009ff0       __real_1_over_512          0000000180051ff0     libucrt:log10.obj
 0002:0000a000       __real_1_over_2            0000000180052000     libucrt:log10.obj
 0002:0000a010       __real_1_over_3            0000000180052010     libucrt:log10.obj
 0002:0000a020       __real_1_over_4            0000000180052020     libucrt:log10.obj
 0002:0000a030       __real_1_over_5            0000000180052030     libucrt:log10.obj
 0002:0000a040       __real_1_over_6            0000000180052040     libucrt:log10.obj
 0002:0000a050       __real_neg_1023            0000000180052050     libucrt:log10.obj
 0002:0000a060       __mask_2045                0000000180052060     libucrt:log10.obj
 0002:0000a070       __real_threshold           0000000180052070     libucrt:log10.obj
 0002:0000a080       __real_near_one_lt         0000000180052080     libucrt:log10.obj
 0002:0000a090       __real_near_one_gt         0000000180052090     libucrt:log10.obj
 0002:0000a0a0       __real_min_norm            00000001800520a0     libucrt:log10.obj
 0002:0000a0b0       __real_notsign             00000001800520b0     libucrt:log10.obj
 0002:0000a0c0       __real_ca1                 00000001800520c0     libucrt:log10.obj
 0002:0000a0d0       __real_ca2                 00000001800520d0     libucrt:log10.obj
 0002:0000a0e0       __real_ca3                 00000001800520e0     libucrt:log10.obj
 0002:0000a0f0       __real_ca4                 00000001800520f0     libucrt:log10.obj
 0002:0000a100       __mask_lower               0000000180052100     libucrt:log10.obj
 0002:0000a110       __flag_x_zero              0000000180052110     libucrt:log10.obj
 0002:0000a114       __flag_x_neg               0000000180052114     libucrt:log10.obj
 0002:0000a118       __flag_x_nan               0000000180052118     libucrt:log10.obj
 0002:0000b960       GS_ExceptionPointers       0000000180053960     LIBCMT:gs_report.obj
 0002:0000c438       $unwind$??1Adjacencies@physx@@QEAA@XZ 0000000180054438     Adjacencies.obj
 0002:0000c438       $unwind$??_EPxFoundation@physx@@MEAAPEAXI@Z 0000000180054438     Adjacencies.obj
 0002:0000c438       $unwind$??0ConvexMeshBuilder@physx@@QEAA@_N@Z 0000000180054438     ConvexMeshBuilder.obj
 0002:0000c438       $unwind$?isFinite@PxVec3@physx@@QEBA_NXZ 0000000180054438     ConvexMeshBuilder.obj
 0002:0000c438       $unwind$??0ConvexPolygonsBuilder@physx@@QEAA@PEAUConvexHullData@Gu@1@_N@Z 0000000180054438     ConvexPolygonsBuilder.obj
 0002:0000c438       $unwind$??_GCooking@physx@@UEAAPEAXI@Z 0000000180054438     Cooking.obj
 0002:0000c438       $unwind$??_GPxBase@physx@@MEAAPEAXI@Z 0000000180054438     Cooking.obj
 0002:0000c438       $unwind$??_GPxCooking@physx@@MEAAPEAXI@Z 0000000180054438     Cooking.obj
 0002:0000c438       $unwind$?isKindOf@PxConvexMesh@physx@@MEBA_NPEBD@Z 0000000180054438     Cooking.obj
 0002:0000c438       $unwind$?isKindOf@PxHeightField@physx@@MEBA_NPEBD@Z 0000000180054438     Cooking.obj
 0002:0000c438       $unwind$??_GQuantizer@physx@@MEAAPEAXI@Z 0000000180054438     Quantizer.obj
 0002:0000c438       $unwind$??1RTreeTriangleData@Gu@physx@@UEAA@XZ 0000000180054438     TriangleMeshBuilder.obj
 0002:0000c438       $unwind$??1RTreeTriangleMeshBuilder@physx@@UEAA@XZ 0000000180054438     TriangleMeshBuilder.obj
 0002:0000c438       $unwind$??_GRTreeCookerRemap@physx@@UEAAPEAXI@Z 0000000180054438     TriangleMeshBuilder.obj
 0002:0000c438       $unwind$??_GRemapCallback@RTreeCooker@physx@@UEAAPEAXI@Z 0000000180054438     TriangleMeshBuilder.obj
 0002:0000c438       $unwind$?DloadAcquireSectionWriteAccess@@YAXXZ 0000000180054438     Delayimp:delayhlp.obj
 0002:0000c438       $unwind$__raise_securityfailure 0000000180054438     LIBCMT:gs_report.obj
 0002:0000c438       $unwind$??_Gtype_info@@UEAAPEAXI@Z 0000000180054438     LIBCMT:std_type_info_static.obj
 0002:0000c438       $unwind$__scrt_initialize_crt 0000000180054438     LIBCMT:utility.obj
 0002:0000c438       $unwind$__scrt_initialize_onexit_tables 0000000180054438     LIBCMT:utility.obj
 0002:0000c438       $unwind$__scrt_release_startup_lock 0000000180054438     LIBCMT:utility.obj
 0002:0000c438       $unwind$__scrt_uninitialize_crt 0000000180054438     LIBCMT:utility.obj
 0002:0000c438       $unwind$_IsExceptionObjectToBeDestroyed 0000000180054438     libvcruntime:ehhelpers.obj
 0002:0000c438       $unwind$?GetUnwindTryBlock@__FrameHandler3@@SAHPEA_KPEAU_xDISPATCHER_CONTEXT@@PEBU_s_FuncInfo@@@Z 0000000180054438     libvcruntime:ehstate.obj
 0002:0000c438       $unwind$?StateFromIp@__FrameHandler3@@SAHPEBU_s_FuncInfo@@PEAU_xDISPATCHER_CONTEXT@@_K@Z 0000000180054438     libvcruntime:ehstate.obj
 0002:0000c438       $unwind$??0HandlerMap4@FH4@@QEAA@PEBUTryBlockMapEntry4@1@_KH@Z 0000000180054438     libvcruntime:frame.obj
 0002:0000c438       $unwind$??0bad_exception@std@@QEAA@AEBV01@@Z 0000000180054438     libvcruntime:frame.obj
 0002:0000c438       $unwind$??0exception@std@@QEAA@AEBV01@@Z 0000000180054438     libvcruntime:frame.obj
 0002:0000c438       $unwind$?ExFilterRethrow@@YAHPEAU_EXCEPTION_POINTERS@@PEAUEHExceptionRecord@@PEAH@Z 0000000180054438     libvcruntime:frame.obj
 0002:0000c438       $unwind$__vcrt_uninitialize_locks 0000000180054438     libvcruntime:locks.obj
 0002:0000c438       $unwind$__vcrt_freeptd     0000000180054438     libvcruntime:per_thread_data.obj
 0002:0000c438       $unwind$?ExecutionInCatch@__FrameHandler3@@SA_NPEAU_xDISPATCHER_CONTEXT@@PEBU_s_FuncInfo@@@Z 0000000180054438     libvcruntime:risctrnsctrl.obj
 0002:0000c438       $unwind$_CreateFrameInfo   0000000180054438     libvcruntime:risctrnsctrl.obj
 0002:0000c438       $unwind$_SetImageBase      0000000180054438     libvcruntime:risctrnsctrl.obj
 0002:0000c438       $unwind$_SetThrowImageBase 0000000180054438     libvcruntime:risctrnsctrl.obj
 0002:0000c438       $unwind$__std_exception_destroy 0000000180054438     libvcruntime:std_exception.obj
 0002:0000c438       $unwind$__std_type_info_destroy_list 0000000180054438     libvcruntime:std_type_info.obj
 0002:0000c438       $unwind$??$?0$00@DName@@QEAA@PEBDU?$StringLifeSelector@$00@@@Z 0000000180054438     libvcruntime:undname.obj
 0002:0000c438       $unwind$??$?0$01@DName@@QEAA@PEBDU?$StringLifeSelector@$01@@@Z 0000000180054438     libvcruntime:undname.obj
 0002:0000c438       $unwind$??$?0$0A@@DName@@QEAA@PEBDU?$StringLifeSelector@$0A@@@@Z 0000000180054438     libvcruntime:undname.obj
 0002:0000c438       $unwind$??0DName@@QEAA@AEBUStringLiteral@@@Z 0000000180054438     libvcruntime:undname.obj
 0002:0000c438       $unwind$??HDName@@QEBA?AV0@AEBUStringLiteral@@@Z 0000000180054438     libvcruntime:undname.obj
 0002:0000c438       $unwind$??HDName@@QEBA?AV0@AEBV0@@Z 0000000180054438     libvcruntime:undname.obj
 0002:0000c438       $unwind$??HDName@@QEBA?AV0@D@Z 0000000180054438     libvcruntime:undname.obj
 0002:0000c438       $unwind$??HDName@@QEBA?AV0@W4DNameStatus@@@Z 0000000180054438     libvcruntime:undname.obj
 0002:0000c438       $unwind$??YDName@@QEAAAEAV0@AEBV0@@Z 0000000180054438     libvcruntime:undname.obj
 0002:0000c438       $unwind$??YDName@@QEAAAEAV0@W4DNameStatus@@@Z 0000000180054438     libvcruntime:undname.obj
 0002:0000c438       $unwind$?getLastChar@pairNode@@UEBADXZ 0000000180054438     libvcruntime:undname.obj
 0002:0000c438       $unwind$?getReturnType@UnDecorator@@CA?AVDName@@PEAV2@@Z 0000000180054438     libvcruntime:undname.obj
 0002:0000c438       $unwind$?getStringObject@UnDecorator@@CA?AVDName@@XZ 0000000180054438     libvcruntime:undname.obj
 0002:0000c438       $unwind$?getSymbolName@UnDecorator@@CA?AVDName@@XZ 0000000180054438     libvcruntime:undname.obj
 0002:0000c438       $unwind$?getValue@UnDecorator@@CA?AV?$optional@_K@std@@XZ 0000000180054438     libvcruntime:undname.obj
 0002:0000c438       $unwind$__vcrt_FlsAlloc    0000000180054438     libvcruntime:winapi_downlevel.obj
 0002:0000c438       $unwind$__vcrt_FlsFree     0000000180054438     libvcruntime:winapi_downlevel.obj
 0002:0000c438       $unwind$__vcrt_FlsGetValue 0000000180054438     libvcruntime:winapi_downlevel.obj
 0002:0000c438       $unwind$_calloc_base       0000000180054438     libucrt:calloc_base.obj
 0002:0000c438       $unwind$_malloc_base       0000000180054438     libucrt:malloc_base.obj
 0002:0000c438       $unwind$initialize_pointers 0000000180054438     libucrt:initialization.obj
 0002:0000c438       $unwind$uninitialize_allocated_memory 0000000180054438     libucrt:initialization.obj
 0002:0000c438       $unwind$__acrt_initialize_locks 0000000180054438     libucrt:locks.obj
 0002:0000c438       $unwind$__acrt_uninitialize_locks 0000000180054438     libucrt:locks.obj
 0002:0000c438       $unwind$__acrt_freeptd     0000000180054438     libucrt:per_thread_data.obj
 0002:0000c438       $unwind$__acrt_getptd_head 0000000180054438     libucrt:per_thread_data.obj
 0002:0000c438       $unwind$__acrt_get_process_end_policy 0000000180054438     libucrt:win_policies.obj
 0002:0000c438       $unwind$__acrt_AppPolicyGetProcessTerminationMethodInternal 0000000180054438     libucrt:winapi_thunks.obj
 0002:0000c438       $unwind$__acrt_uninitialize_winapi_thunks 0000000180054438     libucrt:winapi_thunks.obj
 0002:0000c438       $unwind$__acrt_update_locale_info 0000000180054438     libucrt:locale_update.obj
 0002:0000c438       $unwind$__acrt_update_locale_info_explicit 0000000180054438     libucrt:locale_update.obj
 0002:0000c438       $unwind$__acrt_update_multibyte_info 0000000180054438     libucrt:locale_update.obj
 0002:0000c438       $unwind$__acrt_update_multibyte_info_explicit 0000000180054438     libucrt:locale_update.obj
 0002:0000c438       $unwind$__acrt_errno_map_os_error 0000000180054438     libucrt:errno.obj
 0002:0000c438       $unwind$__acrt_errno_map_os_error_ptd 0000000180054438     libucrt:errno.obj
 0002:0000c438       $unwind$__acrt_allocate_buffer_for_argv 0000000180054438     libucrt:argv_parsing.obj
 0002:0000c438       $unwind$?exit_or_terminate_process@@YAXI@Z 0000000180054438     libucrt:exit.obj
 0002:0000c438       $unwind$__acrt_uninitialize_stdio 0000000180054438     libucrt:_file.obj
 0002:0000c438       $unwind$__acrt_stdio_free_buffer_nolock 0000000180054438     libucrt:_freebuf.obj
 0002:0000c438       $unwind$?type_case_s@?$output_processor@DV?$string_output_adapter@D@__crt_stdio_output@@V?$format_validation_base@DV?$string_output_adapter@D@__crt_stdio_output@@@2@@__crt_stdio_output@@AEAA_NXZ 0000000180054438     libucrt:output.obj
 0002:0000c438       $unwind$strcpy_s           0000000180054438     libucrt:strcpy_s.obj
 0002:0000c438       $unwind$_clrfp             0000000180054438     libucrt:fpctrl.obj
 0002:0000c438       $unwind$_set_statfp        0000000180054438     libucrt:fpctrl.obj
 0002:0000c438       $unwind$_clearfp           0000000180054438     libucrt:ieee.obj
 0002:0000c438       $unwind$_controlfp_s       0000000180054438     libucrt:contrlfp.obj
 0002:0000c438       $unwind$fegetenv           0000000180054438     libucrt:fegetenv.obj
 0002:0000c438       $unwind$feholdexcept       0000000180054438     libucrt:feholdexcept.obj
 0002:0000c440       $chain$0$??_EPxFoundation@physx@@MEAAPEAXI@Z 0000000180054440     Adjacencies.obj
 0002:0000c454       $chain$1$??_EPxFoundation@physx@@MEAAPEAXI@Z 0000000180054454     Adjacencies.obj
 0002:0000c464       $chain$0$??1Adjacencies@physx@@QEAA@XZ 0000000180054464     Adjacencies.obj
 0002:0000c478       $chain$2$??1Adjacencies@physx@@QEAA@XZ 0000000180054478     Adjacencies.obj
 0002:0000c48c       $chain$3$??1Adjacencies@physx@@QEAA@XZ 000000018005448c     Adjacencies.obj
 0002:0000c49c       $unwind$?Init@AdjacenciesBuilder@physx@@QEAA_NAEBUADJACENCIESCREATE@2@@Z 000000018005449c     Adjacencies.obj
 0002:0000c4b0       $chain$2$?Init@AdjacenciesBuilder@physx@@QEAA_NAEBUADJACENCIESCREATE@2@@Z 00000001800544b0     Adjacencies.obj
 0002:0000c4c4       $chain$3$?Init@AdjacenciesBuilder@physx@@QEAA_NAEBUADJACENCIESCREATE@2@@Z 00000001800544c4     Adjacencies.obj
 0002:0000c4d8       $chain$4$?Init@AdjacenciesBuilder@physx@@QEAA_NAEBUADJACENCIESCREATE@2@@Z 00000001800544d8     Adjacencies.obj
 0002:0000c4e8       $chain$5$?Init@AdjacenciesBuilder@physx@@QEAA_NAEBUADJACENCIESCREATE@2@@Z 00000001800544e8     Adjacencies.obj
 0002:0000c4f8       $unwind$??$?_UV?$ReflectionAllocator@VAdjTriangle@physx@@@shdfnd@physx@@@UserAllocated@shdfnd@physx@@SAPEAX_KV?$ReflectionAllocator@VAdjTriangle@physx@@@12@PEBDH@Z 00000001800544f8     Adjacencies.obj
 0002:0000c4f8       $unwind$??$?_UE@@YAPEAX_KV?$ReflectionAllocator@E@shdfnd@physx@@PEBDH@Z 00000001800544f8     ConvexHullBuilder.obj
 0002:0000c4f8       $unwind$??$?_UI@@YAPEAX_KV?$ReflectionAllocator@I@shdfnd@physx@@PEBDH@Z 00000001800544f8     EdgeList.obj
 0002:0000c4f8       $unwind$??$?_UG@@YAPEAX_KV?$ReflectionAllocator@G@shdfnd@physx@@PEBDH@Z 00000001800544f8     TriangleMeshBuilder.obj
 0002:0000c508       $chain$0$??$?_UV?$ReflectionAllocator@VAdjTriangle@physx@@@shdfnd@physx@@@UserAllocated@shdfnd@physx@@SAPEAX_KV?$ReflectionAllocator@VAdjTriangle@physx@@@12@PEBDH@Z 0000000180054508     Adjacencies.obj
 0002:0000c51c       $chain$1$??$?_UV?$ReflectionAllocator@VAdjTriangle@physx@@@shdfnd@physx@@@UserAllocated@shdfnd@physx@@SAPEAX_KV?$ReflectionAllocator@VAdjTriangle@physx@@@12@PEBDH@Z 000000018005451c     Adjacencies.obj
 0002:0000c52c       $unwind$?UpdateLink@@YA_NIIIIPEAVAdjTriangle@physx@@AEBUADJACENCIESCREATE@2@@Z 000000018005452c     Adjacencies.obj
 0002:0000c538       $chain$3$?UpdateLink@@YA_NIIIIPEAVAdjTriangle@physx@@AEBUADJACENCIESCREATE@2@@Z 0000000180054538     Adjacencies.obj
 0002:0000c558       $chain$5$?UpdateLink@@YA_NIIIIPEAVAdjTriangle@physx@@AEBUADJACENCIESCREATE@2@@Z 0000000180054558     Adjacencies.obj
 0002:0000c570       $chain$6$?UpdateLink@@YA_NIIIIPEAVAdjTriangle@physx@@AEBUADJACENCIESCREATE@2@@Z 0000000180054570     Adjacencies.obj
 0002:0000c580       $chain$7$?UpdateLink@@YA_NIIIIPEAVAdjTriangle@physx@@AEBUADJACENCIESCREATE@2@@Z 0000000180054580     Adjacencies.obj
 0002:0000c598       $chain$8$?UpdateLink@@YA_NIIIIPEAVAdjTriangle@physx@@AEBUADJACENCIESCREATE@2@@Z 0000000180054598     Adjacencies.obj
 0002:0000c5a8       $unwind$?CreateDatabase@@YA_NPEAVAdjTriangle@physx@@IPEBVAdjEdge@@AEBUADJACENCIESCREATE@2@@Z 00000001800545a8     Adjacencies.obj
 0002:0000c5c4       $unwind$?getTransform@Box@Gu@physx@@QEBA?AVPxTransform@3@XZ 00000001800545c4     ConvexHullUtils.obj
 0002:0000c5c4       $unwind$PxCreateCooking    00000001800545c4     Cooking.obj
 0002:0000c5c4       $unwind$?type_case_c_tchar@?$output_processor@DV?$string_output_adapter@D@__crt_stdio_output@@V?$format_validation_base@DV?$string_output_adapter@D@__crt_stdio_output@@@2@@__crt_stdio_output@@AEAA_ND@Z 00000001800545c4     libucrt:output.obj
 0002:0000c5c4       $unwind$?type_case_n@?$output_processor@DV?$string_output_adapter@D@__crt_stdio_output@@V?$format_validation_base@DV?$string_output_adapter@D@__crt_stdio_output@@@2@@__crt_stdio_output@@AEAA_NXZ 00000001800545c4     libucrt:output.obj
 0002:0000c5d0       $unwind$?allocate@?$Array@USlab@NodeAllocator@Gu@physx@@VNamedAllocator@shdfnd@4@@shdfnd@physx@@IEAAPEAUSlab@NodeAllocator@Gu@3@I@Z 00000001800545d0     BVHStructureBuilder.obj
 0002:0000c5d0       $unwind$?allocate@?$Array@VPair@@VNamedAllocator@shdfnd@physx@@@shdfnd@physx@@IEAAPEAVPair@@I@Z 00000001800545d0     ConvexPolygonsBuilder.obj
 0002:0000c5d0       $unwind$?release@Cooking@physx@@UEAAXXZ 00000001800545d0     Cooking.obj
 0002:0000c5d0       $unwind$?cookingDelayHook@@YAP6A_JXZIPEAUDelayLoadInfo@@@Z 00000001800545d0     WindowsCookingDelayLoadHook.obj
 0002:0000c5d0       $unwind$?DloadReleaseSectionWriteAccess@@YAXXZ 00000001800545d0     Delayimp:delayhlp.obj
 0002:0000c5d0       $unwind$__scrt_initialize_default_local_stdio_options 00000001800545d0     LIBCMT:default_local_stdio_options.obj
 0002:0000c5d0       $unwind$?dllmain_crt_dispatch@@YAHQEAUHINSTANCE__@@KQEAX@Z 00000001800545d0     LIBCMT:dll_dllmain.obj
 0002:0000c5d0       $unwind$__report_rangecheckfailure 00000001800545d0     LIBCMT:gs_report.obj
 0002:0000c5d0       $unwind$__GSHandlerCheck   00000001800545d0     LIBCMT:gshandler.obj
 0002:0000c5d0       $unwind$__scrt_acquire_startup_lock 00000001800545d0     LIBCMT:utility.obj
 0002:0000c5d0       $unwind$__scrt_dllmain_after_initialize_c 00000001800545d0     LIBCMT:utility.obj
 0002:0000c5d0       $unwind$__scrt_dllmain_before_initialize_c 00000001800545d0     LIBCMT:utility.obj
 0002:0000c5d0       $unwind$__scrt_dllmain_crt_thread_attach 00000001800545d0     LIBCMT:utility.obj
 0002:0000c5d0       $unwind$__scrt_dllmain_crt_thread_detach 00000001800545d0     LIBCMT:utility.obj
 0002:0000c5d0       $unwind$__scrt_dllmain_uninitialize_c 00000001800545d0     LIBCMT:utility.obj
 0002:0000c5d0       $unwind$__scrt_dllmain_uninitialize_critical 00000001800545d0     LIBCMT:utility.obj
 0002:0000c5d0       $unwind$__std_terminate    00000001800545d0     libvcruntime:ehhelpers.obj
 0002:0000c5d0       $unwind$?GetCurrentState@__FrameHandler3@@SAHPEA_KPEAU_xDISPATCHER_CONTEXT@@PEBU_s_FuncInfo@@@Z 00000001800545d0     libvcruntime:ehstate.obj
 0002:0000c5d0       $unwind$__vcrt_initialize  00000001800545d0     libvcruntime:initialization.obj
 0002:0000c5d0       $unwind$__vcrt_thread_attach 00000001800545d0     libvcruntime:initialization.obj
 0002:0000c5d0       $unwind$__vcrt_thread_detach 00000001800545d0     libvcruntime:initialization.obj
 0002:0000c5d0       $unwind$__vcrt_uninitialize 00000001800545d0     libvcruntime:initialization.obj
 0002:0000c5d0       $unwind$__vcrt_uninitialize_critical 00000001800545d0     libvcruntime:initialization.obj
 0002:0000c5d0       $unwind$__vcrt_initialize_locks 00000001800545d0     libvcruntime:locks.obj
 0002:0000c5d0       $unwind$__vcrt_freefls     00000001800545d0     libvcruntime:per_thread_data.obj
 0002:0000c5d0       $unwind$__vcrt_getptd      00000001800545d0     libvcruntime:per_thread_data.obj
 0002:0000c5d0       $unwind$__vcrt_initialize_ptd 00000001800545d0     libvcruntime:per_thread_data.obj
 0002:0000c5d0       $unwind$__vcrt_uninitialize_ptd 00000001800545d0     libvcruntime:per_thread_data.obj
 0002:0000c5d0       $unwind$_purecall          00000001800545d0     libvcruntime:purevirt.obj
 0002:0000c5d0       $unwind$?FrameUnwindToEmptyState@__FrameHandler4@@SAXPEA_KPEAU_xDISPATCHER_CONTEXT@@PEAUFuncInfo4@FH4@@@Z 00000001800545d0     libvcruntime:risctrnsctrl.obj
 0002:0000c5d0       $unwind$_GetImageBase      00000001800545d0     libvcruntime:risctrnsctrl.obj
 0002:0000c5d0       $unwind$_GetThrowImageBase 00000001800545d0     libvcruntime:risctrnsctrl.obj
 0002:0000c5d0       $unwind$?getLastChar@pDNameNode@@UEBADXZ 00000001800545d0     libvcruntime:undname.obj
 0002:0000c5d0       $unwind$?getString@pDNameNode@@UEBAPEADPEAD0@Z 00000001800545d0     libvcruntime:undname.obj
 0002:0000c5d0       $unwind$?getTypeEncoding@UnDecorator@@CAHXZ 00000001800545d0     libvcruntime:undname.obj
 0002:0000c5d0       $unwind$?length@pDNameNode@@UEBAHXZ 00000001800545d0     libvcruntime:undname.obj
 0002:0000c5d0       $unwind$__dcrt_terminate_console_output 00000001800545d0     libucrt:initcon.obj
 0002:0000c5d0       $unwind$??$uninitialize_environment_internal@D@@YAXAEAPEAPEAD@Z 00000001800545d0     libucrt:environment_initialization.obj
 0002:0000c5d0       $unwind$??$uninitialize_environment_internal@_W@@YAXAEAPEAPEA_W@Z 00000001800545d0     libucrt:environment_initialization.obj
 0002:0000c5d0       $unwind$__acrt_initialize_heap 00000001800545d0     libucrt:heap_handle.obj
 0002:0000c5d0       $unwind$_msize_base        00000001800545d0     libucrt:msize.obj
 0002:0000c5d0       $unwind$?initialize_multibyte@@YAHXZ 00000001800545d0     libucrt:multibyte_initializer.obj
 0002:0000c5d0       $unwind$__acrt_thread_attach 00000001800545d0     libucrt:initialization.obj
 0002:0000c5d0       $unwind$__acrt_thread_detach 00000001800545d0     libucrt:initialization.obj
 0002:0000c5d0       $unwind$__acrt_uninitialize 00000001800545d0     libucrt:initialization.obj
 0002:0000c5d0       $unwind$__acrt_uninitialize_critical 00000001800545d0     libucrt:initialization.obj
 0002:0000c5d0       $unwind$initialize_c       00000001800545d0     libucrt:initialization.obj
 0002:0000c5d0       $unwind$uninitialize_allocated_io_buffers 00000001800545d0     libucrt:initialization.obj
 0002:0000c5d0       $unwind$uninitialize_environment 00000001800545d0     libucrt:initialization.obj
 0002:0000c5d0       $unwind$__acrt_initialize_ptd 00000001800545d0     libucrt:per_thread_data.obj
 0002:0000c5d0       $unwind$__acrt_uninitialize_ptd 00000001800545d0     libucrt:per_thread_data.obj
 0002:0000c5d0       $unwind$__acrt_AreFileApisANSI 00000001800545d0     libucrt:winapi_thunks.obj
 0002:0000c5d0       $unwind$__pctype_func      00000001800545d0     libucrt:ctype.obj
 0002:0000c5d0       $unwind$__acrt_release_locale_ref 00000001800545d0     libucrt:locale_refcounting.obj
 0002:0000c5d0       $unwind$_isatty            00000001800545d0     libucrt:isatty.obj
 0002:0000c5d0       $unwind$_get_osfhandle     00000001800545d0     libucrt:osfinfo.obj
 0002:0000c5d0       $unwind$__acrt_initialize_multibyte 00000001800545d0     libucrt:mbctype.obj
 0002:0000c5d0       $unwind$__acrt_update_thread_multibyte_data 00000001800545d0     libucrt:mbctype.obj
 0002:0000c5d0       $unwind$__doserrno         00000001800545d0     libucrt:errno.obj
 0002:0000c5d0       $unwind$_errno             00000001800545d0     libucrt:errno.obj
 0002:0000c5d0       $unwind$_invoke_watson     00000001800545d0     libucrt:invalid_parameter.obj
 0002:0000c5d0       $unwind$abort              00000001800545d0     libucrt:abort.obj
 0002:0000c5d0       $unwind$__acrt_initialize_command_line 00000001800545d0     libucrt:argv_data.obj
 0002:0000c5d0       $unwind$?should_call_terminate_process@@YA_NXZ 00000001800545d0     libucrt:exit.obj
 0002:0000c5d0       $unwind$_fileno            00000001800545d0     libucrt:fileno.obj
 0002:0000c5d0       $unwind$_statfp            00000001800545d0     libucrt:fpctrl.obj
 0002:0000c5d0       $unwind$fegetround         00000001800545d0     libucrt:fegetround.obj
 0002:0000c5d0       $unwind$_set_errno_from_matherr 00000001800545d0     libucrt:fpexcept.obj
 0002:0000c5d8       $unwind$?cookConvexMesh@Cooking@physx@@UEBA_NAEBVPxConvexMeshDesc@2@AEAVPxOutputStream@2@PEAW4Enum@PxConvexMeshCookingResult@2@@Z 00000001800545d8     Cooking.obj
 0002:0000c5d8       $unwind$?cookTriangleMesh@Cooking@physx@@UEBA_NAEBVPxTriangleMeshDesc@2@AEAVPxOutputStream@2@PEAW4Enum@PxTriangleMeshCookingResult@2@@Z 00000001800545d8     Cooking.obj
 0002:0000c5d8       $unwind$?createTriangleMesh@Cooking@physx@@UEBAPEAVPxTriangleMesh@2@AEBVPxTriangleMeshDesc@2@AEAVPxPhysicsInsertionCallback@2@PEAW4Enum@PxTriangleMeshCookingResult@2@@Z 00000001800545d8     Cooking.obj
 0002:0000c5f4       $unwind$?validateTriangleMesh@Cooking@physx@@UEBA_NAEBVPxTriangleMeshDesc@2@@Z 00000001800545f4     Cooking.obj
 0002:0000c604       $unwind$?createConvexMesh@Cooking@physx@@UEBAPEAVPxConvexMesh@2@AEBVPxConvexMeshDesc@2@AEAVPxPhysicsInsertionCallback@2@PEAW4Enum@PxConvexMeshCookingResult@2@@Z 0000000180054604     Cooking.obj
 0002:0000c620       $unwind$?validateConvexMesh@Cooking@physx@@UEBA_NAEBVPxConvexMeshDesc@2@@Z 0000000180054620     Cooking.obj
 0002:0000c630       $unwind$?computeHullPolygons@Cooking@physx@@UEBA_NAEBVPxSimpleTriangleMesh@2@AEAVPxAllocatorCallback@2@AEAIAEAPEAVPxVec3@2@2AEAPEAI2AEAPEAUPxHullPolygon@2@@Z 0000000180054630     Cooking.obj
 0002:0000c650       $unwind$?cookHeightField@Cooking@physx@@UEBA_NAEBVPxHeightFieldDesc@2@AEAVPxOutputStream@2@@Z 0000000180054650     Cooking.obj
 0002:0000c664       $unwind$?createHeightField@Cooking@physx@@UEBAPEAVPxHeightField@2@AEBVPxHeightFieldDesc@2@AEAVPxPhysicsInsertionCallback@2@@Z 0000000180054664     Cooking.obj
 0002:0000c664       $unwind$__acrt_fp_format   0000000180054664     libucrt:cvt.obj
 0002:0000c674       $unwind$?cookBVHStructure@Cooking@physx@@UEBA_NAEBVPxBVHStructureDesc@2@AEAVPxOutputStream@2@@Z 0000000180054674     Cooking.obj
 0002:0000c674       $unwind$__acrt_LCMapStringA 0000000180054674     libucrt:lcmapstringa.obj
 0002:0000c684       $unwind$?createBVHStructure@Cooking@physx@@UEBAPEAVPxBVHStructure@2@AEBVPxBVHStructureDesc@2@AEAVPxPhysicsInsertionCallback@2@@Z 0000000180054684     Cooking.obj
 0002:0000c694       $unwind$?cookConvexMeshInternal@Cooking@physx@@AEBA_NAEBVPxConvexMeshDesc@2@AEAVConvexMeshBuilder@2@PEAVConvexHullLib@2@PEAW4Enum@PxConvexMeshCookingResult@2@@Z 0000000180054694     Cooking.obj
 0002:0000c6a8       $chain$1$?cookConvexMeshInternal@Cooking@physx@@AEBA_NAEBVPxConvexMeshDesc@2@AEAVConvexMeshBuilder@2@PEAVConvexHullLib@2@PEAW4Enum@PxConvexMeshCookingResult@2@@Z 00000001800546a8     Cooking.obj
 0002:0000c6bc       $chain$2$?cookConvexMeshInternal@Cooking@physx@@AEBA_NAEBVPxConvexMeshDesc@2@AEAVConvexMeshBuilder@2@PEAVConvexHullLib@2@PEAW4Enum@PxConvexMeshCookingResult@2@@Z 00000001800546bc     Cooking.obj
 0002:0000c6cc       $chain$3$?cookConvexMeshInternal@Cooking@physx@@AEBA_NAEBVPxConvexMeshDesc@2@AEAVConvexMeshBuilder@2@PEAVConvexHullLib@2@PEAW4Enum@PxConvexMeshCookingResult@2@@Z 00000001800546cc     Cooking.obj
 0002:0000c6e0       $unwind$??0NodeAllocator@Gu@physx@@QEAA@AEBV012@@Z 00000001800546e0     BVHStructureBuilder.obj
 0002:0000c6e0       $unwind$?recreate@?$Array@VHalfEdge@ConvexHull@physx@@VNamedAllocator@shdfnd@3@@shdfnd@physx@@IEAAXI@Z 00000001800546e0     ConvexHullUtils.obj
 0002:0000c6e0       $unwind$?recreate@?$Array@VPxPlane@physx@@VNamedAllocator@shdfnd@2@@shdfnd@physx@@IEAAXI@Z 00000001800546e0     ConvexHullUtils.obj
 0002:0000c6e0       $unwind$?copy@ConvexMeshBuilder@physx@@QEAA_NAEAUConvexHullInitData@Gu@2@@Z 00000001800546e0     ConvexMeshBuilder.obj
 0002:0000c6e0       $unwind$?recreate@?$Array@UPxDebugLine@physx@@VNamedAllocator@shdfnd@2@@shdfnd@physx@@IEAAXI@Z 00000001800546e0     Cooking.obj
 0002:0000c6e0       $unwind$??0QuickHull@local@@QEAA@AEBUPxCookingParams@physx@@AEBVPxConvexMeshDesc@3@@Z 00000001800546e0     QuickHullConvexHullLib.obj
 0002:0000c6e0       $unwind$?recreate@?$Array@PEAUQuickHullFace@local@@VNamedAllocator@shdfnd@physx@@@shdfnd@physx@@IEAAXI@Z 00000001800546e0     QuickHullConvexHullLib.obj
 0002:0000c6e0       $unwind$?recreate@?$Array@PEAUQuickHullHalfEdge@local@@VNamedAllocator@shdfnd@physx@@@shdfnd@physx@@IEAAXI@Z 00000001800546e0     QuickHullConvexHullLib.obj
 0002:0000c6e0       $unwind$?recreate@?$Array@PEAUQuickHullVertex@local@@VNamedAllocator@shdfnd@physx@@@shdfnd@physx@@IEAAXI@Z 00000001800546e0     QuickHullConvexHullLib.obj
 0002:0000c6e0       $unwind$?recreate@?$Array@UExpandPoint@local@@VNamedAllocator@shdfnd@physx@@@shdfnd@physx@@IEAAXI@Z 00000001800546e0     QuickHullConvexHullLib.obj
 0002:0000c6e0       $unwind$?recreate@?$Array@IVNamedAllocator@shdfnd@physx@@@shdfnd@physx@@IEAAXI@Z 00000001800546e0     RTreeCooking.obj
 0002:0000c6e0       $unwind$?recreate@?$Array@URTreeNodeNQ@physx@@VNamedAllocator@shdfnd@2@@shdfnd@physx@@IEAAXI@Z 00000001800546e0     RTreeCooking.obj
 0002:0000c6e0       $unwind$?recreate@?$Array@URTreeNodeQ@Gu@physx@@VNamedAllocator@shdfnd@3@@shdfnd@physx@@IEAAXI@Z 00000001800546e0     RTreeCooking.obj
 0002:0000c6e0       $unwind$?recreate@?$Array@VPxVec3@physx@@VNamedAllocator@shdfnd@2@@shdfnd@physx@@IEAAXI@Z 00000001800546e0     RTreeCooking.obj
 0002:0000c6e0       $unwind$?get_raw_ptd_noexit@__crt_cached_ptd_host@@QEAAPEAU__acrt_ptd@@XZ 00000001800546e0     libucrt:invalid_parameter.obj
 0002:0000c6f0       $chain$0$?recreate@?$Array@UPxDebugLine@physx@@VNamedAllocator@shdfnd@2@@shdfnd@physx@@IEAAXI@Z 00000001800546f0     Cooking.obj
 0002:0000c704       $chain$1$?recreate@?$Array@UPxDebugLine@physx@@VNamedAllocator@shdfnd@2@@shdfnd@physx@@IEAAXI@Z 0000000180054704     Cooking.obj
 0002:0000c714       $unwind$??$copy@VNamedAllocator@shdfnd@physx@@@?$Array@USlab@NodeAllocator@Gu@physx@@VNamedAllocator@shdfnd@4@@shdfnd@physx@@IEAAXAEBV012@@Z 0000000180054714     BVHStructureBuilder.obj
 0002:0000c714       $unwind$??1ConvexHullLib@physx@@UEAA@XZ 0000000180054714     ConvexHullLib.obj
 0002:0000c714       $unwind$??1ConvexMeshBuilder@physx@@QEAA@XZ 0000000180054714     ConvexMeshBuilder.obj
 0002:0000c714       $unwind$??$copy@VNamedAllocator@shdfnd@physx@@@?$Array@VPair@@VNamedAllocator@shdfnd@physx@@@shdfnd@physx@@IEAAXAEBV012@@Z 0000000180054714     ConvexPolygonsBuilder.obj
 0002:0000c714       $unwind$??1ConvexPolygonsBuilder@physx@@QEAA@XZ 0000000180054714     ConvexPolygonsBuilder.obj
 0002:0000c714       $unwind$?reserveSegments@RenderOutput@Cm@physx@@QEAAPEAUPxDebugLine@3@I@Z 0000000180054714     Cooking.obj
 0002:0000c714       $unwind$?Clean@ReducedVertexCloud@physx@@QEAAAEAV12@XZ 0000000180054714     CookingUtils.obj
 0002:0000c714       $unwind$?computeLocalBounds@MeshBulider@physx@@IEAAXAEAVMeshDataBase@Gu@2@@Z 0000000180054714     MeshBuilder.obj
 0002:0000c714       $unwind$?fillConvexMeshDesc@QuickHullConvexHullLib@physx@@UEAAXAEAVPxConvexMeshDesc@2@@Z 0000000180054714     QuickHullConvexHullLib.obj
 0002:0000c714       $unwind$?allocate@?$Array@UInterval@physx@@V?$InlineAllocator@$0CAAA@VNamedAllocator@shdfnd@physx@@@shdfnd@2@@shdfnd@physx@@IEAAPEAUInterval@3@I@Z 0000000180054714     RTreeCooking.obj
 0002:0000c714       $unwind$?resizeUninitialized@?$Array@URTreeNodeNQ@physx@@VNamedAllocator@shdfnd@2@@shdfnd@physx@@QEAAXI@Z 0000000180054714     RTreeCooking.obj
 0002:0000c714       $unwind$??0BV4TriangleMeshBuilder@physx@@QEAA@AEBUPxCookingParams@1@@Z 0000000180054714     TriangleMeshBuilder.obj
 0002:0000c714       $unwind$??1BV4TriangleMeshBuilder@physx@@UEAA@XZ 0000000180054714     TriangleMeshBuilder.obj
 0002:0000c714       $unwind$??1TriangleMeshBuilder@physx@@UEAA@XZ 0000000180054714     TriangleMeshBuilder.obj
 0002:0000c714       $unwind$??1TriangleMeshData@Gu@physx@@UEAA@XZ 0000000180054714     TriangleMeshBuilder.obj
 0002:0000c714       $unwind$??_GBV4TriangleData@Gu@physx@@UEAAPEAXI@Z 0000000180054714     TriangleMeshBuilder.obj
 0002:0000c714       $unwind$??_GMeshDataBase@Gu@physx@@UEAAPEAXI@Z 0000000180054714     TriangleMeshBuilder.obj
 0002:0000c714       $unwind$??_GRTreeTriangleData@Gu@physx@@UEAAPEAXI@Z 0000000180054714     TriangleMeshBuilder.obj
 0002:0000c714       $unwind$??_GRTreeTriangleMeshBuilder@physx@@UEAAPEAXI@Z 0000000180054714     TriangleMeshBuilder.obj
 0002:0000c714       $unwind$??_GTriangleMeshBuilder@physx@@UEAAPEAXI@Z 0000000180054714     TriangleMeshBuilder.obj
 0002:0000c714       $unwind$??_GTriangleMeshData@Gu@physx@@UEAAPEAXI@Z 0000000180054714     TriangleMeshBuilder.obj
 0002:0000c714       $unwind$?DloadGetSRWLockFunctionPointers@@YAEXZ 0000000180054714     Delayimp:delayhlp.obj
 0002:0000c714       $unwind$_RTC_Initialize    0000000180054714     LIBCMT:initsect.obj
 0002:0000c714       $unwind$_RTC_Terminate     0000000180054714     LIBCMT:initsect.obj
 0002:0000c714       $unwind$__C_specific_handler_noexcept 0000000180054714     libvcruntime:chandler_noexcept.obj
 0002:0000c714       $unwind$__FrameUnwindFilter 0000000180054714     libvcruntime:ehhelpers.obj
 0002:0000c714       $unwind$?SetUnwindTryBlock@__FrameHandler3@@SAXPEA_KPEAU_xDISPATCHER_CONTEXT@@PEBU_s_FuncInfo@@H@Z 0000000180054714     libvcruntime:ehstate.obj
 0002:0000c714       $unwind$??_Gbad_exception@std@@UEAAPEAXI@Z 0000000180054714     libvcruntime:frame.obj
 0002:0000c714       $unwind$??_Gexception@std@@UEAAPEAXI@Z 0000000180054714     libvcruntime:frame.obj
 0002:0000c714       $unwind$?ExFilterRethrowFH4@@YAHPEAU_EXCEPTION_POINTERS@@PEAUEHExceptionRecord@@HPEAH@Z 0000000180054714     libvcruntime:frame.obj
 0002:0000c714       $unwind$_FindAndUnlinkFrame 0000000180054714     libvcruntime:risctrnsctrl.obj
 0002:0000c714       $unwind$??$append@VDNameNode@@@DName@@AEAAXPEBVDNameNode@@@Z 0000000180054714     libvcruntime:undname.obj
 0002:0000c714       $unwind$??$append@VDNameStatusNode@@@DName@@AEAAXPEBVDNameStatusNode@@@Z 0000000180054714     libvcruntime:undname.obj
 0002:0000c714       $unwind$??$append@VcharNode@@@DName@@AEAAXPEBVcharNode@@@Z 0000000180054714     libvcruntime:undname.obj
 0002:0000c714       $unwind$??$append@VpcharNode@@@DName@@AEAAXPEBVpcharNode@@@Z 0000000180054714     libvcruntime:undname.obj
 0002:0000c714       $unwind$??YDName@@QEAAAEAV0@AEBUStringLiteral@@@Z 0000000180054714     libvcruntime:undname.obj
 0002:0000c714       $unwind$??YDName@@QEAAAEAV0@D@Z 0000000180054714     libvcruntime:undname.obj
 0002:0000c714       $unwind$??YReplicator@@QEAAAEAV0@AEBVDName@@@Z 0000000180054714     libvcruntime:undname.obj
 0002:0000c714       $unwind$?getString@pairNode@@UEBAPEADPEAD0@Z 0000000180054714     libvcruntime:undname.obj
 0002:0000c714       $unwind$?length@pairNode@@UEBAHXZ 0000000180054714     libvcruntime:undname.obj
 0002:0000c714       $unwind$__vcrt_FlsSetValue 0000000180054714     libvcruntime:winapi_downlevel.obj
 0002:0000c714       $unwind$??$common_initialize_environment_nolock@D@@YAHXZ 0000000180054714     libucrt:environment_initialization.obj
 0002:0000c714       $unwind$_callnewh          0000000180054714     libucrt:new_handler.obj
 0002:0000c714       $unwind$_realloc_base      0000000180054714     libucrt:realloc_base.obj
 0002:0000c714       $unwind$?replace_current_thread_locale_nolock@@YAXQEAU__acrt_ptd@@QEAU__crt_locale_data@@@Z 0000000180054714     libucrt:per_thread_data.obj
 0002:0000c714       $unwind$__acrt_execute_uninitializers 0000000180054714     libucrt:shared_initialization.obj
 0002:0000c714       $unwind$__acrt_LocaleNameToLCID 0000000180054714     libucrt:winapi_thunks.obj
 0002:0000c714       $unwind$?free_crt_array_internal@@YAXQEAPEBX_K@Z 0000000180054714     libucrt:inittime.obj
 0002:0000c714       $unwind$_updatetlocinfoEx_nolock 0000000180054714     libucrt:locale_refcounting.obj
 0002:0000c714       $unwind$__acrt_uninitialize_lowio 0000000180054714     libucrt:ioinit.obj
 0002:0000c714       $unwind$?setSBCS@@YAXPEAU__crt_multibyte_data@@@Z 0000000180054714     libucrt:mbctype.obj
 0002:0000c714       $unwind$_initterm_e        0000000180054714     libucrt:initterm.obj
 0002:0000c720       $unwind$?outputSegment@RenderOutput@Cm@physx@@QEAAXAEBVPxVec3@3@0@Z 0000000180054720     Cooking.obj
 0002:0000c738       $unwind$?getHeight@HeightField@Gu@physx@@UEBAMMM@Z 0000000180054738     Cooking.obj
 0002:0000c738       $unwind$?getAddressOf@UnDecorator@@CA?AVDName@@XZ 0000000180054738     libvcruntime:undname.obj
 0002:0000c738       $unwind$?getArrayAccess@UnDecorator@@CA?AVDName@@XZ 0000000180054738     libvcruntime:undname.obj
 0002:0000c738       $unwind$?getArrayObject@UnDecorator@@CA?AVDName@@XZ 0000000180054738     libvcruntime:undname.obj
 0002:0000c738       $unwind$?getMemberAccess@UnDecorator@@CA?AVDName@@XZ 0000000180054738     libvcruntime:undname.obj
 0002:0000c738       $unwind$?getStringEncoding@UnDecorator@@CA?AVDName@@W4PrefixKind@@H@Z 0000000180054738     libvcruntime:undname.obj
 0002:0000c738       $unwind$?getUnionObject@UnDecorator@@CA?AVDName@@XZ 0000000180054738     libvcruntime:undname.obj
 0002:0000c738       $unwind$__dcrt_lowio_ensure_console_output_initialized 0000000180054738     libucrt:initcon.obj
 0002:0000c738       $unwind$?__mbrtowc_utf8@__crt_mbstring@@YA_KPEA_WPEBD_KPEAU_Mbstatet@@AEAV__crt_cached_ptd_host@@@Z 0000000180054738     libucrt:mbrtowc.obj
 0002:0000c738       $unwind$?getSystemCP@@YAHH@Z 0000000180054738     libucrt:mbctype.obj
 0002:0000c740       $unwind$?getTriangleNormal@HeightField@Gu@physx@@UEBA?AVPxVec3@3@I@Z 0000000180054740     Cooking.obj
 0002:0000c74c       $unwind$?getHeightInternal2@HeightField@Gu@physx@@QEBAMIMM@Z 000000018005474c     Cooking.obj
 0002:0000c758       $chain$0$?getHeightInternal2@HeightField@Gu@physx@@QEBAMIMM@Z 0000000180054758     Cooking.obj
 0002:0000c76c       $chain$2$?getHeightInternal2@HeightField@Gu@physx@@QEBAMIMM@Z 000000018005476c     Cooking.obj
 0002:0000c780       $unwind$?Reduce@ReducedVertexCloud@physx@@QEAA_NPEAUREDUCEDCLOUD@2@@Z 0000000180054780     CookingUtils.obj
 0002:0000c798       $unwind$??1AABBTreeBuildParams@Gu@physx@@QEAA@XZ 0000000180054798     BVHStructureBuilder.obj
 0002:0000c798       $unwind$??1BVHStructureBuilder@physx@@QEAA@XZ 0000000180054798     BVHStructureBuilder.obj
 0002:0000c798       $unwind$?reset@AABBTreeBuildParams@Gu@physx@@QEAAXXZ 0000000180054798     BVHStructureBuilder.obj
 0002:0000c798       $unwind$??1ConvexHullBuilder@physx@@QEAA@XZ 0000000180054798     ConvexHullBuilder.obj
 0002:0000c798       $unwind$??_GConvexHullLib@physx@@UEAAPEAXI@Z 0000000180054798     ConvexHullLib.obj
 0002:0000c798       $unwind$?resize@?$Array@VPxPlane@physx@@VNamedAllocator@shdfnd@2@@shdfnd@physx@@QEAAXIAEBVPxPlane@3@@Z 0000000180054798     ConvexHullUtils.obj
 0002:0000c798       $unwind$?resize@?$Array@VPxVec3@physx@@VNamedAllocator@shdfnd@2@@shdfnd@physx@@QEAAXIAEBVPxVec3@3@@Z 0000000180054798     ConvexHullUtils.obj
 0002:0000c798       $unwind$??1EdgeList@Gu@physx@@QEAA@XZ 0000000180054798     EdgeList.obj
 0002:0000c798       $unwind$??1MeshCleaner@physx@@QEAA@XZ 0000000180054798     MeshCleaner.obj
 0002:0000c798       $unwind$??_GQuantizerImpl@@EEAAPEAXI@Z 0000000180054798     Quantizer.obj
 0002:0000c798       $unwind$??_GConvexHull@physx@@QEAAPEAXI@Z 0000000180054798     QuickHullConvexHullLib.obj
 0002:0000c798       $unwind$??_GQuickHull@local@@QEAAPEAXI@Z 0000000180054798     QuickHullConvexHullLib.obj
 0002:0000c798       $unwind$??1MeshDataBase@Gu@physx@@UEAA@XZ 0000000180054798     TriangleMeshBuilder.obj
 0002:0000c798       $unwind$??_GBV4TriangleMeshBuilder@physx@@UEAAPEAXI@Z 0000000180054798     TriangleMeshBuilder.obj
 0002:0000c798       $unwind$_DllMainCRTStartup 0000000180054798     LIBCMT:dll_dllmain.obj
 0002:0000c798       $unwind$__vcrt_getptd_noexit 0000000180054798     libvcruntime:per_thread_data.obj
 0002:0000c798       $unwind$?CatchTryBlock@__FrameHandler3@@SAPEBU_s_TryBlockMapEntry@@PEBU_s_FuncInfo@@H@Z 0000000180054798     libvcruntime:risctrnsctrl.obj
 0002:0000c798       $unwind$?FrameUnwindToEmptyState@__FrameHandler3@@SAXPEA_KPEAU_xDISPATCHER_CONTEXT@@PEBU_s_FuncInfo@@@Z 0000000180054798     libvcruntime:risctrnsctrl.obj
 0002:0000c798       $unwind$??$?0$01@pcharNode@@QEAA@PEBDHU?$StringLifeSelector@$01@@@Z 0000000180054798     libvcruntime:undname.obj
 0002:0000c798       $unwind$??$?0$0A@@pcharNode@@QEAA@PEBDHU?$StringLifeSelector@$0A@@@@Z 0000000180054798     libvcruntime:undname.obj
 0002:0000c798       $unwind$??$doPchar@$01@DName@@AEAAXPEBDH@Z 0000000180054798     libvcruntime:undname.obj
 0002:0000c798       $unwind$??$doPchar@$0A@@DName@@AEAAXPEBDH@Z 0000000180054798     libvcruntime:undname.obj
 0002:0000c798       $unwind$??0DName@@QEAA@AEAPEBDD@Z 0000000180054798     libvcruntime:undname.obj
 0002:0000c798       $unwind$??0DName@@QEAA@PEAV0@@Z 0000000180054798     libvcruntime:undname.obj
 0002:0000c798       $unwind$?getMemoryWithBuffer@_HeapManager@@QEAAPEAX_K@Z 0000000180054798     libvcruntime:undname.obj
 0002:0000c798       $unwind$__vcrt_InitializeCriticalSectionEx 0000000180054798     libvcruntime:winapi_downlevel.obj
 0002:0000c798       $unwind$memcpy_s           0000000180054798     libucrt:cfout.obj
 0002:0000c798       $unwind$__acrt_getptd      0000000180054798     libucrt:per_thread_data.obj
 0002:0000c798       $unwind$__acrt_getptd_noexit 0000000180054798     libucrt:per_thread_data.obj
 0002:0000c798       $unwind$__acrt_getptd_noexit_explicit 0000000180054798     libucrt:per_thread_data.obj
 0002:0000c798       $unwind$__acrt_execute_initializers 0000000180054798     libucrt:shared_initialization.obj
 0002:0000c798       $unwind$__acrt_InitializeCriticalSectionEx 0000000180054798     libucrt:winapi_thunks.obj
 0002:0000c798       $unwind$_close_nolock_internal 0000000180054798     libucrt:close.obj
 0002:0000c798       $unwind$?value@?$dual_state_global@P6AXPEB_W00I_K@Z@__crt_state_management@@QEAAAEAP6AXPEB_W00I_K@ZAEAV__crt_cached_ptd_host@@@Z 0000000180054798     libucrt:invalid_parameter.obj
 0002:0000c798       $unwind$??0_LocaleUpdate@@QEAA@QEAU__crt_locale_pointers@@@Z 0000000180054798     libucrt:argv_wildcards.obj
 0002:0000c798       $unwind$?update_locale_slow@__crt_cached_ptd_host@@AEAAXXZ 0000000180054798     libucrt:output.obj
 0002:0000c798       $unwind$strncpy_s          0000000180054798     libucrt:strncpy_s.obj
 0002:0000c798       $unwind$_exception_enabled 0000000180054798     libucrt:libm_error.obj
 0002:0000c7a8       $unwind$?init@EdgeListBuilder@Gu@physx@@QEAA_NAEBUEDGELISTCREATE@23@@Z 00000001800547a8     EdgeList.obj
 0002:0000c7a8       $unwind$?getStateFromIterators@UWMap4@FH4@@SAHAEBViterator@12@H0H0@Z 00000001800547a8     libvcruntime:frame.obj
 0002:0000c7a8       $unwind$?getUndecoratedName@UnDecorator@@QEAAPEADPEADH@Z 00000001800547a8     libvcruntime:undname.obj
 0002:0000c7b8       $unwind$?createFacesToEdges@EdgeListBuilder@Gu@physx@@AEAA_NIPEBIPEBG@Z 00000001800547b8     EdgeList.obj
 0002:0000c7c8       $chain$3$?createFacesToEdges@EdgeListBuilder@Gu@physx@@AEAA_NIPEBIPEBG@Z 00000001800547c8     EdgeList.obj
 0002:0000c7e8       $chain$4$?createFacesToEdges@EdgeListBuilder@Gu@physx@@AEAA_NIPEBIPEBG@Z 00000001800547e8     EdgeList.obj
 0002:0000c800       $chain$5$?createFacesToEdges@EdgeListBuilder@Gu@physx@@AEAA_NIPEBIPEBG@Z 0000000180054800     EdgeList.obj
 0002:0000c814       $chain$6$?createFacesToEdges@EdgeListBuilder@Gu@physx@@AEAA_NIPEBIPEBG@Z 0000000180054814     EdgeList.obj
 0002:0000c824       $unwind$?createEdgesToFaces@EdgeListBuilder@Gu@physx@@AEAA_NIPEBIPEBG@Z 0000000180054824     EdgeList.obj
 0002:0000c834       $chain$1$?createEdgesToFaces@EdgeListBuilder@Gu@physx@@AEAA_NIPEBIPEBG@Z 0000000180054834     EdgeList.obj
 0002:0000c848       $chain$2$?createEdgesToFaces@EdgeListBuilder@Gu@physx@@AEAA_NIPEBIPEBG@Z 0000000180054848     EdgeList.obj
 0002:0000c858       $unwind$?computeActiveEdges@EdgeListBuilder@Gu@physx@@AEAA_NIPEBIPEBGPEBVPxVec3@3@M@Z 0000000180054858     EdgeList.obj
 0002:0000c868       $chain$0$?computeActiveEdges@EdgeListBuilder@Gu@physx@@AEAA_NIPEBIPEBGPEBVPxVec3@3@M@Z 0000000180054868     EdgeList.obj
 0002:0000c87c       $chain$3$?computeActiveEdges@EdgeListBuilder@Gu@physx@@AEAA_NIPEBIPEBGPEBVPxVec3@3@M@Z 000000018005487c     EdgeList.obj
 0002:0000c890       $chain$16$?computeActiveEdges@EdgeListBuilder@Gu@physx@@AEAA_NIPEBIPEBGPEBVPxVec3@3@M@Z 0000000180054890     EdgeList.obj
 0002:0000c8d4       $chain$17$?computeActiveEdges@EdgeListBuilder@Gu@physx@@AEAA_NIPEBIPEBGPEBVPxVec3@3@M@Z 00000001800548d4     EdgeList.obj
 0002:0000c8e8       $chain$18$?computeActiveEdges@EdgeListBuilder@Gu@physx@@AEAA_NIPEBIPEBGPEBVPxVec3@3@M@Z 00000001800548e8     EdgeList.obj
 0002:0000c8fc       $chain$2$?computeActiveEdges@EdgeListBuilder@Gu@physx@@AEAA_NIPEBIPEBGPEBVPxVec3@3@M@Z 00000001800548fc     EdgeList.obj
 0002:0000c910       $chain$19$?computeActiveEdges@EdgeListBuilder@Gu@physx@@AEAA_NIPEBIPEBGPEBVPxVec3@3@M@Z 0000000180054910     EdgeList.obj
 0002:0000c920       $chain$0$??$?_UI@@YAPEAX_KV?$ReflectionAllocator@I@shdfnd@physx@@PEBDH@Z 0000000180054920     EdgeList.obj
 0002:0000c934       $chain$1$??$?_UI@@YAPEAX_KV?$ReflectionAllocator@I@shdfnd@physx@@PEBDH@Z 0000000180054934     EdgeList.obj
 0002:0000c944       $unwind$??0MeshCleaner@physx@@QEAA@IPEBVPxVec3@1@IPEBIM@Z 0000000180054944     MeshCleaner.obj
 0002:0000c950       $chain$1$??0MeshCleaner@physx@@QEAA@IPEBVPxVec3@1@IPEBIM@Z 0000000180054950     MeshCleaner.obj
 0002:0000c968       $chain$5$??0MeshCleaner@physx@@QEAA@IPEBVPxVec3@1@IPEBIM@Z 0000000180054968     MeshCleaner.obj
 0002:0000c988       $chain$7$??0MeshCleaner@physx@@QEAA@IPEBVPxVec3@1@IPEBIM@Z 0000000180054988     MeshCleaner.obj
 0002:0000c9a0       $chain$8$??0MeshCleaner@physx@@QEAA@IPEBVPxVec3@1@IPEBIM@Z 00000001800549a0     MeshCleaner.obj
 0002:0000c9b4       $chain$9$??0MeshCleaner@physx@@QEAA@IPEBVPxVec3@1@IPEBIM@Z 00000001800549b4     MeshCleaner.obj
 0002:0000c9c4       $chain$10$??0MeshCleaner@physx@@QEAA@IPEBVPxVec3@1@IPEBIM@Z 00000001800549c4     MeshCleaner.obj
 0002:0000c9c4       $chain$12$??0MeshCleaner@physx@@QEAA@IPEBVPxVec3@1@IPEBIM@Z 00000001800549c4     MeshCleaner.obj
 0002:0000c9d4       $chain$11$??0MeshCleaner@physx@@QEAA@IPEBVPxVec3@1@IPEBIM@Z 00000001800549d4     MeshCleaner.obj
 0002:0000c9ec       $chain$13$??0MeshCleaner@physx@@QEAA@IPEBVPxVec3@1@IPEBIM@Z 00000001800549ec     MeshCleaner.obj
 0002:0000ca08       $chain$14$??0MeshCleaner@physx@@QEAA@IPEBVPxVec3@1@IPEBIM@Z 0000000180054a08     MeshCleaner.obj
 0002:0000ca18       $unwind$?createQuantizer@physx@@YAPEAVQuantizer@1@XZ 0000000180054a18     Quantizer.obj
 0002:0000ca28       $unwind$??$kmeans_cluster@VPxVec3@physx@@M@@YAIPEBVPxVec3@physx@@IIPEAV01@PEAIMM@Z 0000000180054a28     Quantizer.obj
 0002:0000ca34       $chain$6$??$kmeans_cluster@VPxVec3@physx@@M@@YAIPEBVPxVec3@physx@@IIPEAV01@PEAIMM@Z 0000000180054a34     Quantizer.obj
 0002:0000ca60       $chain$13$??$kmeans_cluster@VPxVec3@physx@@M@@YAIPEBVPxVec3@physx@@IIPEAV01@PEAIMM@Z 0000000180054a60     Quantizer.obj
 0002:0000ca8c       $chain$14$??$kmeans_cluster@VPxVec3@physx@@M@@YAIPEBVPxVec3@physx@@IIPEAV01@PEAIMM@Z 0000000180054a8c     Quantizer.obj
 0002:0000ca9c       $chain$15$??$kmeans_cluster@VPxVec3@physx@@M@@YAIPEBVPxVec3@physx@@IIPEAV01@PEAIMM@Z 0000000180054a9c     Quantizer.obj
 0002:0000caac       $unwind$?kmeansQuantize3D@QuantizerImpl@@UEAAPEBVPxVec3@physx@@IPEBV23@I_NIAEAI@Z 0000000180054aac     Quantizer.obj
 0002:0000cabc       $chain$2$?kmeansQuantize3D@QuantizerImpl@@UEAAPEBVPxVec3@physx@@IPEBV23@I_NIAEAI@Z 0000000180054abc     Quantizer.obj
 0002:0000cad8       $chain$3$?kmeansQuantize3D@QuantizerImpl@@UEAAPEBVPxVec3@physx@@IPEBV23@I_NIAEAI@Z 0000000180054ad8     Quantizer.obj
 0002:0000caf0       $chain$4$?kmeansQuantize3D@QuantizerImpl@@UEAAPEBVPxVec3@physx@@IPEBV23@I_NIAEAI@Z 0000000180054af0     Quantizer.obj
 0002:0000cb04       $chain$5$?kmeansQuantize3D@QuantizerImpl@@UEAAPEBVPxVec3@physx@@IPEBV23@I_NIAEAI@Z 0000000180054b04     Quantizer.obj
 0002:0000cb14       $unwind$?normalizeInput@QuantizerImpl@@AEAAXIPEBVPxVec3@physx@@I@Z 0000000180054b14     Quantizer.obj
 0002:0000cb30       $chain$2$?normalizeInput@QuantizerImpl@@AEAAXIPEBVPxVec3@physx@@I@Z 0000000180054b30     Quantizer.obj
 0002:0000cb4c       $chain$6$?normalizeInput@QuantizerImpl@@AEAAXIPEBVPxVec3@physx@@I@Z 0000000180054b4c     Quantizer.obj
 0002:0000cb6c       $chain$7$?normalizeInput@QuantizerImpl@@AEAAXIPEBVPxVec3@physx@@I@Z 0000000180054b6c     Quantizer.obj
 0002:0000cb7c       $chain$8$?normalizeInput@QuantizerImpl@@AEAAXIPEBVPxVec3@physx@@I@Z 0000000180054b7c     Quantizer.obj
 0002:0000cb8c       $chain$10$?normalizeInput@QuantizerImpl@@AEAAXIPEBVPxVec3@physx@@I@Z 0000000180054b8c     Quantizer.obj
 0002:0000cba4       $chain$11$?normalizeInput@QuantizerImpl@@AEAAXIPEBVPxVec3@physx@@I@Z 0000000180054ba4     Quantizer.obj
 0002:0000cbb4       $unwind$?growAndPushBack@?$Array@VHalfEdge@ConvexHull@physx@@VNamedAllocator@shdfnd@3@@shdfnd@physx@@IEAAAEAVHalfEdge@ConvexHull@3@AEBV453@@Z 0000000180054bb4     ConvexHullUtils.obj
 0002:0000cbb4       $unwind$?growAndPushBack@?$Array@VPxPlane@physx@@VNamedAllocator@shdfnd@2@@shdfnd@physx@@IEAAAEAVPxPlane@3@AEBV43@@Z 0000000180054bb4     ConvexHullUtils.obj
 0002:0000cbb4       $unwind$?growAndPushBack@?$Array@VPair@@VNamedAllocator@shdfnd@physx@@@shdfnd@physx@@IEAAAEAVPair@@AEBV4@@Z 0000000180054bb4     ConvexPolygonsBuilder.obj
 0002:0000cbb4       $unwind$?growAndPushBack@?$Array@VPxVec3@physx@@VNamedAllocator@shdfnd@2@@shdfnd@physx@@IEAAAEAVPxVec3@3@AEBV43@@Z 0000000180054bb4     Quantizer.obj
 0002:0000cbb4       $unwind$?growAndPushBack@?$Array@PEAUQuickHullFace@local@@VNamedAllocator@shdfnd@physx@@@shdfnd@physx@@IEAAAEAPEAUQuickHullFace@local@@AEBQEAU45@@Z 0000000180054bb4     QuickHullConvexHullLib.obj
 0002:0000cbb4       $unwind$?growAndPushBack@?$Array@PEAUQuickHullHalfEdge@local@@VNamedAllocator@shdfnd@physx@@@shdfnd@physx@@IEAAAEAPEAUQuickHullHalfEdge@local@@AEBQEAU45@@Z 0000000180054bb4     QuickHullConvexHullLib.obj
 0002:0000cbb4       $unwind$?growAndPushBack@?$Array@PEAUQuickHullVertex@local@@VNamedAllocator@shdfnd@physx@@@shdfnd@physx@@IEAAAEAPEAUQuickHullVertex@local@@AEBQEAU45@@Z 0000000180054bb4     QuickHullConvexHullLib.obj
 0002:0000cbb4       $unwind$?growAndPushBack@?$Array@IVNamedAllocator@shdfnd@physx@@@shdfnd@physx@@IEAAAEAIAEBI@Z 0000000180054bb4     RTreeCooking.obj
 0002:0000cbb4       $unwind$?growAndPushBack@?$Array@UPxBounds3V@physx@@VNamedAllocator@shdfnd@2@@shdfnd@physx@@IEAAAEAUPxBounds3V@3@AEBU43@@Z 0000000180054bb4     RTreeCooking.obj
 0002:0000cbb4       $unwind$?growAndPushBack@?$Array@URTreeNodeNQ@physx@@VNamedAllocator@shdfnd@2@@shdfnd@physx@@IEAAAEAURTreeNodeNQ@3@AEBU43@@Z 0000000180054bb4     RTreeCooking.obj
 0002:0000cbc4       $chain$0$?growAndPushBack@?$Array@VPxVec3@physx@@VNamedAllocator@shdfnd@2@@shdfnd@physx@@IEAAAEAVPxVec3@3@AEBV43@@Z 0000000180054bc4     Quantizer.obj
 0002:0000cbd8       $chain$1$?growAndPushBack@?$Array@VPxVec3@physx@@VNamedAllocator@shdfnd@2@@shdfnd@physx@@IEAAAEAVPxVec3@3@AEBV43@@Z 0000000180054bd8     Quantizer.obj
 0002:0000cbec       $chain$2$?growAndPushBack@?$Array@VPxVec3@physx@@VNamedAllocator@shdfnd@2@@shdfnd@physx@@IEAAAEAVPxVec3@3@AEBV43@@Z 0000000180054bec     Quantizer.obj
 0002:0000cbfc       $chain$3$?growAndPushBack@?$Array@VPxVec3@physx@@VNamedAllocator@shdfnd@2@@shdfnd@physx@@IEAAAEAVPxVec3@3@AEBV43@@Z 0000000180054bfc     Quantizer.obj
 0002:0000cc0c       $unwind$?loadFromDesc@BVHStructureBuilder@physx@@QEAA_NAEBVPxBVHStructureDesc@2@@Z 0000000180054c0c     BVHStructureBuilder.obj
 0002:0000cc18       $chain$2$?loadFromDesc@BVHStructureBuilder@physx@@QEAA_NAEBVPxBVHStructureDesc@2@@Z 0000000180054c18     BVHStructureBuilder.obj
 0002:0000cc34       $chain$5$?loadFromDesc@BVHStructureBuilder@physx@@QEAA_NAEBVPxBVHStructureDesc@2@@Z 0000000180054c34     BVHStructureBuilder.obj
 0002:0000cc50       $chain$6$?loadFromDesc@BVHStructureBuilder@physx@@QEAA_NAEBVPxBVHStructureDesc@2@@Z 0000000180054c50     BVHStructureBuilder.obj
 0002:0000cc60       $chain$7$?loadFromDesc@BVHStructureBuilder@physx@@QEAA_NAEBVPxBVHStructureDesc@2@@Z 0000000180054c60     BVHStructureBuilder.obj
 0002:0000cc70       $unwind$?save@BVHStructureBuilder@physx@@QEBA_NAEAVPxOutputStream@2@_N@Z 0000000180054c70     BVHStructureBuilder.obj
 0002:0000cc80       $chain$2$?save@BVHStructureBuilder@physx@@QEBA_NAEAVPxOutputStream@2@_N@Z 0000000180054c80     BVHStructureBuilder.obj
 0002:0000cc98       $chain$3$?save@BVHStructureBuilder@physx@@QEBA_NAEAVPxOutputStream@2@_N@Z 0000000180054c98     BVHStructureBuilder.obj
 0002:0000ccac       $chain$1$?allocate@?$Array@USlab@NodeAllocator@Gu@physx@@VNamedAllocator@shdfnd@4@@shdfnd@physx@@IEAAPEAUSlab@NodeAllocator@Gu@3@I@Z 0000000180054cac     BVHStructureBuilder.obj
 0002:0000ccc4       $chain$2$?allocate@?$Array@USlab@NodeAllocator@Gu@physx@@VNamedAllocator@shdfnd@4@@shdfnd@physx@@IEAAPEAUSlab@NodeAllocator@Gu@3@I@Z 0000000180054cc4     BVHStructureBuilder.obj
 0002:0000ccd4       $unwind$?recreate@?$Array@USlab@NodeAllocator@Gu@physx@@VNamedAllocator@shdfnd@4@@shdfnd@physx@@IEAAXI@Z 0000000180054cd4     BVHStructureBuilder.obj
 0002:0000ccd4       $unwind$?recreate@?$Array@UPxBounds3V@physx@@VNamedAllocator@shdfnd@2@@shdfnd@physx@@IEAAXI@Z 0000000180054cd4     RTreeCooking.obj
 0002:0000cce4       $chain$0$?recreate@?$Array@USlab@NodeAllocator@Gu@physx@@VNamedAllocator@shdfnd@4@@shdfnd@physx@@IEAAXI@Z 0000000180054ce4     BVHStructureBuilder.obj
 0002:0000ccf8       $chain$1$?recreate@?$Array@USlab@NodeAllocator@Gu@physx@@VNamedAllocator@shdfnd@4@@shdfnd@physx@@IEAAXI@Z 0000000180054cf8     BVHStructureBuilder.obj
 0002:0000cd08       $unwind$??4NodeAllocator@Gu@physx@@QEAAAEAV012@AEBV012@@Z 0000000180054d08     BVHStructureBuilder.obj
 0002:0000cd08       $unwind$?growAndPushBack@?$Array@UInterval@physx@@V?$InlineAllocator@$0CAAA@VNamedAllocator@shdfnd@physx@@@shdfnd@2@@shdfnd@physx@@IEAAAEAUInterval@3@AEBU43@@Z 0000000180054d08     RTreeCooking.obj
 0002:0000cd08       $unwind$__std_exception_copy 0000000180054d08     libvcruntime:std_exception.obj
 0002:0000cd08       $unwind$??$doPchar@$00@DName@@AEAAXPEBDH@Z 0000000180054d08     libvcruntime:undname.obj
 0002:0000cd08       $unwind$_free_osfhnd       0000000180054d08     libucrt:osfinfo.obj
 0002:0000cd1c       $unwind$?saveHeightField@physx@@YA_NAEBVHeightField@Gu@1@AEAVPxOutputStream@1@_N@Z 0000000180054d1c     HeightFieldCooking.obj
 0002:0000cd2c       $chain$2$?saveHeightField@physx@@YA_NAEBVHeightField@Gu@1@AEAVPxOutputStream@1@_N@Z 0000000180054d2c     HeightFieldCooking.obj
 0002:0000cd44       $chain$3$?saveHeightField@physx@@YA_NAEBVHeightField@Gu@1@AEAVPxOutputStream@1@_N@Z 0000000180054d44     HeightFieldCooking.obj
 0002:0000cd54       $unwind$?expandHullOBB@QuickHullConvexHullLib@physx@@IEAA?AW4Enum@PxConvexMeshCookingResult@2@XZ 0000000180054d54     QuickHullConvexHullLib.obj
 0002:0000cd54       $unwind$?buildFromTriangles@RTreeCooker@physx@@SAXAEAURTree@Gu@2@PEBVPxVec3@2@IPEBGPEBIIAEAV?$Array@IVNamedAllocator@shdfnd@physx@@@shdfnd@2@PEAURemapCallback@12@MW4Enum@PxMeshCookingHint@2@@Z 0000000180054d54     RTreeCooking.obj
 0002:0000cd60       $chain$7$?buildFromTriangles@RTreeCooker@physx@@SAXAEAURTree@Gu@2@PEBVPxVec3@2@IPEBGPEBIIAEAV?$Array@IVNamedAllocator@shdfnd@physx@@@shdfnd@2@PEAURemapCallback@12@MW4Enum@PxMeshCookingHint@2@@Z 0000000180054d60     RTreeCooking.obj
 0002:0000cd90       $chain$9$?buildFromTriangles@RTreeCooker@physx@@SAXAEAURTree@Gu@2@PEBVPxVec3@2@IPEBGPEBIIAEAV?$Array@IVNamedAllocator@shdfnd@physx@@@shdfnd@2@PEAURemapCallback@12@MW4Enum@PxMeshCookingHint@2@@Z 0000000180054d90     RTreeCooking.obj
 0002:0000cda8       $chain$10$?buildFromTriangles@RTreeCooker@physx@@SAXAEAURTree@Gu@2@PEBVPxVec3@2@IPEBGPEBIIAEAV?$Array@IVNamedAllocator@shdfnd@physx@@@shdfnd@2@PEAURemapCallback@12@MW4Enum@PxMeshCookingHint@2@@Z 0000000180054da8     RTreeCooking.obj
 0002:0000cdb8       $chain$11$?buildFromTriangles@RTreeCooker@physx@@SAXAEAURTree@Gu@2@PEBVPxVec3@2@IPEBGPEBIIAEAV?$Array@IVNamedAllocator@shdfnd@physx@@@shdfnd@2@PEAURemapCallback@12@MW4Enum@PxMeshCookingHint@2@@Z 0000000180054db8     RTreeCooking.obj
 0002:0000cdc8       $unwind$?buildFromBounds@physx@@YAXAEAURTree@Gu@1@PEBUPxBounds3V@1@IAEAV?$Array@IVNamedAllocator@shdfnd@physx@@@shdfnd@1@PEAURemapCallback@RTreeCooker@1@AEAT__m128@@4MW4Enum@PxMeshCookingHint@1@@Z 0000000180054dc8     RTreeCooking.obj
 0002:0000cde8       $chain$0$?growAndPushBack@?$Array@UPxBounds3V@physx@@VNamedAllocator@shdfnd@2@@shdfnd@physx@@IEAAAEAUPxBounds3V@3@AEBU43@@Z 0000000180054de8     RTreeCooking.obj
 0002:0000cdfc       $chain$1$?growAndPushBack@?$Array@UPxBounds3V@physx@@VNamedAllocator@shdfnd@2@@shdfnd@physx@@IEAAAEAUPxBounds3V@3@AEBU43@@Z 0000000180054dfc     RTreeCooking.obj
 0002:0000ce10       $chain$2$?growAndPushBack@?$Array@UPxBounds3V@physx@@VNamedAllocator@shdfnd@2@@shdfnd@physx@@IEAAAEAUPxBounds3V@3@AEBU43@@Z 0000000180054e10     RTreeCooking.obj
 0002:0000ce20       $chain$3$?growAndPushBack@?$Array@UPxBounds3V@physx@@VNamedAllocator@shdfnd@2@@shdfnd@physx@@IEAAAEAUPxBounds3V@3@AEBU43@@Z 0000000180054e20     RTreeCooking.obj
 0002:0000ce30       $chain$0$?recreate@?$Array@UPxBounds3V@physx@@VNamedAllocator@shdfnd@2@@shdfnd@physx@@IEAAXI@Z 0000000180054e30     RTreeCooking.obj
 0002:0000ce44       $chain$1$?recreate@?$Array@UPxBounds3V@physx@@VNamedAllocator@shdfnd@2@@shdfnd@physx@@IEAAXI@Z 0000000180054e44     RTreeCooking.obj
 0002:0000ce54       $unwind$?resize@?$Array@VHalfEdge@ConvexHull@physx@@VNamedAllocator@shdfnd@3@@shdfnd@physx@@QEAAXIAEBVHalfEdge@ConvexHull@3@@Z 0000000180054e54     ConvexHullUtils.obj
 0002:0000ce54       $unwind$??_GQuickHullConvexHullLib@physx@@UEAAPEAXI@Z 0000000180054e54     QuickHullConvexHullLib.obj
 0002:0000ce54       $unwind$?resize@?$Array@IVNamedAllocator@shdfnd@physx@@@shdfnd@physx@@QEAAXIAEBI@Z 0000000180054e54     RTreeCooking.obj
 0002:0000ce54       $unwind$__scrt_dllmain_exception_filter 0000000180054e54     LIBCMT:utility.obj
 0002:0000ce54       $unwind$?GetHandlerSearchState@__FrameHandler3@@SAHPEA_KPEAU_xDISPATCHER_CONTEXT@@PEBU_s_FuncInfo@@@Z 0000000180054e54     libvcruntime:frame.obj
 0002:0000ce54       $unwind$?Is_bad_exception_allowed@@YAEPEBU_s_ESTypeList@@@Z 0000000180054e54     libvcruntime:frame.obj
 0002:0000ce54       $unwind$?should_round_up@@YA_NQEBD0HW4__acrt_has_trailing_digits@@W4__acrt_rounding_mode@@@Z 0000000180054e54     libucrt:_fptostr.obj
 0002:0000ce54       $unwind$_ischartype_l      0000000180054e54     libucrt:atox.obj
 0002:0000ce54       $unwind$_recalloc_base     0000000180054e54     libucrt:recalloc.obj
 0002:0000ce54       $unwind$__acrt_free_locale 0000000180054e54     libucrt:locale_refcounting.obj
 0002:0000ce54       $unwind$__acrt_lowio_create_handle_array 0000000180054e54     libucrt:osfinfo.obj
 0002:0000ce54       $unwind$_seh_filter_exe    0000000180054e54     libucrt:exception_filter.obj
 0002:0000ce54       $unwind$__acrt_stdio_flush_nolock 0000000180054e54     libucrt:fflush.obj
 0002:0000ce54       $unwind$??$ensure_buffer_is_big_enough@D@formatting_buffer@__crt_stdio_output@@QEAA_N_KAEAV__crt_cached_ptd_host@@@Z 0000000180054e54     libucrt:output.obj
 0002:0000ce68       $chain$0$?growAndPushBack@?$Array@VHalfEdge@ConvexHull@physx@@VNamedAllocator@shdfnd@3@@shdfnd@physx@@IEAAAEAVHalfEdge@ConvexHull@3@AEBV453@@Z 0000000180054e68     ConvexHullUtils.obj
 0002:0000ce68       $chain$0$?growAndPushBack@?$Array@IVNamedAllocator@shdfnd@physx@@@shdfnd@physx@@IEAAAEAIAEBI@Z 0000000180054e68     RTreeCooking.obj
 0002:0000ce7c       $chain$1$?growAndPushBack@?$Array@VHalfEdge@ConvexHull@physx@@VNamedAllocator@shdfnd@3@@shdfnd@physx@@IEAAAEAVHalfEdge@ConvexHull@3@AEBV453@@Z 0000000180054e7c     ConvexHullUtils.obj
 0002:0000ce7c       $chain$1$?growAndPushBack@?$Array@IVNamedAllocator@shdfnd@physx@@@shdfnd@physx@@IEAAAEAIAEBI@Z 0000000180054e7c     RTreeCooking.obj
 0002:0000ce90       $chain$2$?growAndPushBack@?$Array@VHalfEdge@ConvexHull@physx@@VNamedAllocator@shdfnd@3@@shdfnd@physx@@IEAAAEAVHalfEdge@ConvexHull@3@AEBV453@@Z 0000000180054e90     ConvexHullUtils.obj
 0002:0000ce90       $chain$2$?growAndPushBack@?$Array@IVNamedAllocator@shdfnd@physx@@@shdfnd@physx@@IEAAAEAIAEBI@Z 0000000180054e90     RTreeCooking.obj
 0002:0000cea0       $chain$3$?growAndPushBack@?$Array@VHalfEdge@ConvexHull@physx@@VNamedAllocator@shdfnd@3@@shdfnd@physx@@IEAAAEAVHalfEdge@ConvexHull@3@AEBV453@@Z 0000000180054ea0     ConvexHullUtils.obj
 0002:0000cea0       $chain$3$?growAndPushBack@?$Array@IVNamedAllocator@shdfnd@physx@@@shdfnd@physx@@IEAAAEAIAEBI@Z 0000000180054ea0     RTreeCooking.obj
 0002:0000ceb0       $chain$0$?recreate@?$Array@VHalfEdge@ConvexHull@physx@@VNamedAllocator@shdfnd@3@@shdfnd@physx@@IEAAXI@Z 0000000180054eb0     ConvexHullUtils.obj
 0002:0000ceb0       $chain$0$?recreate@?$Array@IVNamedAllocator@shdfnd@physx@@@shdfnd@physx@@IEAAXI@Z 0000000180054eb0     RTreeCooking.obj
 0002:0000cec4       $chain$1$?recreate@?$Array@VHalfEdge@ConvexHull@physx@@VNamedAllocator@shdfnd@3@@shdfnd@physx@@IEAAXI@Z 0000000180054ec4     ConvexHullUtils.obj
 0002:0000cec4       $chain$1$?recreate@?$Array@IVNamedAllocator@shdfnd@physx@@@shdfnd@physx@@IEAAXI@Z 0000000180054ec4     RTreeCooking.obj
 0002:0000ced4       $chain$0$?recreate@?$Array@VPxVec3@physx@@VNamedAllocator@shdfnd@2@@shdfnd@physx@@IEAAXI@Z 0000000180054ed4     RTreeCooking.obj
 0002:0000cee8       $chain$1$?recreate@?$Array@VPxVec3@physx@@VNamedAllocator@shdfnd@2@@shdfnd@physx@@IEAAXI@Z 0000000180054ee8     RTreeCooking.obj
 0002:0000cef8       $unwind$?sort4@SubSortQuick@physx@@QEAAXPEIAIIAEAV?$Array@URTreeNodeNQ@physx@@VNamedAllocator@shdfnd@2@@shdfnd@2@AEAIAEAUPxBounds3V@2@I@Z 0000000180054ef8     RTreeCooking.obj
 0002:0000cf10       $chain$0$?growAndPushBack@?$Array@URTreeNodeNQ@physx@@VNamedAllocator@shdfnd@2@@shdfnd@physx@@IEAAAEAURTreeNodeNQ@3@AEBU43@@Z 0000000180054f10     RTreeCooking.obj
 0002:0000cf24       $chain$1$?growAndPushBack@?$Array@URTreeNodeNQ@physx@@VNamedAllocator@shdfnd@2@@shdfnd@physx@@IEAAAEAURTreeNodeNQ@3@AEBU43@@Z 0000000180054f24     RTreeCooking.obj
 0002:0000cf38       $chain$2$?growAndPushBack@?$Array@URTreeNodeNQ@physx@@VNamedAllocator@shdfnd@2@@shdfnd@physx@@IEAAAEAURTreeNodeNQ@3@AEBU43@@Z 0000000180054f38     RTreeCooking.obj
 0002:0000cf48       $chain$3$?growAndPushBack@?$Array@URTreeNodeNQ@physx@@VNamedAllocator@shdfnd@2@@shdfnd@physx@@IEAAAEAURTreeNodeNQ@3@AEBU43@@Z 0000000180054f48     RTreeCooking.obj
 0002:0000cf58       $chain$0$?recreate@?$Array@URTreeNodeNQ@physx@@VNamedAllocator@shdfnd@2@@shdfnd@physx@@IEAAXI@Z 0000000180054f58     RTreeCooking.obj
 0002:0000cf6c       $chain$1$?recreate@?$Array@URTreeNodeNQ@physx@@VNamedAllocator@shdfnd@2@@shdfnd@physx@@IEAAXI@Z 0000000180054f6c     RTreeCooking.obj
 0002:0000cf7c       $unwind$??$quickSelectFirstK@UBoundsLTE@physx@@@quickSelect@physx@@YAXPEIAIIIIAEBUBoundsLTE@1@@Z 0000000180054f7c     RTreeCooking.obj
 0002:0000cf94       $unwind$?split@SubSortSAH@physx@@QEAAIPEAII@Z 0000000180054f94     RTreeCooking.obj
 0002:0000cfa0       $chain$5$?split@SubSortSAH@physx@@QEAAIPEAII@Z 0000000180054fa0     RTreeCooking.obj
 0002:0000cfc8       $chain$6$?split@SubSortSAH@physx@@QEAAIPEAII@Z 0000000180054fc8     RTreeCooking.obj
 0002:0000cfdc       $chain$7$?split@SubSortSAH@physx@@QEAAIPEAII@Z 0000000180054fdc     RTreeCooking.obj
 0002:0000cfdc       $chain$9$?split@SubSortSAH@physx@@QEAAIPEAII@Z 0000000180054fdc     RTreeCooking.obj
 0002:0000cfec       $chain$8$?split@SubSortSAH@physx@@QEAAIPEAII@Z 0000000180054fec     RTreeCooking.obj
 0002:0000d000       $chain$10$?split@SubSortSAH@physx@@QEAAIPEAII@Z 0000000180055000     RTreeCooking.obj
 0002:0000d014       $unwind$?sort4@SubSortSAH@physx@@QEAAXPEAIIAEAV?$Array@URTreeNodeNQ@physx@@VNamedAllocator@shdfnd@2@@shdfnd@2@AEAIIPEAURTreeNodeNQ@2@@Z 0000000180055014     RTreeCooking.obj
 0002:0000d040       $unwind$??0?$InlineArray@UInterval@physx@@$0EAA@VNamedAllocator@shdfnd@2@@shdfnd@physx@@QEAA@AEBVNamedAllocator@12@@Z 0000000180055040     RTreeCooking.obj
 0002:0000d050       $unwind$?growAndPushBack@?$Array@UExpandPoint@local@@VNamedAllocator@shdfnd@physx@@@shdfnd@physx@@IEAAAEAUExpandPoint@local@@AEBU45@@Z 0000000180055050     QuickHullConvexHullLib.obj
 0002:0000d050       $unwind$?growAndPushBack@?$Array@URTreeNodeQ@Gu@physx@@VNamedAllocator@shdfnd@3@@shdfnd@physx@@IEAAAEAURTreeNodeQ@Gu@3@AEBU453@@Z 0000000180055050     RTreeCooking.obj
 0002:0000d060       $chain$0$?growAndPushBack@?$Array@URTreeNodeQ@Gu@physx@@VNamedAllocator@shdfnd@3@@shdfnd@physx@@IEAAAEAURTreeNodeQ@Gu@3@AEBU453@@Z 0000000180055060     RTreeCooking.obj
 0002:0000d074       $chain$1$?growAndPushBack@?$Array@URTreeNodeQ@Gu@physx@@VNamedAllocator@shdfnd@3@@shdfnd@physx@@IEAAAEAURTreeNodeQ@Gu@3@AEBU453@@Z 0000000180055074     RTreeCooking.obj
 0002:0000d088       $chain$2$?growAndPushBack@?$Array@URTreeNodeQ@Gu@physx@@VNamedAllocator@shdfnd@3@@shdfnd@physx@@IEAAAEAURTreeNodeQ@Gu@3@AEBU453@@Z 0000000180055088     RTreeCooking.obj
 0002:0000d098       $chain$3$?growAndPushBack@?$Array@URTreeNodeQ@Gu@physx@@VNamedAllocator@shdfnd@3@@shdfnd@physx@@IEAAAEAURTreeNodeQ@Gu@3@AEBU453@@Z 0000000180055098     RTreeCooking.obj
 0002:0000d0a8       $chain$0$?recreate@?$Array@URTreeNodeQ@Gu@physx@@VNamedAllocator@shdfnd@3@@shdfnd@physx@@IEAAXI@Z 00000001800550a8     RTreeCooking.obj
 0002:0000d0bc       $chain$1$?recreate@?$Array@URTreeNodeQ@Gu@physx@@VNamedAllocator@shdfnd@3@@shdfnd@physx@@IEAAXI@Z 00000001800550bc     RTreeCooking.obj
 0002:0000d0cc       $unwind$??$sort@IU?$Less@I@shdfnd@physx@@VNamedAllocator@23@@shdfnd@physx@@YAXPEAIIAEBU?$Less@I@01@AEBVNamedAllocator@01@I@Z 00000001800550cc     RTreeCooking.obj
 0002:0000d0ec       $unwind$??$sort@IUSortBoundsPredicate@physx@@VNamedAllocator@shdfnd@2@@shdfnd@physx@@YAXPEAIIAEBUSortBoundsPredicate@1@AEBVNamedAllocator@01@I@Z 00000001800550ec     RTreeCooking.obj
 0002:0000d10c       $unwind$??$smallSort@I$$CBUSortBoundsPredicate@physx@@@internal@shdfnd@physx@@YAXPEAIHHAEBUSortBoundsPredicate@2@@Z 000000018005510c     RTreeCooking.obj
 0002:0000d118       $chain$6$??$smallSort@I$$CBUSortBoundsPredicate@physx@@@internal@shdfnd@physx@@YAXPEAIHHAEBUSortBoundsPredicate@2@@Z 0000000180055118     RTreeCooking.obj
 0002:0000d144       $chain$7$??$smallSort@I$$CBUSortBoundsPredicate@physx@@@internal@shdfnd@physx@@YAXPEAIHHAEBUSortBoundsPredicate@2@@Z 0000000180055144     RTreeCooking.obj
 0002:0000d154       $unwind$?preallocate@QuickHull@local@@QEAAXI@Z 0000000180055154     QuickHullConvexHullLib.obj
 0002:0000d154       $unwind$?allocateVertices@MeshDataBase@Gu@physx@@QEAAPEAVPxVec3@3@I@Z 0000000180055154     TriangleMeshBuilder.obj
 0002:0000d164       $unwind$?allocateTriangles@TriangleMeshData@Gu@physx@@QEAAPEAXI_NI@Z 0000000180055164     TriangleMeshBuilder.obj
 0002:0000d178       $chain$0$??$?_UG@@YAPEAX_KV?$ReflectionAllocator@G@shdfnd@physx@@PEBDH@Z 0000000180055178     TriangleMeshBuilder.obj
 0002:0000d18c       $chain$1$??$?_UG@@YAPEAX_KV?$ReflectionAllocator@G@shdfnd@physx@@PEBDH@Z 000000018005518c     TriangleMeshBuilder.obj
 0002:0000d19c       $chain$0$??1RTreeTriangleData@Gu@physx@@UEAA@XZ 000000018005519c     TriangleMeshBuilder.obj
 0002:0000d1b0       $chain$1$??1RTreeTriangleData@Gu@physx@@UEAA@XZ 00000001800551b0     TriangleMeshBuilder.obj
 0002:0000d1c0       $unwind$?cleanMesh@TriangleMeshBuilder@physx@@QEAA_N_NPEAW4Enum@PxTriangleMeshCookingResult@2@@Z 00000001800551c0     TriangleMeshBuilder.obj
 0002:0000d1d4       $chain$1$?cleanMesh@TriangleMeshBuilder@physx@@QEAA_N_NPEAW4Enum@PxTriangleMeshCookingResult@2@@Z 00000001800551d4     TriangleMeshBuilder.obj
 0002:0000d1ec       $chain$2$?cleanMesh@TriangleMeshBuilder@physx@@QEAA_N_NPEAW4Enum@PxTriangleMeshCookingResult@2@@Z 00000001800551ec     TriangleMeshBuilder.obj
 0002:0000d200       $chain$3$?cleanMesh@TriangleMeshBuilder@physx@@QEAA_N_NPEAW4Enum@PxTriangleMeshCookingResult@2@@Z 0000000180055200     TriangleMeshBuilder.obj
 0002:0000d210       $chain$7$?cleanMesh@TriangleMeshBuilder@physx@@QEAA_N_NPEAW4Enum@PxTriangleMeshCookingResult@2@@Z 0000000180055210     TriangleMeshBuilder.obj
 0002:0000d22c       $chain$4$?cleanMesh@TriangleMeshBuilder@physx@@QEAA_N_NPEAW4Enum@PxTriangleMeshCookingResult@2@@Z 000000018005522c     TriangleMeshBuilder.obj
 0002:0000d240       $chain$8$?cleanMesh@TriangleMeshBuilder@physx@@QEAA_N_NPEAW4Enum@PxTriangleMeshCookingResult@2@@Z 0000000180055240     TriangleMeshBuilder.obj
 0002:0000d250       $unwind$?remapTopology@TriangleMeshBuilder@physx@@QEAAXPEBI@Z 0000000180055250     TriangleMeshBuilder.obj
 0002:0000d25c       $chain$3$?remapTopology@TriangleMeshBuilder@physx@@QEAAXPEBI@Z 000000018005525c     TriangleMeshBuilder.obj
 0002:0000d27c       $chain$4$?remapTopology@TriangleMeshBuilder@physx@@QEAAXPEBI@Z 000000018005527c     TriangleMeshBuilder.obj
 0002:0000d290       $chain$5$?remapTopology@TriangleMeshBuilder@physx@@QEAAXPEBI@Z 0000000180055290     TriangleMeshBuilder.obj
 0002:0000d2a0       $chain$6$?remapTopology@TriangleMeshBuilder@physx@@QEAAXPEBI@Z 00000001800552a0     TriangleMeshBuilder.obj
 0002:0000d2b0       $unwind$?createSharedEdgeData@TriangleMeshBuilder@physx@@QEAAX_N0@Z 00000001800552b0     TriangleMeshBuilder.obj
 0002:0000d2bc       $chain$3$?createSharedEdgeData@TriangleMeshBuilder@physx@@QEAAX_N0@Z 00000001800552bc     TriangleMeshBuilder.obj
 0002:0000d2dc       $chain$4$?createSharedEdgeData@TriangleMeshBuilder@physx@@QEAAX_N0@Z 00000001800552dc     TriangleMeshBuilder.obj
 0002:0000d2f0       $chain$5$?createSharedEdgeData@TriangleMeshBuilder@physx@@QEAAX_N0@Z 00000001800552f0     TriangleMeshBuilder.obj
 0002:0000d300       $chain$6$?createSharedEdgeData@TriangleMeshBuilder@physx@@QEAAX_N0@Z 0000000180055300     TriangleMeshBuilder.obj
 0002:0000d310       $unwind$?createGRBMidPhaseAndData@TriangleMeshBuilder@physx@@QEAAXI@Z 0000000180055310     TriangleMeshBuilder.obj
 0002:0000d31c       $chain$0$?createGRBMidPhaseAndData@TriangleMeshBuilder@physx@@QEAAXI@Z 000000018005531c     TriangleMeshBuilder.obj
 0002:0000d330       $chain$1$?createGRBMidPhaseAndData@TriangleMeshBuilder@physx@@QEAAXI@Z 0000000180055330     TriangleMeshBuilder.obj
 0002:0000d344       $chain$4$?createGRBMidPhaseAndData@TriangleMeshBuilder@physx@@QEAAXI@Z 0000000180055344     TriangleMeshBuilder.obj
 0002:0000d360       $chain$5$?createGRBMidPhaseAndData@TriangleMeshBuilder@physx@@QEAAXI@Z 0000000180055360     TriangleMeshBuilder.obj
 0002:0000d378       $chain$6$?createGRBMidPhaseAndData@TriangleMeshBuilder@physx@@QEAAXI@Z 0000000180055378     TriangleMeshBuilder.obj
 0002:0000d388       $chain$7$?createGRBMidPhaseAndData@TriangleMeshBuilder@physx@@QEAAXI@Z 0000000180055388     TriangleMeshBuilder.obj
 0002:0000d398       $chain$8$?createGRBMidPhaseAndData@TriangleMeshBuilder@physx@@QEAAXI@Z 0000000180055398     TriangleMeshBuilder.obj
 0002:0000d3a8       $unwind$?loadFromDesc@TriangleMeshBuilder@physx@@QEAA_NAEBVPxTriangleMeshDesc@2@PEAW4Enum@PxTriangleMeshCookingResult@2@_N@Z 00000001800553a8     TriangleMeshBuilder.obj
 0002:0000d3b8       $chain$1$?loadFromDesc@TriangleMeshBuilder@physx@@QEAA_NAEBVPxTriangleMeshDesc@2@PEAW4Enum@PxTriangleMeshCookingResult@2@_N@Z 00000001800553b8     TriangleMeshBuilder.obj
 0002:0000d3d0       $chain$2$?loadFromDesc@TriangleMeshBuilder@physx@@QEAA_NAEBVPxTriangleMeshDesc@2@PEAW4Enum@PxTriangleMeshCookingResult@2@_N@Z 00000001800553d0     TriangleMeshBuilder.obj
 0002:0000d3e4       $chain$3$?loadFromDesc@TriangleMeshBuilder@physx@@QEAA_NAEBVPxTriangleMeshDesc@2@PEAW4Enum@PxTriangleMeshCookingResult@2@_N@Z 00000001800553e4     TriangleMeshBuilder.obj
 0002:0000d3f4       $chain$5$?loadFromDesc@TriangleMeshBuilder@physx@@QEAA_NAEBVPxTriangleMeshDesc@2@PEAW4Enum@PxTriangleMeshCookingResult@2@_N@Z 00000001800553f4     TriangleMeshBuilder.obj
 0002:0000d40c       $chain$6$?loadFromDesc@TriangleMeshBuilder@physx@@QEAA_NAEBVPxTriangleMeshDesc@2@PEAW4Enum@PxTriangleMeshCookingResult@2@_N@Z 000000018005540c     TriangleMeshBuilder.obj
 0002:0000d41c       $unwind$?save@TriangleMeshBuilder@physx@@QEBA_NAEAVPxOutputStream@2@_NAEBUPxCookingParams@2@@Z 000000018005541c     TriangleMeshBuilder.obj
 0002:0000d438       $chain$3$?save@TriangleMeshBuilder@physx@@QEBA_NAEAVPxOutputStream@2@_NAEBUPxCookingParams@2@@Z 0000000180055438     TriangleMeshBuilder.obj
 0002:0000d44c       $unwind$?checkMeshIndicesSize@TriangleMeshBuilder@physx@@QEAAXXZ 000000018005544c     TriangleMeshBuilder.obj
 0002:0000d458       $chain$1$?checkMeshIndicesSize@TriangleMeshBuilder@physx@@QEAAXXZ 0000000180055458     TriangleMeshBuilder.obj
 0002:0000d470       $chain$2$?checkMeshIndicesSize@TriangleMeshBuilder@physx@@QEAAXXZ 0000000180055470     TriangleMeshBuilder.obj
 0002:0000d484       $chain$3$?checkMeshIndicesSize@TriangleMeshBuilder@physx@@QEAAXXZ 0000000180055484     TriangleMeshBuilder.obj
 0002:0000d494       $chain$4$?checkMeshIndicesSize@TriangleMeshBuilder@physx@@QEAAXXZ 0000000180055494     TriangleMeshBuilder.obj
 0002:0000d4a4       $unwind$?importMesh@TriangleMeshBuilder@physx@@IEAA_NAEBVPxTriangleMeshDesc@2@AEBUPxCookingParams@2@PEAW4Enum@PxTriangleMeshCookingResult@2@_N@Z 00000001800554a4     TriangleMeshBuilder.obj
 0002:0000d4c0       $unwind$?createMidPhaseStructure@RTreeTriangleMeshBuilder@physx@@UEAAXXZ 00000001800554c0     TriangleMeshBuilder.obj
 0002:0000d4d4       $unwind$?saveMidPhaseStructure@RTreeTriangleMeshBuilder@physx@@UEBAXAEAVPxOutputStream@2@_N@Z 00000001800554d4     TriangleMeshBuilder.obj
 0002:0000d4e4       $chain$0$?saveMidPhaseStructure@RTreeTriangleMeshBuilder@physx@@UEBAXAEAVPxOutputStream@2@_N@Z 00000001800554e4     TriangleMeshBuilder.obj
 0002:0000d4f8       $chain$1$?saveMidPhaseStructure@RTreeTriangleMeshBuilder@physx@@UEBAXAEAVPxOutputStream@2@_N@Z 00000001800554f8     TriangleMeshBuilder.obj
 0002:0000d508       $unwind$?createMidPhaseStructure@BV4TriangleMeshBuilder@physx@@UEAAXXZ 0000000180055508     TriangleMeshBuilder.obj
 0002:0000d514       $chain$2$?createMidPhaseStructure@BV4TriangleMeshBuilder@physx@@UEAAXXZ 0000000180055514     TriangleMeshBuilder.obj
 0002:0000d530       $chain$3$?createMidPhaseStructure@BV4TriangleMeshBuilder@physx@@UEAAXXZ 0000000180055530     TriangleMeshBuilder.obj
 0002:0000d544       $chain$4$?createMidPhaseStructure@BV4TriangleMeshBuilder@physx@@UEAAXXZ 0000000180055544     TriangleMeshBuilder.obj
 0002:0000d554       $chain$5$?createMidPhaseStructure@BV4TriangleMeshBuilder@physx@@UEAAXXZ 0000000180055554     TriangleMeshBuilder.obj
 0002:0000d568       $unwind$?saveMidPhaseStructure@BV4TriangleMeshBuilder@physx@@UEBAXAEAVPxOutputStream@2@_N@Z 0000000180055568     TriangleMeshBuilder.obj
 0002:0000d574       $unwind$?findAdjacent@physx@@YAIPEBVPxVec3@1@0PEBUuint3@1@IIIAEBVPxPlane@1@PEAUEdgeTriLookup@1@I@Z 0000000180055574     TriangleMeshBuilder.obj
 0002:0000d598       $unwind$?buildAdjacencies@physx@@YAXPEAUuint4@1@PEAVPxVec3@1@PEBV31@PEBUuint3@1@I@Z 0000000180055598     TriangleMeshBuilder.obj
 0002:0000d5a4       $chain$6$?buildAdjacencies@physx@@YAXPEAUuint4@1@PEAVPxVec3@1@PEBV31@PEBUuint3@1@I@Z 00000001800555a4     TriangleMeshBuilder.obj
 0002:0000d5d0       $chain$10$?buildAdjacencies@physx@@YAXPEAUuint4@1@PEAVPxVec3@1@PEBV31@PEBUuint3@1@I@Z 00000001800555d0     TriangleMeshBuilder.obj
 0002:0000d5f0       $chain$11$?buildAdjacencies@physx@@YAXPEAUuint4@1@PEAVPxVec3@1@PEBV31@PEBUuint3@1@I@Z 00000001800555f0     TriangleMeshBuilder.obj
 0002:0000d600       $chain$12$?buildAdjacencies@physx@@YAXPEAUuint4@1@PEAVPxVec3@1@PEBV31@PEBUuint3@1@I@Z 0000000180055600     TriangleMeshBuilder.obj
 0002:0000d614       $chain$13$?buildAdjacencies@physx@@YAXPEAUuint4@1@PEAVPxVec3@1@PEBV31@PEBUuint3@1@I@Z 0000000180055614     TriangleMeshBuilder.obj
 0002:0000d624       $chain$14$?buildAdjacencies@physx@@YAXPEAUuint4@1@PEAVPxVec3@1@PEBV31@PEBUuint3@1@I@Z 0000000180055624     TriangleMeshBuilder.obj
 0002:0000d634       $unwind$??$sort@UEdgeTriLookup@physx@@U?$Less@UEdgeTriLookup@physx@@@shdfnd@2@VNamedAllocator@42@@shdfnd@physx@@YAXPEAUEdgeTriLookup@1@IAEBU?$Less@UEdgeTriLookup@physx@@@01@AEBVNamedAllocator@01@I@Z 0000000180055634     TriangleMeshBuilder.obj
 0002:0000d654       $unwind$?precompute@BigConvexDataBuilder@physx@@QEAA_NI@Z 0000000180055654     BigConvexDataBuilder.obj
 0002:0000d66c       $chain$10$?precompute@BigConvexDataBuilder@physx@@QEAA_NI@Z 000000018005566c     BigConvexDataBuilder.obj
 0002:0000d6a8       $chain$11$?precompute@BigConvexDataBuilder@physx@@QEAA_NI@Z 00000001800556a8     BigConvexDataBuilder.obj
 0002:0000d6b8       $unwind$?save@BigConvexDataBuilder@physx@@QEBA_NAEAVPxOutputStream@2@_N@Z 00000001800556b8     BigConvexDataBuilder.obj
 0002:0000d6c8       $chain$0$?save@BigConvexDataBuilder@physx@@QEBA_NAEAVPxOutputStream@2@_N@Z 00000001800556c8     BigConvexDataBuilder.obj
 0002:0000d6dc       $chain$1$?save@BigConvexDataBuilder@physx@@QEBA_NAEAVPxOutputStream@2@_N@Z 00000001800556dc     BigConvexDataBuilder.obj
 0002:0000d6f0       $chain$2$?save@BigConvexDataBuilder@physx@@QEBA_NAEAVPxOutputStream@2@_N@Z 00000001800556f0     BigConvexDataBuilder.obj
 0002:0000d700       $chain$3$?save@BigConvexDataBuilder@physx@@QEBA_NAEAVPxOutputStream@2@_N@Z 0000000180055700     BigConvexDataBuilder.obj
 0002:0000d710       $unwind$?computeValencies@BigConvexDataBuilder@physx@@QEAA_NAEBVConvexHullBuilder@2@@Z 0000000180055710     BigConvexDataBuilder.obj
 0002:0000d724       $chain$2$?computeValencies@BigConvexDataBuilder@physx@@QEAA_NAEBVConvexHullBuilder@2@@Z 0000000180055724     BigConvexDataBuilder.obj
 0002:0000d740       $chain$3$?computeValencies@BigConvexDataBuilder@physx@@QEAA_NAEBVConvexHullBuilder@2@@Z 0000000180055740     BigConvexDataBuilder.obj
 0002:0000d750       $unwind$?init@ConvexHullBuilder@physx@@QEAA_NIPEBVPxVec3@2@PEBIIIPEBUPxHullPolygon@2@_NPEAVConvexHullLib@2@@Z 0000000180055750     ConvexHullBuilder.obj
 0002:0000d768       $chain$0$?init@ConvexHullBuilder@physx@@QEAA_NIPEBVPxVec3@2@PEBIIIPEBUPxHullPolygon@2@_NPEAVConvexHullLib@2@@Z 0000000180055768     ConvexHullBuilder.obj
 0002:0000d77c       $chain$2$?init@ConvexHullBuilder@physx@@QEAA_NIPEBVPxVec3@2@PEBIIIPEBUPxHullPolygon@2@_NPEAVConvexHullLib@2@@Z 000000018005577c     ConvexHullBuilder.obj
 0002:0000d794       $chain$7$?init@ConvexHullBuilder@physx@@QEAA_NIPEBVPxVec3@2@PEBIIIPEBUPxHullPolygon@2@_NPEAVConvexHullLib@2@@Z 0000000180055794     ConvexHullBuilder.obj
 0002:0000d7b8       $chain$9$?init@ConvexHullBuilder@physx@@QEAA_NIPEBVPxVec3@2@PEBIIIPEBUPxHullPolygon@2@_NPEAVConvexHullLib@2@@Z 00000001800557b8     ConvexHullBuilder.obj
 0002:0000d7d0       $chain$10$?init@ConvexHullBuilder@physx@@QEAA_NIPEBVPxVec3@2@PEBIIIPEBUPxHullPolygon@2@_NPEAVConvexHullLib@2@@Z 00000001800557d0     ConvexHullBuilder.obj
 0002:0000d7e4       $chain$11$?init@ConvexHullBuilder@physx@@QEAA_NIPEBVPxVec3@2@PEBIIIPEBUPxHullPolygon@2@_NPEAVConvexHullLib@2@@Z 00000001800557e4     ConvexHullBuilder.obj
 0002:0000d7f4       $chain$12$?init@ConvexHullBuilder@physx@@QEAA_NIPEBVPxVec3@2@PEBIIIPEBUPxHullPolygon@2@_NPEAVConvexHullLib@2@@Z 00000001800557f4     ConvexHullBuilder.obj
 0002:0000d804       $chain$13$?init@ConvexHullBuilder@physx@@QEAA_NIPEBVPxVec3@2@PEBIIIPEBUPxHullPolygon@2@_NPEAVConvexHullLib@2@@Z 0000000180055804     ConvexHullBuilder.obj
 0002:0000d814       $chain$14$?init@ConvexHullBuilder@physx@@QEAA_NIPEBVPxVec3@2@PEBIIIPEBUPxHullPolygon@2@_NPEAVConvexHullLib@2@@Z 0000000180055814     ConvexHullBuilder.obj
 0002:0000d824       $chain$15$?init@ConvexHullBuilder@physx@@QEAA_NIPEBVPxVec3@2@PEBIIIPEBUPxHullPolygon@2@_NPEAVConvexHullLib@2@@Z 0000000180055824     ConvexHullBuilder.obj
 0002:0000d834       $chain$16$?init@ConvexHullBuilder@physx@@QEAA_NIPEBVPxVec3@2@PEBIIIPEBUPxHullPolygon@2@_NPEAVConvexHullLib@2@@Z 0000000180055834     ConvexHullBuilder.obj
 0002:0000d850       $chain$17$?init@ConvexHullBuilder@physx@@QEAA_NIPEBVPxVec3@2@PEBIIIPEBUPxHullPolygon@2@_NPEAVConvexHullLib@2@@Z 0000000180055850     ConvexHullBuilder.obj
 0002:0000d864       $unwind$?save@ConvexHullBuilder@physx@@QEBA_NAEAVPxOutputStream@2@_N@Z 0000000180055864     ConvexHullBuilder.obj
 0002:0000d874       $chain$0$?save@ConvexHullBuilder@physx@@QEBA_NAEAVPxOutputStream@2@_N@Z 0000000180055874     ConvexHullBuilder.obj
 0002:0000d888       $chain$3$?save@ConvexHullBuilder@physx@@QEBA_NAEAVPxOutputStream@2@_N@Z 0000000180055888     ConvexHullBuilder.obj
 0002:0000d8a4       $chain$4$?save@ConvexHullBuilder@physx@@QEBA_NAEAVPxOutputStream@2@_N@Z 00000001800558a4     ConvexHullBuilder.obj
 0002:0000d8b8       $chain$5$?save@ConvexHullBuilder@physx@@QEBA_NAEAVPxOutputStream@2@_N@Z 00000001800558b8     ConvexHullBuilder.obj
 0002:0000d8c8       $unwind$?copy@ConvexHullBuilder@physx@@QEAA_NAEAUConvexHullData@Gu@2@AEAI@Z 00000001800558c8     ConvexHullBuilder.obj
 0002:0000d8e4       $unwind$?createEdgeList@ConvexHullBuilder@physx@@QEAA_N_NI@Z 00000001800558e4     ConvexHullBuilder.obj
 0002:0000d8f4       $chain$4$?createEdgeList@ConvexHullBuilder@physx@@QEAA_N_NI@Z 00000001800558f4     ConvexHullBuilder.obj
 0002:0000d918       $chain$6$?createEdgeList@ConvexHullBuilder@physx@@QEAA_N_NI@Z 0000000180055918     ConvexHullBuilder.obj
 0002:0000d93c       $unwind$?checkHullPolygons@ConvexHullBuilder@physx@@QEBA_NXZ 000000018005593c     ConvexHullBuilder.obj
 0002:0000d948       $chain$14$?checkHullPolygons@ConvexHullBuilder@physx@@QEBA_NXZ 0000000180055948     ConvexHullBuilder.obj
 0002:0000d994       $chain$16$?checkHullPolygons@ConvexHullBuilder@physx@@QEBA_NXZ 0000000180055994     ConvexHullBuilder.obj
 0002:0000d9e0       $chain$17$?checkHullPolygons@ConvexHullBuilder@physx@@QEBA_NXZ 00000001800559e0     ConvexHullBuilder.obj
 0002:0000d9f0       $unwind$?calculateVertexMapTable@ConvexHullBuilder@physx@@QEAA_NI_N@Z 00000001800559f0     ConvexHullBuilder.obj
 0002:0000da0c       $unwind$?computeGeomCenter@ConvexHullBuilder@physx@@IEBA_NAEAVPxVec3@2@IPEAUHullTriangleData@2@@Z 0000000180055a0c     ConvexHullBuilder.obj
 0002:0000da14       $chain$1$?computeGeomCenter@ConvexHullBuilder@physx@@IEBA_NAEAVPxVec3@2@IPEAUHullTriangleData@2@@Z 0000000180055a14     ConvexHullBuilder.obj
 0002:0000da2c       $chain$10$?computeGeomCenter@ConvexHullBuilder@physx@@IEBA_NAEAVPxVec3@2@IPEAUHullTriangleData@2@@Z 0000000180055a2c     ConvexHullBuilder.obj
 0002:0000da60       $chain$11$?computeGeomCenter@ConvexHullBuilder@physx@@IEBA_NAEAVPxVec3@2@IPEAUHullTriangleData@2@@Z 0000000180055a60     ConvexHullBuilder.obj
 0002:0000da70       $chain$12$?computeGeomCenter@ConvexHullBuilder@physx@@IEBA_NAEAVPxVec3@2@IPEAUHullTriangleData@2@@Z 0000000180055a70     ConvexHullBuilder.obj
 0002:0000da80       $chain$0$??$?_UE@@YAPEAX_KV?$ReflectionAllocator@E@shdfnd@physx@@PEBDH@Z 0000000180055a80     ConvexHullBuilder.obj
 0002:0000da94       $chain$1$??$?_UE@@YAPEAX_KV?$ReflectionAllocator@E@shdfnd@physx@@PEBDH@Z 0000000180055a94     ConvexHullBuilder.obj
 0002:0000daa4       $unwind$?cleanupVertices@ConvexHullLib@physx@@IEAA_NIPEBVPxVec3@2@IAEAIPEAV32@AEAV32@3@Z 0000000180055aa4     ConvexHullLib.obj
 0002:0000dacc       $chain$6$?cleanupVertices@ConvexHullLib@physx@@IEAA_NIPEBVPxVec3@2@IAEAIPEAV32@AEAV32@3@Z 0000000180055acc     ConvexHullLib.obj
 0002:0000dae4       $chain$12$?cleanupVertices@ConvexHullLib@physx@@IEAA_NIPEBVPxVec3@2@IAEAIPEAV32@AEAV32@3@Z 0000000180055ae4     ConvexHullLib.obj
 0002:0000db0c       $chain$13$?cleanupVertices@ConvexHullLib@physx@@IEAA_NIPEBVPxVec3@2@IAEAIPEAV32@AEAV32@3@Z 0000000180055b0c     ConvexHullLib.obj
 0002:0000db1c       $chain$14$?cleanupVertices@ConvexHullLib@physx@@IEAA_NIPEBVPxVec3@2@IAEAIPEAV32@AEAV32@3@Z 0000000180055b1c     ConvexHullLib.obj
 0002:0000db2c       $unwind$?shiftAndcleanupVertices@ConvexHullLib@physx@@IEAA_NIPEBVPxVec3@2@IAEAIPEAV32@AEAV32@3@Z 0000000180055b2c     ConvexHullLib.obj
 0002:0000db3c       $chain$6$?shiftAndcleanupVertices@ConvexHullLib@physx@@IEAA_NIPEBVPxVec3@2@IAEAIPEAV32@AEAV32@3@Z 0000000180055b3c     ConvexHullLib.obj
 0002:0000db68       $chain$7$?shiftAndcleanupVertices@ConvexHullLib@physx@@IEAA_NIPEBVPxVec3@2@IAEAIPEAV32@AEAV32@3@Z 0000000180055b68     ConvexHullLib.obj
 0002:0000db8c       $chain$12$?shiftAndcleanupVertices@ConvexHullLib@physx@@IEAA_NIPEBVPxVec3@2@IAEAIPEAV32@AEAV32@3@Z 0000000180055b8c     ConvexHullLib.obj
 0002:0000dbb0       $chain$13$?shiftAndcleanupVertices@ConvexHullLib@physx@@IEAA_NIPEBVPxVec3@2@IAEAIPEAV32@AEAV32@3@Z 0000000180055bb0     ConvexHullLib.obj
 0002:0000dbc0       $chain$14$?shiftAndcleanupVertices@ConvexHullLib@physx@@IEAA_NIPEBVPxVec3@2@IAEAIPEAV32@AEAV32@3@Z 0000000180055bc0     ConvexHullLib.obj
 0002:0000dbd0       $unwind$?swapLargestFace@ConvexHullLib@physx@@IEAAXAEAVPxConvexMeshDesc@2@@Z 0000000180055bd0     ConvexHullLib.obj
 0002:0000dbe0       $chain$1$?swapLargestFace@ConvexHullLib@physx@@IEAAXAEAVPxConvexMeshDesc@2@@Z 0000000180055be0     ConvexHullLib.obj
 0002:0000dbf8       $chain$2$?swapLargestFace@ConvexHullLib@physx@@IEAAXAEAVPxConvexMeshDesc@2@@Z 0000000180055bf8     ConvexHullLib.obj
 0002:0000dc0c       $chain$3$?swapLargestFace@ConvexHullLib@physx@@IEAAXAEAVPxConvexMeshDesc@2@@Z 0000000180055c0c     ConvexHullLib.obj
 0002:0000dc1c       $chain$4$?swapLargestFace@ConvexHullLib@physx@@IEAAXAEAVPxConvexMeshDesc@2@@Z 0000000180055c1c     ConvexHullLib.obj
 0002:0000dc2c       $unwind$?checkPointsAABBValidity@local@@YA_NIPEBVPxVec3@physx@@IMMAEAV23@1AEAIPEAV23@_N@Z 0000000180055c2c     ConvexHullLib.obj
 0002:0000dc48       $chain$5$?checkPointsAABBValidity@local@@YA_NIPEBVPxVec3@physx@@IMMAEAV23@1AEAIPEAV23@_N@Z 0000000180055c48     ConvexHullLib.obj
 0002:0000dc70       $chain$6$?checkPointsAABBValidity@local@@YA_NIPEBVPxVec3@physx@@IMMAEAV23@1AEAIPEAV23@_N@Z 0000000180055c70     ConvexHullLib.obj
 0002:0000dc80       $unwind$??0PxQuat@physx@@QEAA@AEBVPxMat33@1@@Z 0000000180055c80     ConvexHullUtils.obj
 0002:0000dc80       $unwind$?UScore@UnDecorator@@SA?AUStringLiteral@@W4Tokens@@@Z 0000000180055c80     libvcruntime:undname.obj
 0002:0000dc88       $chain$0$??0PxQuat@physx@@QEAA@AEBVPxMat33@1@@Z 0000000180055c88     ConvexHullUtils.obj
 0002:0000dc9c       $chain$1$??0PxQuat@physx@@QEAA@AEBVPxMat33@1@@Z 0000000180055c9c     ConvexHullUtils.obj
 0002:0000dcac       $unwind$?getInverse@PxMat33@physx@@QEBA?BV12@XZ 0000000180055cac     ConvexHullUtils.obj
 0002:0000dccc       $chain$1$?getInverse@PxMat33@physx@@QEBA?BV12@XZ 0000000180055ccc     ConvexHullUtils.obj
 0002:0000dce4       $chain$2$?getInverse@PxMat33@physx@@QEBA?BV12@XZ 0000000180055ce4     ConvexHullUtils.obj
 0002:0000dcf4       $unwind$??0ConvexHull@physx@@QEAA@AEBVPxVec3@1@AEBVPxTransform@1@AEBV?$Array@VPxPlane@physx@@VNamedAllocator@shdfnd@2@@shdfnd@1@@Z 0000000180055cf4     ConvexHullUtils.obj
 0002:0000dd34       $unwind$?findCandidatePlane@ConvexHull@physx@@QEBAHMM@Z 0000000180055d34     ConvexHullUtils.obj
 0002:0000dd4c       $chain$11$?findCandidatePlane@ConvexHull@physx@@QEBAHMM@Z 0000000180055d4c     ConvexHullUtils.obj
 0002:0000dd8c       $chain$12$?findCandidatePlane@ConvexHull@physx@@QEBAHMM@Z 0000000180055d8c     ConvexHullUtils.obj
 0002:0000dd9c       $chain$13$?findCandidatePlane@ConvexHull@physx@@QEBAHMM@Z 0000000180055d9c     ConvexHullUtils.obj
 0002:0000dddc       $unwind$?assertIntact@ConvexHull@physx@@QEBA_NM@Z 0000000180055ddc     ConvexHullUtils.obj
 0002:0000de20       $unwind$?maxNumVertsPerFace@ConvexHull@physx@@QEBAIXZ 0000000180055e20     ConvexHullUtils.obj
 0002:0000de2c       $chain$0$?maxNumVertsPerFace@ConvexHull@physx@@QEBAIXZ 0000000180055e2c     ConvexHullUtils.obj
 0002:0000de40       $chain$1$?maxNumVertsPerFace@ConvexHull@physx@@QEBAIXZ 0000000180055e40     ConvexHullUtils.obj
 0002:0000de50       $chain$0$?growAndPushBack@?$Array@VPxPlane@physx@@VNamedAllocator@shdfnd@2@@shdfnd@physx@@IEAAAEAVPxPlane@3@AEBV43@@Z 0000000180055e50     ConvexHullUtils.obj
 0002:0000de64       $chain$1$?growAndPushBack@?$Array@VPxPlane@physx@@VNamedAllocator@shdfnd@2@@shdfnd@physx@@IEAAAEAVPxPlane@3@AEBV43@@Z 0000000180055e64     ConvexHullUtils.obj
 0002:0000de78       $chain$2$?growAndPushBack@?$Array@VPxPlane@physx@@VNamedAllocator@shdfnd@2@@shdfnd@physx@@IEAAAEAVPxPlane@3@AEBV43@@Z 0000000180055e78     ConvexHullUtils.obj
 0002:0000de88       $chain$3$?growAndPushBack@?$Array@VPxPlane@physx@@VNamedAllocator@shdfnd@2@@shdfnd@physx@@IEAAAEAVPxPlane@3@AEBV43@@Z 0000000180055e88     ConvexHullUtils.obj
 0002:0000de98       $chain$0$?recreate@?$Array@VPxPlane@physx@@VNamedAllocator@shdfnd@2@@shdfnd@physx@@IEAAXI@Z 0000000180055e98     ConvexHullUtils.obj
 0002:0000deac       $chain$1$?recreate@?$Array@VPxPlane@physx@@VNamedAllocator@shdfnd@2@@shdfnd@physx@@IEAAXI@Z 0000000180055eac     ConvexHullUtils.obj
 0002:0000debc       $unwind$?convexHullCrop@physx@@YAPEAVConvexHull@1@AEBV21@AEBVPxPlane@1@M@Z 0000000180055ebc     ConvexHullUtils.obj
 0002:0000dec8       $chain$7$?convexHullCrop@physx@@YAPEAVConvexHull@1@AEBV21@AEBVPxPlane@1@M@Z 0000000180055ec8     ConvexHullUtils.obj
 0002:0000def8       $chain$8$?convexHullCrop@physx@@YAPEAVConvexHull@1@AEBV21@AEBVPxPlane@1@M@Z 0000000180055ef8     ConvexHullUtils.obj
 0002:0000df0c       $chain$11$?convexHullCrop@physx@@YAPEAVConvexHull@1@AEBV21@AEBVPxPlane@1@M@Z 0000000180055f0c     ConvexHullUtils.obj
 0002:0000df0c       $chain$9$?convexHullCrop@physx@@YAPEAVConvexHull@1@AEBV21@AEBVPxPlane@1@M@Z 0000000180055f0c     ConvexHullUtils.obj
 0002:0000df1c       $chain$10$?convexHullCrop@physx@@YAPEAVConvexHull@1@AEBV21@AEBVPxPlane@1@M@Z 0000000180055f1c     ConvexHullUtils.obj
 0002:0000df30       $chain$12$?convexHullCrop@physx@@YAPEAVConvexHull@1@AEBV21@AEBVPxPlane@1@M@Z 0000000180055f30     ConvexHullUtils.obj
 0002:0000df40       $unwind$?computeOBBFromConvex@physx@@YA_NAEBVPxConvexMeshDesc@1@AEAVPxVec3@1@AEAVPxTransform@1@@Z 0000000180055f40     ConvexHullUtils.obj
 0002:0000df64       $chain$4$?computeOBBFromConvex@physx@@YA_NAEBVPxConvexMeshDesc@1@AEAVPxVec3@1@AEAVPxTransform@1@@Z 0000000180055f64     ConvexHullUtils.obj
 0002:0000df88       $chain$5$?computeOBBFromConvex@physx@@YA_NAEBVPxConvexMeshDesc@1@AEAVPxVec3@1@AEAVPxTransform@1@@Z 0000000180055f88     ConvexHullUtils.obj
 0002:0000df98       $unwind$?rotate@Box@Gu@physx@@QEBA?AVPxVec3@3@AEBV43@@Z 0000000180055f98     ConvexHullUtils.obj
 0002:0000dfa4       $unwind$?rotateInv@Box@Gu@physx@@QEBA?AVPxVec3@3@AEBV43@@Z 0000000180055fa4     ConvexHullUtils.obj
 0002:0000dfa4       $unwind$?transform@Box@Gu@physx@@QEBA?AVPxVec3@3@AEBV43@@Z 0000000180055fa4     ConvexHullUtils.obj
 0002:0000dfb0       $unwind$?computeAABBExtent@Box@Gu@physx@@QEBA?AVPxVec3@3@XZ 0000000180055fb0     ConvexHullUtils.obj
 0002:0000dfbc       $unwind$?computeBoxPoints@Box@Gu@physx@@QEBAXPEIAVPxVec3@3@@Z 0000000180055fbc     ConvexHullUtils.obj
 0002:0000dfbc       $unwind$_invalid_parameter_noinfo 0000000180055fbc     libucrt:invalid_parameter.obj
 0002:0000dfbc       $unwind$?state_case_size@?$output_processor@DV?$string_output_adapter@D@__crt_stdio_output@@V?$format_validation_base@DV?$string_output_adapter@D@__crt_stdio_output@@@2@@__crt_stdio_output@@AEAA_NXZ 0000000180055fbc     libucrt:output.obj
 0002:0000dfbc       $unwind$_log10_special     0000000180055fbc     libucrt:log_special.obj
 0002:0000dfc4       $unwind$?computeOBBSIMD@local@@YAXIPEBT__m128@@AEAT2@AEBT2@1@Z 0000000180055fc4     ConvexHullUtils.obj
 0002:0000dff0       $chain$1$?computeOBBSIMD@local@@YAXIPEBT__m128@@AEAT2@AEBT2@1@Z 0000000180055ff0     ConvexHullUtils.obj
 0002:0000e008       $chain$2$?computeOBBSIMD@local@@YAXIPEBT__m128@@AEAT2@AEBT2@1@Z 0000000180056008     ConvexHullUtils.obj
 0002:0000e018       $unwind$?build@ConvexMeshBuilder@physx@@QEAA_NAEBVPxConvexMeshDesc@2@I_NPEAVConvexHullLib@2@@Z 0000000180056018     ConvexMeshBuilder.obj
 0002:0000e028       $chain$0$?build@ConvexMeshBuilder@physx@@QEAA_NAEBVPxConvexMeshDesc@2@I_NPEAVConvexHullLib@2@@Z 0000000180056028     ConvexMeshBuilder.obj
 0002:0000e03c       $chain$2$?build@ConvexMeshBuilder@physx@@QEAA_NAEBVPxConvexMeshDesc@2@I_NPEAVConvexHullLib@2@@Z 000000018005603c     ConvexMeshBuilder.obj
 0002:0000e054       $chain$3$?build@ConvexMeshBuilder@physx@@QEAA_NAEBVPxConvexMeshDesc@2@I_NPEAVConvexHullLib@2@@Z 0000000180056054     ConvexMeshBuilder.obj
 0002:0000e064       $chain$4$?build@ConvexMeshBuilder@physx@@QEAA_NAEBVPxConvexMeshDesc@2@I_NPEAVConvexHullLib@2@@Z 0000000180056064     ConvexMeshBuilder.obj
 0002:0000e074       $unwind$?save@ConvexMeshBuilder@physx@@QEBA_NAEAVPxOutputStream@2@_N@Z 0000000180056074     ConvexMeshBuilder.obj
 0002:0000e084       $chain$0$?save@ConvexMeshBuilder@physx@@QEBA_NAEAVPxOutputStream@2@_N@Z 0000000180056084     ConvexMeshBuilder.obj
 0002:0000e098       $chain$1$?save@ConvexMeshBuilder@physx@@QEBA_NAEAVPxOutputStream@2@_N@Z 0000000180056098     ConvexMeshBuilder.obj
 0002:0000e0a8       $unwind$?loadConvexHull@ConvexMeshBuilder@physx@@QEAA_NAEBVPxConvexMeshDesc@2@PEAVConvexHullLib@2@@Z 00000001800560a8     ConvexMeshBuilder.obj
 0002:0000e0c8       $unwind$?computeHullPolygons@ConvexMeshBuilder@physx@@QEAA_NAEBIPEBVPxVec3@2@0PEBIAEAVPxAllocatorCallback@2@AEAIAEAPEAV32@4AEAPEAI4AEAPEAUPxHullPolygon@2@@Z 00000001800560c8     ConvexMeshBuilder.obj
 0002:0000e0d4       $chain$3$?computeHullPolygons@ConvexMeshBuilder@physx@@QEAA_NAEBIPEBVPxVec3@2@0PEBIAEAVPxAllocatorCallback@2@AEAIAEAPEAV32@4AEAPEAI4AEAPEAUPxHullPolygon@2@@Z 00000001800560d4     ConvexMeshBuilder.obj
 0002:0000e0f0       $chain$4$?computeHullPolygons@ConvexMeshBuilder@physx@@QEAA_NAEBIPEBVPxVec3@2@0PEBIAEAVPxAllocatorCallback@2@AEAIAEAPEAV32@4AEAPEAI4AEAPEAUPxHullPolygon@2@@Z 00000001800560f0     ConvexMeshBuilder.obj
 0002:0000e104       $unwind$?computeMassInfo@ConvexMeshBuilder@physx@@QEAAX_N@Z 0000000180056104     ConvexMeshBuilder.obj
 0002:0000e114       $chain$0$?computeMassInfo@ConvexMeshBuilder@physx@@QEAAX_N@Z 0000000180056114     ConvexMeshBuilder.obj
 0002:0000e128       $chain$1$?computeMassInfo@ConvexMeshBuilder@physx@@QEAAX_N@Z 0000000180056128     ConvexMeshBuilder.obj
 0002:0000e13c       $chain$5$?computeMassInfo@ConvexMeshBuilder@physx@@QEAAX_N@Z 000000018005613c     ConvexMeshBuilder.obj
 0002:0000e15c       $chain$6$?computeMassInfo@ConvexMeshBuilder@physx@@QEAAX_N@Z 000000018005615c     ConvexMeshBuilder.obj
 0002:0000e16c       $chain$7$?computeMassInfo@ConvexMeshBuilder@physx@@QEAAX_N@Z 000000018005616c     ConvexMeshBuilder.obj
 0002:0000e17c       $chain$8$?computeMassInfo@ConvexMeshBuilder@physx@@QEAAX_N@Z 000000018005617c     ConvexMeshBuilder.obj
 0002:0000e18c       $unwind$?ComputeInternalExtent@@YAXAEAUConvexHullData@Gu@physx@@PEBUHullPolygonData@23@@Z 000000018005618c     ConvexMeshBuilder.obj
 0002:0000e1b8       $chain$0$?ComputeInternalExtent@@YAXAEAUConvexHullData@Gu@physx@@PEBUHullPolygonData@23@@Z 00000001800561b8     ConvexMeshBuilder.obj
 0002:0000e1cc       $chain$1$?ComputeInternalExtent@@YAXAEAUConvexHullData@Gu@physx@@PEBUHullPolygonData@23@@Z 00000001800561cc     ConvexMeshBuilder.obj
 0002:0000e1dc       $unwind$?computeHullPolygons@ConvexPolygonsBuilder@physx@@QEAA_NAEBIPEBVPxVec3@2@0PEBI@Z 00000001800561dc     ConvexPolygonsBuilder.obj
 0002:0000e200       $chain$0$?computeHullPolygons@ConvexPolygonsBuilder@physx@@QEAA_NAEBIPEBVPxVec3@2@0PEBI@Z 0000000180056200     ConvexPolygonsBuilder.obj
 0002:0000e214       $chain$8$?computeHullPolygons@ConvexPolygonsBuilder@physx@@QEAA_NAEBIPEBVPxVec3@2@0PEBI@Z 0000000180056214     ConvexPolygonsBuilder.obj
 0002:0000e244       $chain$9$?computeHullPolygons@ConvexPolygonsBuilder@physx@@QEAA_NAEBIPEBVPxVec3@2@0PEBI@Z 0000000180056244     ConvexPolygonsBuilder.obj
 0002:0000e274       $unwind$?createPolygonData@ConvexPolygonsBuilder@physx@@AEAA_NXZ 0000000180056274     ConvexPolygonsBuilder.obj
 0002:0000e280       $chain$7$?createPolygonData@ConvexPolygonsBuilder@physx@@AEAA_NXZ 0000000180056280     ConvexPolygonsBuilder.obj
 0002:0000e2b0       $chain$8$?createPolygonData@ConvexPolygonsBuilder@physx@@AEAA_NXZ 00000001800562b0     ConvexPolygonsBuilder.obj
 0002:0000e2c0       $chain$9$?createPolygonData@ConvexPolygonsBuilder@physx@@AEAA_NXZ 00000001800562c0     ConvexPolygonsBuilder.obj
 0002:0000e2f0       $chain$17$?createPolygonData@ConvexPolygonsBuilder@physx@@AEAA_NXZ 00000001800562f0     ConvexPolygonsBuilder.obj
 0002:0000e320       $chain$18$?createPolygonData@ConvexPolygonsBuilder@physx@@AEAA_NXZ 0000000180056320     ConvexPolygonsBuilder.obj
 0002:0000e330       $unwind$?createTrianglesFromPolygons@ConvexPolygonsBuilder@physx@@AEAA_NXZ 0000000180056330     ConvexPolygonsBuilder.obj
 0002:0000e354       $chain$3$?createTrianglesFromPolygons@ConvexPolygonsBuilder@physx@@AEAA_NXZ 0000000180056354     ConvexPolygonsBuilder.obj
 0002:0000e374       $chain$4$?createTrianglesFromPolygons@ConvexPolygonsBuilder@physx@@AEAA_NXZ 0000000180056374     ConvexPolygonsBuilder.obj
 0002:0000e384       $unwind$?findLineStrip@@YA_NAEAV?$Array@IVNamedAllocator@shdfnd@physx@@@shdfnd@physx@@AEBV?$Array@VPair@@VNamedAllocator@shdfnd@physx@@@23@@Z 0000000180056384     ConvexPolygonsBuilder.obj
 0002:0000e39c       $chain$1$?allocate@?$Array@VPair@@VNamedAllocator@shdfnd@physx@@@shdfnd@physx@@IEAAPEAVPair@@I@Z 000000018005639c     ConvexPolygonsBuilder.obj
 0002:0000e3b4       $chain$2$?allocate@?$Array@VPair@@VNamedAllocator@shdfnd@physx@@@shdfnd@physx@@IEAAPEAVPair@@I@Z 00000001800563b4     ConvexPolygonsBuilder.obj
 0002:0000e3c4       $chain$0$?growAndPushBack@?$Array@VPair@@VNamedAllocator@shdfnd@physx@@@shdfnd@physx@@IEAAAEAVPair@@AEBV4@@Z 00000001800563c4     ConvexPolygonsBuilder.obj
 0002:0000e3d8       $chain$1$?growAndPushBack@?$Array@VPair@@VNamedAllocator@shdfnd@physx@@@shdfnd@physx@@IEAAAEAVPair@@AEBV4@@Z 00000001800563d8     ConvexPolygonsBuilder.obj
 0002:0000e3ec       $chain$2$?growAndPushBack@?$Array@VPair@@VNamedAllocator@shdfnd@physx@@@shdfnd@physx@@IEAAAEAVPair@@AEBV4@@Z 00000001800563ec     ConvexPolygonsBuilder.obj
 0002:0000e3fc       $chain$3$?growAndPushBack@?$Array@VPair@@VNamedAllocator@shdfnd@physx@@@shdfnd@physx@@IEAAAEAVPair@@AEBV4@@Z 00000001800563fc     ConvexPolygonsBuilder.obj
 0002:0000e40c       $unwind$?TestDuplicateTriangles@@YA_NAEAIPEAU?$TriangleT@I@Gu@physx@@_N@Z 000000018005640c     ConvexPolygonsBuilder.obj
 0002:0000e428       $unwind$?checkRedundantVertices@@YAXAEAIAEAV?$Array@IVNamedAllocator@shdfnd@physx@@@shdfnd@physx@@AEBVConvexPolygonsBuilder@3@11@Z 0000000180056428     ConvexPolygonsBuilder.obj
 0002:0000e444       $unwind$?extractHullPolygons@@YA_NAEAIAEAV?$Array@IVNamedAllocator@shdfnd@physx@@@shdfnd@physx@@AEBVConvexPolygonsBuilder@3@PEAV123@1@Z 0000000180056444     ConvexPolygonsBuilder.obj
 0002:0000e460       $unwind$?FloodFill@Local@?7??extractHullPolygons@@YA_NAEAIAEAV?$Array@IVNamedAllocator@shdfnd@physx@@@shdfnd@physx@@AEBVConvexPolygonsBuilder@5@PEAV345@1@Z@SAX1PEBVAdjTriangle@5@IPEA_N@Z 0000000180056460     ConvexPolygonsBuilder.obj
 0002:0000e470       $chain$0$?FloodFill@Local@?7??extractHullPolygons@@YA_NAEAIAEAV?$Array@IVNamedAllocator@shdfnd@physx@@@shdfnd@physx@@AEBVConvexPolygonsBuilder@5@PEAV345@1@Z@SAX1PEBVAdjTriangle@5@IPEA_N@Z 0000000180056470     ConvexPolygonsBuilder.obj
 0002:0000e484       $chain$1$?FloodFill@Local@?7??extractHullPolygons@@YA_NAEAIAEAV?$Array@IVNamedAllocator@shdfnd@physx@@@shdfnd@physx@@AEBVConvexPolygonsBuilder@5@PEAV345@1@Z@SAX1PEBVAdjTriangle@5@IPEA_N@Z 0000000180056484     ConvexPolygonsBuilder.obj
 0002:0000e494       $unwind$?CheckFloodFillFace@Local@?7??extractHullPolygons@@YA_NAEAIAEAV?$Array@IVNamedAllocator@shdfnd@physx@@@shdfnd@physx@@AEBVConvexPolygonsBuilder@5@PEAV345@1@Z@SA_NIPEBVAdjTriangle@5@PEBI@Z 0000000180056494     ConvexPolygonsBuilder.obj
 0002:0000e4ac       $unwind$??0QuickHullConvexHullLib@physx@@QEAA@AEBVPxConvexMeshDesc@1@AEBUPxCookingParams@1@@Z 00000001800564ac     QuickHullConvexHullLib.obj
 0002:0000e4c4       $unwind$?createConvexHull@QuickHullConvexHullLib@physx@@UEAA?AW4Enum@PxConvexMeshCookingResult@2@XZ 00000001800564c4     QuickHullConvexHullLib.obj
 0002:0000e4d8       $unwind$?createEdgeList@QuickHullConvexHullLib@physx@@UEAA_NIPEBEPEAPEAEPEAPEAG2@Z 00000001800564d8     QuickHullConvexHullLib.obj
 0002:0000e4f8       $chain$5$?expandHullOBB@QuickHullConvexHullLib@physx@@IEAA?AW4Enum@PxConvexMeshCookingResult@2@XZ 00000001800564f8     QuickHullConvexHullLib.obj
 0002:0000e520       $chain$6$?expandHullOBB@QuickHullConvexHullLib@physx@@IEAA?AW4Enum@PxConvexMeshCookingResult@2@XZ 0000000180056520     QuickHullConvexHullLib.obj
 0002:0000e534       $chain$7$?expandHullOBB@QuickHullConvexHullLib@physx@@IEAA?AW4Enum@PxConvexMeshCookingResult@2@XZ 0000000180056534     QuickHullConvexHullLib.obj
 0002:0000e544       $chain$8$?expandHullOBB@QuickHullConvexHullLib@physx@@IEAA?AW4Enum@PxConvexMeshCookingResult@2@XZ 0000000180056544     QuickHullConvexHullLib.obj
 0002:0000e554       $unwind$?expandHull@QuickHullConvexHullLib@physx@@IEAA?AW4Enum@PxConvexMeshCookingResult@2@XZ 0000000180056554     QuickHullConvexHullLib.obj
 0002:0000e57c       $unwind$?cleanupForSimplex@QuickHullConvexHullLib@physx@@IEAA_NPEAVPxVec3@2@IPEAUQuickHullVertex@local@@1AEAM2@Z 000000018005657c     QuickHullConvexHullLib.obj
 0002:0000e5a0       $chain$4$?cleanupForSimplex@QuickHullConvexHullLib@physx@@IEAA_NPEAVPxVec3@2@IPEAUQuickHullVertex@local@@1AEAM2@Z 00000001800565a0     QuickHullConvexHullLib.obj
 0002:0000e5c4       $chain$6$?cleanupForSimplex@QuickHullConvexHullLib@physx@@IEAA_NPEAVPxVec3@2@IPEAUQuickHullVertex@local@@1AEAM2@Z 00000001800565c4     QuickHullConvexHullLib.obj
 0002:0000e5dc       $chain$7$?cleanupForSimplex@QuickHullConvexHullLib@physx@@IEAA_NPEAVPxVec3@2@IPEAUQuickHullVertex@local@@1AEAM2@Z 00000001800565dc     QuickHullConvexHullLib.obj
 0002:0000e5f0       $chain$8$?cleanupForSimplex@QuickHullConvexHullLib@physx@@IEAA_NPEAVPxVec3@2@IPEAUQuickHullVertex@local@@1AEAM2@Z 00000001800565f0     QuickHullConvexHullLib.obj
 0002:0000e604       $chain$9$?cleanupForSimplex@QuickHullConvexHullLib@physx@@IEAA_NPEAVPxVec3@2@IPEAUQuickHullVertex@local@@1AEAM2@Z 0000000180056604     QuickHullConvexHullLib.obj
 0002:0000e614       $chain$10$?cleanupForSimplex@QuickHullConvexHullLib@physx@@IEAA_NPEAVPxVec3@2@IPEAUQuickHullVertex@local@@1AEAM2@Z 0000000180056614     QuickHullConvexHullLib.obj
 0002:0000e624       $chain$11$?cleanupForSimplex@QuickHullConvexHullLib@physx@@IEAA_NPEAVPxVec3@2@IPEAUQuickHullVertex@local@@1AEAM2@Z 0000000180056624     QuickHullConvexHullLib.obj
 0002:0000e634       $chain$12$?cleanupForSimplex@QuickHullConvexHullLib@physx@@IEAA_NPEAVPxVec3@2@IPEAUQuickHullVertex@local@@1AEAM2@Z 0000000180056634     QuickHullConvexHullLib.obj
 0002:0000e644       $unwind$?fillConvexMeshDescFromQuickHull@QuickHullConvexHullLib@physx@@IEAAXAEAVPxConvexMeshDesc@2@@Z 0000000180056644     QuickHullConvexHullLib.obj
 0002:0000e65c       $unwind$?fillConvexMeshDescFromCroppedHull@QuickHullConvexHullLib@physx@@IEAAXAEAVPxConvexMeshDesc@2@@Z 000000018005665c     QuickHullConvexHullLib.obj
 0002:0000e674       $unwind$?mergeAdjacentFace@QuickHullFace@local@@QEAA_NPEAUQuickHullHalfEdge@2@AEAV?$Array@PEAUQuickHullFace@local@@VNamedAllocator@shdfnd@physx@@@shdfnd@physx@@@Z 0000000180056674     QuickHullConvexHullLib.obj
 0002:0000e68c       $chain$4$?mergeAdjacentFace@QuickHullFace@local@@QEAA_NPEAUQuickHullHalfEdge@2@AEAV?$Array@PEAUQuickHullFace@local@@VNamedAllocator@shdfnd@physx@@@shdfnd@physx@@@Z 000000018005668c     QuickHullConvexHullLib.obj
 0002:0000e6b0       $chain$5$?mergeAdjacentFace@QuickHullFace@local@@QEAA_NPEAUQuickHullHalfEdge@2@AEAV?$Array@PEAUQuickHullFace@local@@VNamedAllocator@shdfnd@physx@@@shdfnd@physx@@@Z 00000001800566b0     QuickHullConvexHullLib.obj
 0002:0000e6b0       $chain$8$?mergeAdjacentFace@QuickHullFace@local@@QEAA_NPEAUQuickHullHalfEdge@2@AEAV?$Array@PEAUQuickHullFace@local@@VNamedAllocator@shdfnd@physx@@@shdfnd@physx@@@Z 00000001800566b0     QuickHullConvexHullLib.obj
 0002:0000e6c0       $chain$6$?mergeAdjacentFace@QuickHullFace@local@@QEAA_NPEAUQuickHullHalfEdge@2@AEAV?$Array@PEAUQuickHullFace@local@@VNamedAllocator@shdfnd@physx@@@shdfnd@physx@@@Z 00000001800566c0     QuickHullConvexHullLib.obj
 0002:0000e6e4       $chain$7$?mergeAdjacentFace@QuickHullFace@local@@QEAA_NPEAUQuickHullHalfEdge@2@AEAV?$Array@PEAUQuickHullFace@local@@VNamedAllocator@shdfnd@physx@@@shdfnd@physx@@@Z 00000001800566e4     QuickHullConvexHullLib.obj
 0002:0000e6f8       $unwind$?connectHalfEdges@QuickHullFace@local@@AEAAPEAU12@PEAUQuickHullHalfEdge@2@0@Z 00000001800566f8     QuickHullConvexHullLib.obj
 0002:0000e700       $chain$0$?connectHalfEdges@QuickHullFace@local@@AEAAPEAU12@PEAUQuickHullHalfEdge@2@0@Z 0000000180056700     QuickHullConvexHullLib.obj
 0002:0000e714       $chain$4$?connectHalfEdges@QuickHullFace@local@@AEAAPEAU12@PEAUQuickHullHalfEdge@2@0@Z 0000000180056714     QuickHullConvexHullLib.obj
 0002:0000e734       $chain$5$?connectHalfEdges@QuickHullFace@local@@AEAAPEAU12@PEAUQuickHullHalfEdge@2@0@Z 0000000180056734     QuickHullConvexHullLib.obj
 0002:0000e744       $chain$6$?connectHalfEdges@QuickHullFace@local@@AEAAPEAU12@PEAUQuickHullHalfEdge@2@0@Z 0000000180056744     QuickHullConvexHullLib.obj
 0002:0000e754       $unwind$?parseInputVertices@QuickHull@local@@QEAAXPEBVPxVec3@physx@@I@Z 0000000180056754     QuickHullConvexHullLib.obj
 0002:0000e764       $chain$0$?parseInputVertices@QuickHull@local@@QEAAXPEBVPxVec3@physx@@I@Z 0000000180056764     QuickHullConvexHullLib.obj
 0002:0000e778       $chain$1$?parseInputVertices@QuickHull@local@@QEAAXPEBVPxVec3@physx@@I@Z 0000000180056778     QuickHullConvexHullLib.obj
 0002:0000e788       $unwind$?buildHull@QuickHull@local@@QEAA?AW4Enum@QuickHullResult@2@XZ 0000000180056788     QuickHullConvexHullLib.obj
 0002:0000e79c       $unwind$?computeMinMaxVerts@QuickHull@local@@IEAAXXZ 000000018005679c     QuickHullConvexHullLib.obj
 0002:0000e7a8       $unwind$?findSimplex@QuickHull@local@@IEAA_NXZ 00000001800567a8     QuickHullConvexHullLib.obj
 0002:0000e7bc       $chain$8$?findSimplex@QuickHull@local@@IEAA_NXZ 00000001800567bc     QuickHullConvexHullLib.obj
 0002:0000e7f0       $chain$12$?findSimplex@QuickHull@local@@IEAA_NXZ 00000001800567f0     QuickHullConvexHullLib.obj
 0002:0000e810       $chain$13$?findSimplex@QuickHull@local@@IEAA_NXZ 0000000180056810     QuickHullConvexHullLib.obj
 0002:0000e810       $chain$15$?findSimplex@QuickHull@local@@IEAA_NXZ 0000000180056810     QuickHullConvexHullLib.obj
 0002:0000e844       $chain$14$?findSimplex@QuickHull@local@@IEAA_NXZ 0000000180056844     QuickHullConvexHullLib.obj
 0002:0000e888       $chain$16$?findSimplex@QuickHull@local@@IEAA_NXZ 0000000180056888     QuickHullConvexHullLib.obj
 0002:0000e898       $unwind$?addSimplex@QuickHull@local@@IEAAXPEAUQuickHullVertex@2@_N@Z 0000000180056898     QuickHullConvexHullLib.obj
 0002:0000e8ac       $chain$2$?addSimplex@QuickHull@local@@IEAAXPEAUQuickHullVertex@2@_N@Z 00000001800568ac     QuickHullConvexHullLib.obj
 0002:0000e8c8       $chain$8$?addSimplex@QuickHull@local@@IEAAXPEAUQuickHullVertex@2@_N@Z 00000001800568c8     QuickHullConvexHullLib.obj
 0002:0000e8ec       $chain$3$?addSimplex@QuickHull@local@@IEAAXPEAUQuickHullVertex@2@_N@Z 00000001800568ec     QuickHullConvexHullLib.obj
 0002:0000e8fc       $unwind$?nextPointToAdd@QuickHull@local@@IEAAPEAUQuickHullVertex@2@AEAPEAUQuickHullFace@2@@Z 00000001800568fc     QuickHullConvexHullLib.obj
 0002:0000e910       $unwind$?addPointToHull@QuickHull@local@@IEAA_NPEBUQuickHullVertex@2@AEAUQuickHullFace@2@AEA_N@Z 0000000180056910     QuickHullConvexHullLib.obj
 0002:0000e924       $chain$1$?addPointToHull@QuickHull@local@@IEAA_NPEBUQuickHullVertex@2@AEAUQuickHullFace@2@AEA_N@Z 0000000180056924     QuickHullConvexHullLib.obj
 0002:0000e93c       $chain$2$?addPointToHull@QuickHull@local@@IEAA_NPEBUQuickHullVertex@2@AEAUQuickHullFace@2@AEA_N@Z 000000018005693c     QuickHullConvexHullLib.obj
 0002:0000e950       $unwind$?createTriangle@QuickHull@local@@IEAAPEAUQuickHullFace@2@AEBUQuickHullVertex@2@00@Z 0000000180056950     QuickHullConvexHullLib.obj
 0002:0000e978       $unwind$?calculateHorizon@QuickHull@local@@IEAAXAEBVPxVec3@physx@@PEAUQuickHullHalfEdge@2@AEAUQuickHullFace@2@AEAV?$Array@PEAUQuickHullHalfEdge@local@@VNamedAllocator@shdfnd@physx@@@shdfnd@4@AEAV?$Array@PEAUQuickHullFace@local@@VNamedAllocator@shdfnd@physx@@@84@@Z 0000000180056978     QuickHullConvexHullLib.obj
 0002:0000e990       $unwind$?doAdjacentMerge@QuickHull@local@@IEAA_NAEAUQuickHullFace@2@_NAEA_N@Z 0000000180056990     QuickHullConvexHullLib.obj
 0002:0000e9a0       $chain$1$?doAdjacentMerge@QuickHull@local@@IEAA_NAEAUQuickHullFace@2@_NAEA_N@Z 00000001800569a0     QuickHullConvexHullLib.obj
 0002:0000e9b8       $chain$2$?doAdjacentMerge@QuickHull@local@@IEAA_NAEAUQuickHullFace@2@_NAEA_N@Z 00000001800569b8     QuickHullConvexHullLib.obj
 0002:0000e9cc       $chain$3$?doAdjacentMerge@QuickHull@local@@IEAA_NAEAUQuickHullFace@2@_NAEA_N@Z 00000001800569cc     QuickHullConvexHullLib.obj
 0002:0000e9dc       $unwind$?resolveUnclaimedPoints@QuickHull@local@@IEAAXAEBV?$Array@PEAUQuickHullFace@local@@VNamedAllocator@shdfnd@physx@@@shdfnd@physx@@@Z 00000001800569dc     QuickHullConvexHullLib.obj
 0002:0000e9ec       $chain$1$?resolveUnclaimedPoints@QuickHull@local@@IEAAXAEBV?$Array@PEAUQuickHullFace@local@@VNamedAllocator@shdfnd@physx@@@shdfnd@physx@@@Z 00000001800569ec     QuickHullConvexHullLib.obj
 0002:0000ea04       $chain$2$?resolveUnclaimedPoints@QuickHull@local@@IEAAXAEBV?$Array@PEAUQuickHullFace@local@@VNamedAllocator@shdfnd@physx@@@shdfnd@physx@@@Z 0000000180056a04     QuickHullConvexHullLib.obj
 0002:0000ea14       $unwind$?postMergeHull@QuickHull@local@@IEAAXXZ 0000000180056a14     QuickHullConvexHullLib.obj
 0002:0000ea20       $chain$4$?postMergeHull@QuickHull@local@@IEAAXXZ 0000000180056a20     QuickHullConvexHullLib.obj
 0002:0000ea44       $chain$5$?postMergeHull@QuickHull@local@@IEAAXXZ 0000000180056a44     QuickHullConvexHullLib.obj
 0002:0000ea54       $chain$6$?postMergeHull@QuickHull@local@@IEAAXXZ 0000000180056a54     QuickHullConvexHullLib.obj
 0002:0000ea78       $unwind$?canMergeFaces@QuickHull@local@@IEAA_NAEBUQuickHullHalfEdge@2@@Z 0000000180056a78     QuickHullConvexHullLib.obj
 0002:0000eabc       $unwind$?init@?$MemBlock@UQuickHullFace@local@@$00@local@@QEAAXI@Z 0000000180056abc     QuickHullConvexHullLib.obj
 0002:0000eabc       $unwind$?init@?$MemBlock@UQuickHullHalfEdge@local@@$0A@@local@@QEAAXI@Z 0000000180056abc     QuickHullConvexHullLib.obj
 0002:0000eac8       $unwind$??1?$MemBlock@UQuickHullFace@local@@$00@local@@QEAA@XZ 0000000180056ac8     QuickHullConvexHullLib.obj
 0002:0000eac8       $unwind$??1?$MemBlock@UQuickHullHalfEdge@local@@$0A@@local@@QEAA@XZ 0000000180056ac8     QuickHullConvexHullLib.obj
 0002:0000eac8       $unwind$?get_raw_ptd@__crt_cached_ptd_host@@QEAAPEAU__acrt_ptd@@XZ 0000000180056ac8     libucrt:output.obj
 0002:0000ead0       $chain$0$??1?$MemBlock@UQuickHullFace@local@@$00@local@@QEAA@XZ 0000000180056ad0     QuickHullConvexHullLib.obj
 0002:0000ead0       $chain$0$??1?$MemBlock@UQuickHullHalfEdge@local@@$0A@@local@@QEAA@XZ 0000000180056ad0     QuickHullConvexHullLib.obj
 0002:0000eae4       $chain$1$??1?$MemBlock@UQuickHullFace@local@@$00@local@@QEAA@XZ 0000000180056ae4     QuickHullConvexHullLib.obj
 0002:0000eae4       $chain$1$??1?$MemBlock@UQuickHullHalfEdge@local@@$0A@@local@@QEAA@XZ 0000000180056ae4     QuickHullConvexHullLib.obj
 0002:0000eaf8       $chain$2$??1?$MemBlock@UQuickHullFace@local@@$00@local@@QEAA@XZ 0000000180056af8     QuickHullConvexHullLib.obj
 0002:0000eaf8       $chain$2$??1?$MemBlock@UQuickHullHalfEdge@local@@$0A@@local@@QEAA@XZ 0000000180056af8     QuickHullConvexHullLib.obj
 0002:0000eb08       $chain$3$??1?$MemBlock@UQuickHullFace@local@@$00@local@@QEAA@XZ 0000000180056b08     QuickHullConvexHullLib.obj
 0002:0000eb08       $chain$3$??1?$MemBlock@UQuickHullHalfEdge@local@@$0A@@local@@QEAA@XZ 0000000180056b08     QuickHullConvexHullLib.obj
 0002:0000eb18       $unwind$?getFreeItem@?$MemBlock@UQuickHullHalfEdge@local@@$0A@@local@@QEAAPEAUQuickHullHalfEdge@2@XZ 0000000180056b18     QuickHullConvexHullLib.obj
 0002:0000eb28       $chain$0$?growAndPushBack@?$Array@PEAUQuickHullFace@local@@VNamedAllocator@shdfnd@physx@@@shdfnd@physx@@IEAAAEAPEAUQuickHullFace@local@@AEBQEAU45@@Z 0000000180056b28     QuickHullConvexHullLib.obj
 0002:0000eb28       $chain$0$?growAndPushBack@?$Array@PEAUQuickHullHalfEdge@local@@VNamedAllocator@shdfnd@physx@@@shdfnd@physx@@IEAAAEAPEAUQuickHullHalfEdge@local@@AEBQEAU45@@Z 0000000180056b28     QuickHullConvexHullLib.obj
 0002:0000eb28       $chain$0$?growAndPushBack@?$Array@PEAUQuickHullVertex@local@@VNamedAllocator@shdfnd@physx@@@shdfnd@physx@@IEAAAEAPEAUQuickHullVertex@local@@AEBQEAU45@@Z 0000000180056b28     QuickHullConvexHullLib.obj
 0002:0000eb3c       $chain$1$?growAndPushBack@?$Array@PEAUQuickHullFace@local@@VNamedAllocator@shdfnd@physx@@@shdfnd@physx@@IEAAAEAPEAUQuickHullFace@local@@AEBQEAU45@@Z 0000000180056b3c     QuickHullConvexHullLib.obj
 0002:0000eb3c       $chain$1$?growAndPushBack@?$Array@PEAUQuickHullHalfEdge@local@@VNamedAllocator@shdfnd@physx@@@shdfnd@physx@@IEAAAEAPEAUQuickHullHalfEdge@local@@AEBQEAU45@@Z 0000000180056b3c     QuickHullConvexHullLib.obj
 0002:0000eb3c       $chain$1$?growAndPushBack@?$Array@PEAUQuickHullVertex@local@@VNamedAllocator@shdfnd@physx@@@shdfnd@physx@@IEAAAEAPEAUQuickHullVertex@local@@AEBQEAU45@@Z 0000000180056b3c     QuickHullConvexHullLib.obj
 0002:0000eb50       $chain$2$?growAndPushBack@?$Array@PEAUQuickHullFace@local@@VNamedAllocator@shdfnd@physx@@@shdfnd@physx@@IEAAAEAPEAUQuickHullFace@local@@AEBQEAU45@@Z 0000000180056b50     QuickHullConvexHullLib.obj
 0002:0000eb50       $chain$2$?growAndPushBack@?$Array@PEAUQuickHullHalfEdge@local@@VNamedAllocator@shdfnd@physx@@@shdfnd@physx@@IEAAAEAPEAUQuickHullHalfEdge@local@@AEBQEAU45@@Z 0000000180056b50     QuickHullConvexHullLib.obj
 0002:0000eb50       $chain$2$?growAndPushBack@?$Array@PEAUQuickHullVertex@local@@VNamedAllocator@shdfnd@physx@@@shdfnd@physx@@IEAAAEAPEAUQuickHullVertex@local@@AEBQEAU45@@Z 0000000180056b50     QuickHullConvexHullLib.obj
 0002:0000eb60       $chain$3$?growAndPushBack@?$Array@PEAUQuickHullFace@local@@VNamedAllocator@shdfnd@physx@@@shdfnd@physx@@IEAAAEAPEAUQuickHullFace@local@@AEBQEAU45@@Z 0000000180056b60     QuickHullConvexHullLib.obj
 0002:0000eb60       $chain$3$?growAndPushBack@?$Array@PEAUQuickHullHalfEdge@local@@VNamedAllocator@shdfnd@physx@@@shdfnd@physx@@IEAAAEAPEAUQuickHullHalfEdge@local@@AEBQEAU45@@Z 0000000180056b60     QuickHullConvexHullLib.obj
 0002:0000eb60       $chain$3$?growAndPushBack@?$Array@PEAUQuickHullVertex@local@@VNamedAllocator@shdfnd@physx@@@shdfnd@physx@@IEAAAEAPEAUQuickHullVertex@local@@AEBQEAU45@@Z 0000000180056b60     QuickHullConvexHullLib.obj
 0002:0000eb70       $chain$0$?recreate@?$Array@PEAUQuickHullFace@local@@VNamedAllocator@shdfnd@physx@@@shdfnd@physx@@IEAAXI@Z 0000000180056b70     QuickHullConvexHullLib.obj
 0002:0000eb70       $chain$0$?recreate@?$Array@PEAUQuickHullHalfEdge@local@@VNamedAllocator@shdfnd@physx@@@shdfnd@physx@@IEAAXI@Z 0000000180056b70     QuickHullConvexHullLib.obj
 0002:0000eb70       $chain$0$?recreate@?$Array@PEAUQuickHullVertex@local@@VNamedAllocator@shdfnd@physx@@@shdfnd@physx@@IEAAXI@Z 0000000180056b70     QuickHullConvexHullLib.obj
 0002:0000eb84       $chain$1$?recreate@?$Array@PEAUQuickHullFace@local@@VNamedAllocator@shdfnd@physx@@@shdfnd@physx@@IEAAXI@Z 0000000180056b84     QuickHullConvexHullLib.obj
 0002:0000eb84       $chain$1$?recreate@?$Array@PEAUQuickHullHalfEdge@local@@VNamedAllocator@shdfnd@physx@@@shdfnd@physx@@IEAAXI@Z 0000000180056b84     QuickHullConvexHullLib.obj
 0002:0000eb84       $chain$1$?recreate@?$Array@PEAUQuickHullVertex@local@@VNamedAllocator@shdfnd@physx@@@shdfnd@physx@@IEAAXI@Z 0000000180056b84     QuickHullConvexHullLib.obj
 0002:0000eb94       $unwind$?getFreeItem@?$MemBlock@UQuickHullFace@local@@$00@local@@QEAAPEAUQuickHullFace@2@XZ 0000000180056b94     QuickHullConvexHullLib.obj
 0002:0000eba8       $chain$0$?growAndPushBack@?$Array@UExpandPoint@local@@VNamedAllocator@shdfnd@physx@@@shdfnd@physx@@IEAAAEAUExpandPoint@local@@AEBU45@@Z 0000000180056ba8     QuickHullConvexHullLib.obj
 0002:0000ebbc       $chain$1$?growAndPushBack@?$Array@UExpandPoint@local@@VNamedAllocator@shdfnd@physx@@@shdfnd@physx@@IEAAAEAUExpandPoint@local@@AEBU45@@Z 0000000180056bbc     QuickHullConvexHullLib.obj
 0002:0000ebd0       $chain$2$?growAndPushBack@?$Array@UExpandPoint@local@@VNamedAllocator@shdfnd@physx@@@shdfnd@physx@@IEAAAEAUExpandPoint@local@@AEBU45@@Z 0000000180056bd0     QuickHullConvexHullLib.obj
 0002:0000ebe0       $chain$3$?growAndPushBack@?$Array@UExpandPoint@local@@VNamedAllocator@shdfnd@physx@@@shdfnd@physx@@IEAAAEAUExpandPoint@local@@AEBU45@@Z 0000000180056be0     QuickHullConvexHullLib.obj
 0002:0000ebf0       $chain$0$?recreate@?$Array@UExpandPoint@local@@VNamedAllocator@shdfnd@physx@@@shdfnd@physx@@IEAAXI@Z 0000000180056bf0     QuickHullConvexHullLib.obj
 0002:0000ec04       $chain$1$?recreate@?$Array@UExpandPoint@local@@VNamedAllocator@shdfnd@physx@@@shdfnd@physx@@IEAAXI@Z 0000000180056c04     QuickHullConvexHullLib.obj
 0002:0000ec14       $unwind$?computeVolumeIntegralsEberly@physx@@YA_NAEBVPxConvexMeshDesc@1@MAEAUPxIntegrals@1@AEBVPxVec3@1@@Z 0000000180056c14     VolumeIntegration.obj
 0002:0000ec14       $unwind$?computeVolumeIntegralsEberlySIMD@physx@@YA_NAEBVPxConvexMeshDesc@1@MAEAUPxIntegrals@1@AEBVPxVec3@1@@Z 0000000180056c14     VolumeIntegration.obj
 0002:0000ec14       $unwind$__unDName          0000000180056c14     libvcruntime:undname.obj
 0002:0000ec14       $unwind$_raise_exc         0000000180056c14     libucrt:fpexcept.obj
 0002:0000ec14       $unwind$_raise_excf        0000000180056c14     libucrt:fpexcept.obj
 0002:0000ec1c       $unwind$?computeVolumeIntegralsSIMD@VolumeIntegratorEberly@?A0xebc0dd8a@physx@@QEAA_NAEAUPxIntegrals@3@AEBVPxVec3@3@@Z 0000000180056c1c     VolumeIntegration.obj
 0002:0000ec54       $chain$1$?computeVolumeIntegralsSIMD@VolumeIntegratorEberly@?A0xebc0dd8a@physx@@QEAA_NAEAUPxIntegrals@3@AEBVPxVec3@3@@Z 0000000180056c54     VolumeIntegration.obj
 0002:0000ec6c       $chain$2$?computeVolumeIntegralsSIMD@VolumeIntegratorEberly@?A0xebc0dd8a@physx@@QEAA_NAEAUPxIntegrals@3@AEBVPxVec3@3@@Z 0000000180056c6c     VolumeIntegration.obj
 0002:0000ec7c       $unwind$?computeVolumeIntegrals@VolumeIntegratorEberly@?A0xebc0dd8a@physx@@QEAA_NAEAUPxIntegrals@3@AEBVPxVec3@3@@Z 0000000180056c7c     VolumeIntegration.obj
 0002:0000ecb4       $chain$0$?computeVolumeIntegrals@VolumeIntegratorEberly@?A0xebc0dd8a@physx@@QEAA_NAEAUPxIntegrals@3@AEBVPxVec3@3@@Z 0000000180056cb4     VolumeIntegration.obj
 0002:0000ecc8       $chain$3$?computeVolumeIntegrals@VolumeIntegratorEberly@?A0xebc0dd8a@physx@@QEAA_NAEAUPxIntegrals@3@AEBVPxVec3@3@@Z 0000000180056cc8     VolumeIntegration.obj
 0002:0000ece4       $chain$4$?computeVolumeIntegrals@VolumeIntegratorEberly@?A0xebc0dd8a@physx@@QEAA_NAEAUPxIntegrals@3@AEBVPxVec3@3@@Z 0000000180056ce4     VolumeIntegration.obj
 0002:0000ecf4       $chain$5$?computeVolumeIntegrals@VolumeIntegratorEberly@?A0xebc0dd8a@physx@@QEAA_NAEAUPxIntegrals@3@AEBVPxVec3@3@@Z 0000000180056cf4     VolumeIntegration.obj
 0002:0000ed04       $chain$1$?cookingDelayHook@@YAP6A_JXZIPEAUDelayLoadInfo@@@Z 0000000180056d04     WindowsCookingDelayLoadHook.obj
 0002:0000ed1c       $chain$3$?cookingDelayHook@@YAP6A_JXZIPEAUDelayLoadInfo@@@Z 0000000180056d1c     WindowsCookingDelayLoadHook.obj
 0002:0000ed1c       $chain$5$?cookingDelayHook@@YAP6A_JXZIPEAUDelayLoadInfo@@@Z 0000000180056d1c     WindowsCookingDelayLoadHook.obj
 0002:0000ed34       $chain$6$?cookingDelayHook@@YAP6A_JXZIPEAUDelayLoadInfo@@@Z 0000000180056d34     WindowsCookingDelayLoadHook.obj
 0002:0000ed44       xdata                      0000000180056d44     PhysXCommon_64:PhysXCommon_64.dll
 0002:0000ed4c       xdata                      0000000180056d4c     PhysXFoundation_64:PhysXFoundation_64.dll
 0002:0000ed54       $unwind$?DloadObtainSection@@YAPEAXPEAK0@Z 0000000180056d54     Delayimp:delayhlp.obj
 0002:0000ed54       $unwind$strstr             0000000180056d54     libvcruntime:strstr.obj
 0002:0000ed64       $unwind$?DloadMakePermanentImageCommit@@YAXPEAX_K@Z 0000000180056d64     Delayimp:delayhlp.obj
 0002:0000ed70       $unwind$?DloadProtectSection@@YAXKPEAK@Z 0000000180056d70     Delayimp:delayhlp.obj
 0002:0000ed80       $unwind$__delayLoadHelper2 0000000180056d80     Delayimp:delayhlp.obj
 0002:0000eda0       $xdatasym                  0000000180056da0     LIBCMT:chkstk.obj
 0002:0000eda8       $unwind$?dllmain_crt_process_attach@@YAHQEAUHINSTANCE__@@QEAX@Z 0000000180056da8     LIBCMT:dll_dllmain.obj
 0002:0000ede4       $unwind$?fin$0@?0??dllmain_crt_process_attach@@YAHQEAUHINSTANCE__@@QEAX@Z@4HA 0000000180056de4     LIBCMT:dll_dllmain.obj
 0002:0000ede4       $unwind$?fin$0@?0??dllmain_crt_process_detach@@YAH_N@Z@4HA 0000000180056de4     LIBCMT:dll_dllmain.obj
 0002:0000ede4       $unwind$?fin$1@?0??dllmain_crt_process_detach@@YAH_N@Z@4HA 0000000180056de4     LIBCMT:dll_dllmain.obj
 0002:0000ede4       $unwind$_IsNonwritableInCurrentImage$filt$0 0000000180056de4     LIBCMT:pesect.obj
 0002:0000ede4       $unwind$?filt$0@?0??CxxCallCatchBlock@__FrameHandler3@@SAPEAXPEAU_EXCEPTION_RECORD@@@Z@4HA 0000000180056de4     libvcruntime:frame.obj
 0002:0000ede4       $unwind$?filt$0@?0??CxxCallCatchBlock@__FrameHandler4@@SAPEAXPEAU_EXCEPTION_RECORD@@@Z@4HA 0000000180056de4     libvcruntime:frame.obj
 0002:0000ede4       $unwind$?filt$0@?0??FrameUnwindToState@__FrameHandler3@@SAXPEA_KPEAU_xDISPATCHER_CONTEXT@@PEBU_s_FuncInfo@@H@Z@4HA 0000000180056de4     libvcruntime:frame.obj
 0002:0000ede4       $unwind$?fin$1@?0??FrameUnwindToState@__FrameHandler3@@SAXPEA_KPEAU_xDISPATCHER_CONTEXT@@PEBU_s_FuncInfo@@H@Z@4HA 0000000180056de4     libvcruntime:frame.obj
 0002:0000ede4       $unwind$__unDNameEx$fin$0  0000000180056de4     libvcruntime:undname.obj
 0002:0000ede4       $unwind$_query_new_handler$fin$0 0000000180056de4     libucrt:new_handler.obj
 0002:0000ede4       $unwind$?fin$0@?0???$?RV<lambda_0ae27a3a962d80f24befdcbee591983d>@@AEAV<lambda_8d0ee55de4b1038c4002e0adecdf1839>@@V<lambda_dc504788e8f1664fe9b84e20bfb512f2>@@@?$__crt_seh_guarded_call@X@@QEAAX$$QEAV<lambda_0ae27a3a962d80f24befdcbee591983d>@@AEAV<lambda_8d0ee55de4b1038c4002e0adecdf1839>@@$$QEAV<lambda_dc504788e8f1664fe9b84e20bfb512f2>@@@Z@4HA 0000000180056de4     libucrt:per_thread_data.obj
 0002:0000ede4       $unwind$?fin$0@?0???$?RV<lambda_2d41944a1d46af3157314b8a01080d33>@@AEAV<lambda_8f455de75cd7d7f24b4096f044d8b9e6>@@V<lambda_aa500f224e6afead328df44964fe2772>@@@?$__crt_seh_guarded_call@X@@QEAAX$$QEAV<lambda_2d41944a1d46af3157314b8a01080d33>@@AEAV<lambda_8f455de75cd7d7f24b4096f044d8b9e6>@@$$QEAV<lambda_aa500f224e6afead328df44964fe2772>@@@Z@4HA 0000000180056de4     libucrt:per_thread_data.obj
 0002:0000ede4       $unwind$?fin$0@?0???$?RV<lambda_aa87e3671a710a21b5dc78c0bdf72e11>@@AEAV<lambda_92619d2358a28f41a33ba319515a20b9>@@V<lambda_6992ecaafeb10aed2b74cb1fae11a551>@@@?$__crt_seh_guarded_call@X@@QEAAX$$QEAV<lambda_aa87e3671a710a21b5dc78c0bdf72e11>@@AEAV<lambda_92619d2358a28f41a33ba319515a20b9>@@$$QEAV<lambda_6992ecaafeb10aed2b74cb1fae11a551>@@@Z@4HA 0000000180056de4     libucrt:per_thread_data.obj
 0002:0000ede4       $unwind$?fin$0@?0???$?RV<lambda_f2e299630e499de9f9a165e60fcd3db5>@@AEAV<lambda_2ae9d31cdba2644fcbeaf08da7c24588>@@V<lambda_40d01ff24d0e7b3814fdbdcee8eab3c7>@@@?$__crt_seh_guarded_call@X@@QEAAX$$QEAV<lambda_f2e299630e499de9f9a165e60fcd3db5>@@AEAV<lambda_2ae9d31cdba2644fcbeaf08da7c24588>@@$$QEAV<lambda_40d01ff24d0e7b3814fdbdcee8eab3c7>@@@Z@4HA 0000000180056de4     libucrt:per_thread_data.obj
 0002:0000ede4       $unwind$__acrt_update_thread_locale_data$fin$0 0000000180056de4     libucrt:locale_refcounting.obj
 0002:0000ede4       $unwind$?fin$0@?0???$?RV<lambda_410d79af7f07d98d83a3f525b3859a53>@@AEAV<lambda_3e16ef9562a7dcce91392c22ab16ea36>@@V<lambda_38119f0e861e05405d8a144b9b982f0a>@@@?$__crt_seh_guarded_call@X@@QEAAX$$QEAV<lambda_410d79af7f07d98d83a3f525b3859a53>@@AEAV<lambda_3e16ef9562a7dcce91392c22ab16ea36>@@$$QEAV<lambda_38119f0e861e05405d8a144b9b982f0a>@@@Z@4HA 0000000180056de4     libucrt:wsetlocale.obj
 0002:0000ede4       $unwind$?fin$0@?0???$?RV<lambda_ad8af0d99a0adf03d037d7dffe354bb5>@@AEAV<lambda_c9ba49e555ba839a7b07aa3fbecb7617>@@V<lambda_2f1ebd5d68526518146ae959c9e734c8>@@@?$__crt_seh_guarded_call@H@@QEAAH$$QEAV<lambda_ad8af0d99a0adf03d037d7dffe354bb5>@@AEAV<lambda_c9ba49e555ba839a7b07aa3fbecb7617>@@$$QEAV<lambda_2f1ebd5d68526518146ae959c9e734c8>@@@Z@4HA 0000000180056de4     libucrt:close.obj
 0002:0000ede4       $unwind$?fin$0@?0???$?RV<lambda_a37b2b86f63e897a80ea819b0eb08c01>@@AEAV<lambda_38ce7e780aa69e748d6df282ebc68efe>@@V<lambda_99fb1378e971ab6e7edea83e3a7a83a2>@@@?$__crt_seh_guarded_call@H@@QEAAH$$QEAV<lambda_a37b2b86f63e897a80ea819b0eb08c01>@@AEAV<lambda_38ce7e780aa69e748d6df282ebc68efe>@@$$QEAV<lambda_99fb1378e971ab6e7edea83e3a7a83a2>@@@Z@4HA 0000000180056de4     libucrt:commit.obj
 0002:0000ede4       $unwind$__acrt_initialize_lowio$fin$0 0000000180056de4     libucrt:ioinit.obj
 0002:0000ede4       $unwind$__acrt_lowio_ensure_fh_exists$fin$0 0000000180056de4     libucrt:osfinfo.obj
 0002:0000ede4       $unwind$?fin$0@?0???$?RV<lambda_efdfa57d1f175319df784efa44bb7b81>@@AEAV<lambda_5f0a4c1567f8adc6734073e5d1e1b35c>@@V<lambda_2e8a7d3640ea6ccb4c2413664c2db6fd>@@@?$__crt_seh_guarded_call@X@@QEAAX$$QEAV<lambda_efdfa57d1f175319df784efa44bb7b81>@@AEAV<lambda_5f0a4c1567f8adc6734073e5d1e1b35c>@@$$QEAV<lambda_2e8a7d3640ea6ccb4c2413664c2db6fd>@@@Z@4HA 0000000180056de4     libucrt:mbctype.obj
 0002:0000ede4       $unwind$?fin$0@?0??update_thread_multibyte_data_internal@@YAPEAU__crt_multibyte_data@@QEAU__acrt_ptd@@QEAPEAU1@@Z@4HA 0000000180056de4     libucrt:mbctype.obj
 0002:0000ede4       $unwind$?fin$0@?0???$?RV<lambda_450d765d439847d4c735a33c368b5fc0>@@AEAV<lambda_44731a7d0e6d81c3e6aa82d741081786>@@V<lambda_601a2a7da3b7a96e9554ac7215c4b07c>@@@?$__crt_seh_guarded_call@P6AXH@Z@@QEAAP6AXH@Z$$QEAV<lambda_450d765d439847d4c735a33c368b5fc0>@@AEAV<lambda_44731a7d0e6d81c3e6aa82d741081786>@@$$QEAV<lambda_601a2a7da3b7a96e9554ac7215c4b07c>@@@Z@4HA 0000000180056de4     libucrt:signal.obj
 0002:0000ede4       $unwind$raise$fin$0        0000000180056de4     libucrt:signal.obj
 0002:0000ede4       $unwind$?filt$0@?0???R<lambda_6e4b09c48022b2350581041d5f6b0c4c>@@QEBA@XZ@4HA 0000000180056de4     libucrt:exit.obj
 0002:0000ede4       $unwind$?fin$0@?0???$?RV<lambda_d80eeec6fff315bfe5c115232f3240e3>@@AEAV<lambda_6e4b09c48022b2350581041d5f6b0c4c>@@V<lambda_2358e3775559c9db80273638284d5e45>@@@?$__crt_seh_guarded_call@X@@QEAAX$$QEAV<lambda_d80eeec6fff315bfe5c115232f3240e3>@@AEAV<lambda_6e4b09c48022b2350581041d5f6b0c4c>@@$$QEAV<lambda_2358e3775559c9db80273638284d5e45>@@@Z@4HA 0000000180056de4     libucrt:exit.obj
 0002:0000ede4       $unwind$?fin$0@?0???$?RV<lambda_7777bce6b2f8c936911f934f8298dc43>@@AEAV<lambda_f03950bc5685219e0bcd2087efbe011e>@@V<lambda_3883c3dff614d5e0c5f61bb1ac94921c>@@@?$__crt_seh_guarded_call@H@@QEAAH$$QEAV<lambda_7777bce6b2f8c936911f934f8298dc43>@@AEAV<lambda_f03950bc5685219e0bcd2087efbe011e>@@$$QEAV<lambda_3883c3dff614d5e0c5f61bb1ac94921c>@@@Z@4HA 0000000180056de4     libucrt:onexit.obj
 0002:0000ede4       $unwind$_fcloseall$fin$0   0000000180056de4     libucrt:closeall.obj
 0002:0000ede4       $unwind$?fin$0@?0???$?RV<lambda_842d9ff0dc9ef11c61343bbaebe7f885>@@AEAV<lambda_c5860995281e5c4ce005b3de8f5874ee>@@V<lambda_d90129c13df834fdcbf8d2b88dafcf2d>@@@?$__crt_seh_guarded_call@X@@QEAAX$$QEAV<lambda_842d9ff0dc9ef11c61343bbaebe7f885>@@AEAV<lambda_c5860995281e5c4ce005b3de8f5874ee>@@$$QEAV<lambda_d90129c13df834fdcbf8d2b88dafcf2d>@@@Z@4HA 0000000180056de4     libucrt:fflush.obj
 0002:0000ede4       $unwind$?fin$0@?0???$?RV<lambda_886d6c58226a84441f68b9f2b8217b83>@@AEAV<lambda_ab61a845afdef5b7c387490eaf3616ee>@@V<lambda_f7f22ab5edc0698d5f6905b0d3f44752>@@@?$__crt_seh_guarded_call@X@@QEAAX$$QEAV<lambda_886d6c58226a84441f68b9f2b8217b83>@@AEAV<lambda_ab61a845afdef5b7c387490eaf3616ee>@@$$QEAV<lambda_f7f22ab5edc0698d5f6905b0d3f44752>@@@Z@4HA 0000000180056de4     libucrt:fflush.obj
 0002:0000ede4       $unwind$_ctrlfp$filt$0     0000000180056de4     libucrt:fpctrl.obj
 0002:0000ede4       $unwind$common_control87$filt$0 0000000180056de4     libucrt:ieee.obj
 0002:0000edec       $unwind$?dllmain_crt_process_detach@@YAH_N@Z 0000000180056dec     LIBCMT:dll_dllmain.obj
 0002:0000ee40       $unwind$?dllmain_dispatch@@YAHQEAUHINSTANCE__@@KQEAX@Z 0000000180056e40     LIBCMT:dll_dllmain.obj
 0002:0000ee68       $unwind$?filt$0@?0??dllmain_dispatch@@YAHQEAUHINSTANCE__@@KQEAX@Z@4HA 0000000180056e68     LIBCMT:dll_dllmain.obj
 0002:0000ee68       $unwind$?filt$0@?0??FrameUnwindToState@__FrameHandler4@@SAXPEA_KPEAU_xDISPATCHER_CONTEXT@@PEAUFuncInfo4@FH4@@H@Z@4HA 0000000180056e68     libvcruntime:frame.obj
 0002:0000ee68       $unwind$?fin$1@?0??FrameUnwindToState@__FrameHandler4@@SAXPEA_KPEAU_xDISPATCHER_CONTEXT@@PEAUFuncInfo4@FH4@@H@Z@4HA 0000000180056e68     libvcruntime:frame.obj
 0002:0000ee68       $unwind$_write_internal$fin$0 0000000180056e68     libucrt:write.obj
 0002:0000ee68       $unwind$?fin$0@?0??_fclose_internal@@YAHQEAU_iobuf@@AEAV__crt_cached_ptd_host@@@Z@4HA 0000000180056e68     libucrt:fclose.obj
 0002:0000ee70       $unwind$__isa_available_init 0000000180056e70     LIBCMT:cpu_disp.obj
 0002:0000ee80       $xdatasym                  0000000180056e80     LIBCMT:svml_ssinf4_sse2.obj
 0002:0000eeb8       $xdatasym                  0000000180056eb8     LIBCMT:svml_ssinf4_sse4.obj
 0002:0000eeec       $unwind$__security_init_cookie 0000000180056eec     LIBCMT:gs_support.obj
 0002:0000eef8       $unwind$__scrt_is_nonwritable_in_current_image 0000000180056ef8     LIBCMT:utility.obj
 0002:0000ef18       $unwind$__scrt_is_nonwritable_in_current_image$filt$0 0000000180056f18     LIBCMT:utility.obj
 0002:0000ef20       $unwind$__scrt_fastfail    0000000180056f20     LIBCMT:utility_desktop.obj
 0002:0000ef30       $xdatasym                  0000000180056f30     LIBCMT:guard_dispatch.obj
 0002:0000ef38       $xdatasym                  0000000180056f38     LIBCMT:guard_xfg_dispatch.obj
 0002:0000ef40       $xdatasym                  0000000180056f40     LIBCMT:svml_s_sin_cout.obj
 0002:0000ef48       $unwind$__C_specific_handler 0000000180056f48     libvcruntime:riscchandler.obj
 0002:0000ef48       $unwind$?GetRangeOfTrysToCheck@__FrameHandler3@@SA?AU?$pair@Viterator@TryBlockMap@__FrameHandler3@@V123@@std@@AEAVTryBlockMap@1@HPEAU_xDISPATCHER_CONTEXT@@PEBU_s_FuncInfo@@H@Z 0000000180056f48     libvcruntime:risctrnsctrl.obj
 0002:0000ef48       $unwind$__std_type_info_name 0000000180056f48     libvcruntime:std_type_info.obj
 0002:0000ef68       $xdatasym                  0000000180056f68     libvcruntime:memset.obj
 0002:0000ef78       $xdatasym                  0000000180056f78     libvcruntime:memcpy.obj
 0002:0000ef88       $unwind$__DestructExceptionObject 0000000180056f88     libvcruntime:ehhelpers.obj
 0002:0000efa8       $unwind$__DestructExceptionObject$filt$0 0000000180056fa8     libvcruntime:ehhelpers.obj
 0002:0000efa8       $unwind$?fin$1@?0??CxxCallCatchBlock@__FrameHandler3@@SAPEAXPEAU_EXCEPTION_RECORD@@@Z@4HA 0000000180056fa8     libvcruntime:frame.obj
 0002:0000efa8       $unwind$?fin$1@?0??CxxCallCatchBlock@__FrameHandler4@@SAPEAXPEAU_EXCEPTION_RECORD@@@Z@4HA 0000000180056fa8     libvcruntime:frame.obj
 0002:0000efb4       $unwind$__unDNameEx        0000000180056fb4     libvcruntime:undname.obj
 0002:0000efe4       $unwind$sprintf_s          0000000180056fe4     libvcruntime:undname.obj
 0002:0000eff4       $unwind$??0DName@@QEAA@_J@Z 0000000180056ff4     libvcruntime:undname.obj
 0002:0000eff4       $unwind$??0DName@@QEAA@_K@Z 0000000180056ff4     libvcruntime:undname.obj
 0002:0000f004       $unwind$?doPchar@DName@@AEAAXD@Z 0000000180057004     libvcruntime:undname.obj
 0002:0000f010       $unwind$?getDecoratedName@UnDecorator@@CA?AVDName@@XZ 0000000180057010     libvcruntime:undname.obj
 0002:0000f030       $cppxdata$?getDecoratedName@UnDecorator@@CA?AVDName@@XZ 0000000180057030     libvcruntime:undname.obj
 0002:0000f039       $stateUnwindMap$?getDecoratedName@UnDecorator@@CA?AVDName@@XZ 0000000180057039     libvcruntime:undname.obj
 0002:0000f040       $ip2state$?getDecoratedName@UnDecorator@@CA?AVDName@@XZ 0000000180057040     libvcruntime:undname.obj
 0002:0000f048       $unwind$?getZName@UnDecorator@@CA?AVDName@@_N0@Z 0000000180057048     libvcruntime:undname.obj
 0002:0000f06c       $unwind$?getOperatorName@UnDecorator@@CA?AVDName@@_NPEA_N@Z 000000018005706c     libvcruntime:undname.obj
 0002:0000f088       $unwind$?getScope@UnDecorator@@CA?AVDName@@XZ 0000000180057088     libvcruntime:undname.obj
 0002:0000f0a4       $unwind$?getScopedName@UnDecorator@@CA?AVDName@@XZ 00000001800570a4     libvcruntime:undname.obj
 0002:0000f0b4       $unwind$?getSignedDimension@UnDecorator@@CA?AVDName@@XZ 00000001800570b4     libvcruntime:undname.obj
 0002:0000f0b4       $unwind$_mbsdec_l          00000001800570b4     libucrt:mbsdec.obj
 0002:0000f0c0       $unwind$?getDimension@UnDecorator@@CA?AVDName@@_N@Z 00000001800570c0     libvcruntime:undname.obj
 0002:0000f0d8       $unwind$?getFloatingPoint@UnDecorator@@CA?AVDName@@H@Z 00000001800570d8     libvcruntime:undname.obj
 0002:0000f0f4       $unwind$?getValueObject@UnDecorator@@CA?AVDName@@XZ 00000001800570f4     libvcruntime:undname.obj
 0002:0000f100       $unwind$?getArgumentTypes@UnDecorator@@CA?AVDName@@XZ 0000000180057100     libvcruntime:undname.obj
 0002:0000f100       $unwind$?getPointerToMember@UnDecorator@@CA?AVDName@@XZ 0000000180057100     libvcruntime:undname.obj
 0002:0000f10c       $unwind$?getTemplateName@UnDecorator@@CA?AVDName@@_N@Z 000000018005710c     libvcruntime:undname.obj
 0002:0000f128       $unwind$?getTemplateArgumentList@UnDecorator@@CA?AVDName@@XZ 0000000180057128     libvcruntime:undname.obj
 0002:0000f148       $unwind$?getTemplateNonTypeArgument@UnDecorator@@CA?AVDName@@XZ 0000000180057148     libvcruntime:undname.obj
 0002:0000f168       $unwind$?getTemplateTypeArgument@UnDecorator@@CA?AVDName@@XZ 0000000180057168     libvcruntime:undname.obj
 0002:0000f180       $unwind$?composeDeclaration@UnDecorator@@CA?AVDName@@AEBV2@@Z 0000000180057180     libvcruntime:undname.obj
 0002:0000f19c       $unwind$?getBasedType@UnDecorator@@CA?AVDName@@XZ 000000018005719c     libvcruntime:undname.obj
 0002:0000f19c       $unwind$?getEnumType@UnDecorator@@CA?AVDName@@XZ 000000018005719c     libvcruntime:undname.obj
 0002:0000f1a8       $unwind$?getCallingConvention@UnDecorator@@CA?AVDName@@XZ 00000001800571a8     libvcruntime:undname.obj
 0002:0000f1b8       $unwind$?getDataType@UnDecorator@@CA?AVDName@@PEAV2@@Z 00000001800571b8     libvcruntime:undname.obj
 0002:0000f1c4       $unwind$?getExtendedDataIndirectType@UnDecorator@@CA?AVDName@@AEAW4IndirectionKind@@AEA_NH@Z 00000001800571c4     libvcruntime:undname.obj
 0002:0000f1c4       $unwind$?getPrimaryDataType@UnDecorator@@CA?AVDName@@AEBV2@@Z 00000001800571c4     libvcruntime:undname.obj
 0002:0000f1c4       $unwind$?getPtrRefDataType@UnDecorator@@CA?AVDName@@AEBV2@H@Z 00000001800571c4     libvcruntime:undname.obj
 0002:0000f1d4       $unwind$?getDataIndirectType@UnDecorator@@CA?AVDName@@AEBV2@W4IndirectionKind@@0H@Z 00000001800571d4     libvcruntime:undname.obj
 0002:0000f1f4       $unwind$?getBasicDataType@UnDecorator@@CA?AVDName@@AEBV2@@Z 00000001800571f4     libvcruntime:undname.obj
 0002:0000f20c       $unwind$?getECSUDataType@UnDecorator@@CA?AVDName@@XZ 000000018005720c     libvcruntime:undname.obj
 0002:0000f21c       $unwind$?getPtrRefType@UnDecorator@@CA?AVDName@@AEBV2@0W4IndirectionKind@@@Z 000000018005721c     libvcruntime:undname.obj
 0002:0000f234       $unwind$?getArrayType@UnDecorator@@CA?AVDName@@AEBV2@@Z 0000000180057234     libvcruntime:undname.obj
 0002:0000f24c       $unwind$?getFunctionIndirectType@UnDecorator@@CA?AVDName@@AEBV2@@Z 000000018005724c     libvcruntime:undname.obj
 0002:0000f26c       $unwind$?getArgumentList@UnDecorator@@CA?AVDName@@XZ 000000018005726c     libvcruntime:undname.obj
 0002:0000f26c       $unwind$?fp_format_f@@YAHQEBNQEAD_K12HW4__acrt_rounding_mode@@AEAV__crt_cached_ptd_host@@@Z 000000018005726c     libucrt:cvt.obj
 0002:0000f26c       $unwind$__acrt_LCMapStringEx 000000018005726c     libucrt:winapi_thunks.obj
 0002:0000f280       $unwind$?getNoexcept@UnDecorator@@CA?AVDName@@XZ 0000000180057280     libvcruntime:undname.obj
 0002:0000f280       $unwind$?getVCallThunkType@UnDecorator@@CA?AVDName@@XZ 0000000180057280     libvcruntime:undname.obj
 0002:0000f280       $unwind$?getVdispMapType@UnDecorator@@CA?AVDName@@AEBV2@@Z 0000000180057280     libvcruntime:undname.obj
 0002:0000f288       $unwind$?getRestrictionSpec@UnDecorator@@CA?AVDName@@XZ 0000000180057288     libvcruntime:undname.obj
 0002:0000f288       $unwind$__stdio_common_vsprintf_s 0000000180057288     libucrt:output.obj
 0002:0000f29c       $unwind$?getLexicalFrame@UnDecorator@@CA?AVDName@@XZ 000000018005729c     libvcruntime:undname.obj
 0002:0000f29c       $unwind$?parseDecoratedName@UnDecorator@@CA?AVDName@@XZ 000000018005729c     libvcruntime:undname.obj
 0002:0000f2a8       $unwind$?getExternalDataType@UnDecorator@@CA?AVDName@@AEBV2@@Z 00000001800572a8     libvcruntime:undname.obj
 0002:0000f2b8       $unwind$?getVfTableType@UnDecorator@@CA?AVDName@@AEBV2@@Z 00000001800572b8     libvcruntime:undname.obj
 0002:0000f2d0       $xdatasym                  00000001800572d0     libvcruntime:notify.obj
 0002:0000f2dc       $unwind$?DecompFuncInfo@FH4@@YA_JPEAEAEAUFuncInfo4@1@_KH_N@Z 00000001800572dc     libvcruntime:risctrnsctrl.obj
 0002:0000f2f4       $unwind$?GetEstablisherFrame@__FrameHandler3@@SAPEA_KPEA_KPEAU_xDISPATCHER_CONTEXT@@PEBU_s_FuncInfo@@0@Z 00000001800572f4     libvcruntime:risctrnsctrl.obj
 0002:0000f30c       $unwind$?UnwindNestedFrames@__FrameHandler3@@SAXPEA_KPEAUEHExceptionRecord@@PEAU_CONTEXT@@0PEAXPEBU_s_FuncInfo@@HHPEBU_s_HandlerType@@PEAU_xDISPATCHER_CONTEXT@@E@Z 000000018005730c     libvcruntime:risctrnsctrl.obj
 0002:0000f30c       $unwind$?UnwindNestedFrames@__FrameHandler4@@SAXPEA_KPEAUEHExceptionRecord@@PEAU_CONTEXT@@0PEAXPEAUFuncInfo4@FH4@@HHPEAUHandlerType4@5@PEAU_xDISPATCHER_CONTEXT@@E@Z 000000018005730c     libvcruntime:risctrnsctrl.obj
 0002:0000f320       $unwind$?GetRangeOfTrysToCheck@__FrameHandler4@@SA?AU?$pair@Viterator@TryBlockMap4@FH4@@V123@@std@@AEAVTryBlockMap4@FH4@@HPEAU_xDISPATCHER_CONTEXT@@PEAUFuncInfo4@5@H@Z 0000000180057320     libvcruntime:risctrnsctrl.obj
 0002:0000f33c       $unwind$__CxxFrameHandler3 000000018005733c     libvcruntime:risctrnsctrl.obj
 0002:0000f350       $unwind$__CxxFrameHandler4 0000000180057350     libvcruntime:risctrnsctrl.obj
 0002:0000f364       $unwind$??$_CallSETranslator@V__FrameHandler4@@@@YAHPEAUEHExceptionRecord@@PEA_KPEAU_CONTEXT@@PEAU_xDISPATCHER_CONTEXT@@PEAUFuncInfo4@FH4@@K1H@Z 0000000180057364     libvcruntime:risctrnsctrl.obj
 0002:0000f384       $unwind$?filt$0@?0???$_CallSETranslator@V__FrameHandler3@@@@YAHPEAUEHExceptionRecord@@PEA_KPEAU_CONTEXT@@PEAU_xDISPATCHER_CONTEXT@@PEBU_s_FuncInfo@@K1H@Z@4HA 0000000180057384     libvcruntime:risctrnsctrl.obj
 0002:0000f384       $unwind$?filt$0@?0???$_CallSETranslator@V__FrameHandler4@@@@YAHPEAUEHExceptionRecord@@PEA_KPEAU_CONTEXT@@PEAU_xDISPATCHER_CONTEXT@@PEAUFuncInfo4@FH4@@K1H@Z@4HA 0000000180057384     libvcruntime:risctrnsctrl.obj
 0002:0000f390       $unwind$??$_CallSETranslator@V__FrameHandler3@@@@YAHPEAUEHExceptionRecord@@PEA_KPEAU_CONTEXT@@PEAU_xDISPATCHER_CONTEXT@@PEBU_s_FuncInfo@@K1H@Z 0000000180057390     libvcruntime:risctrnsctrl.obj
 0002:0000f3b0       $unwind$?try_get_function@@YAPEAXW4function_id@?A0xa2c972ab@@QEBDQEBW4module_id@2@2@Z 00000001800573b0     libvcruntime:winapi_downlevel.obj
 0002:0000f3b0       $unwind$?try_get_function@@YAPEAXW4function_id@?A0x391cf84c@@QEBDQEBW4module_id@2@2@Z 00000001800573b0     libucrt:winapi_thunks.obj
 0002:0000f3b0       $unwind$??$parse_command_line@D@@YAXPEADPEAPEAD0PEA_K2@Z 00000001800573b0     libucrt:argv_parsing.obj
 0002:0000f3cc       $unwind$?StateFromIp@__FrameHandler4@@SAHPEAUFuncInfo4@FH4@@PEAU_xDISPATCHER_CONTEXT@@_K@Z 00000001800573cc     libvcruntime:ehstate.obj
 0002:0000f3e0       $unwind$?getStartStop@UWMap4@FH4@@QEAAXHHAEAViterator@12@0@Z 00000001800573e0     libvcruntime:frame.obj
 0002:0000f3f8       $unwind$?FrameUnwindToState@__FrameHandler3@@SAXPEA_KPEAU_xDISPATCHER_CONTEXT@@PEBU_s_FuncInfo@@H@Z 00000001800573f8     libvcruntime:frame.obj
 0002:0000f444       $unwind$?CxxCallCatchBlock@__FrameHandler3@@SAPEAXPEAU_EXCEPTION_RECORD@@@Z 0000000180057444     libvcruntime:frame.obj
 0002:0000f480       $unwind$?FrameUnwindToState@__FrameHandler4@@SAXPEA_KPEAU_xDISPATCHER_CONTEXT@@PEAUFuncInfo4@FH4@@H@Z 0000000180057480     libvcruntime:frame.obj
 0002:0000f4c8       $unwind$?CxxCallCatchBlock@__FrameHandler4@@SAPEAXPEAU_EXCEPTION_RECORD@@@Z 00000001800574c8     libvcruntime:frame.obj
 0002:0000f524       $unwind$?IsInExceptionSpec@@YAEPEAUEHExceptionRecord@@PEBU_s_ESTypeList@@@Z 0000000180057524     libvcruntime:frame.obj
 0002:0000f540       $unwind$??$__InternalCxxFrameHandler@V__FrameHandler3@@@@YA?AW4_EXCEPTION_DISPOSITION@@PEAUEHExceptionRecord@@PEA_KPEAU_CONTEXT@@PEAU_xDISPATCHER_CONTEXT@@PEBU_s_FuncInfo@@H1E@Z 0000000180057540     libvcruntime:frame.obj
 0002:0000f540       $unwind$?fp_format_e@@YAHQEBNQEAD_K12H_NIW4__acrt_rounding_mode@@AEAV__crt_cached_ptd_host@@@Z 0000000180057540     libucrt:cvt.obj
 0002:0000f558       $unwind$??$__InternalCxxFrameHandler@V__FrameHandler4@@@@YA?AW4_EXCEPTION_DISPOSITION@@PEAUEHExceptionRecord@@PEA_KPEAU_CONTEXT@@PEAU_xDISPATCHER_CONTEXT@@PEAUFuncInfo4@FH4@@H1E@Z 0000000180057558     libvcruntime:frame.obj
 0002:0000f570       $unwind$__GSHandlerCheck_EH 0000000180057570     LIBCMT:gshandlereh.obj
 0002:0000f570       $unwind$__GSHandlerCheck_SEH 0000000180057570     LIBCMT:gshandlerseh.obj
 0002:0000f570       $unwind$??$TypeMatchHelper@V__FrameHandler3@@@@YAHPEBU_s_HandlerType@@PEBU_s_CatchableType@@PEBU_s_ThrowInfo@@@Z 0000000180057570     libvcruntime:frame.obj
 0002:0000f570       $unwind$??$TypeMatchHelper@V__FrameHandler4@@@@YAHPEAUHandlerType4@FH4@@PEBU_s_CatchableType@@PEBU_s_ThrowInfo@@@Z 0000000180057570     libvcruntime:frame.obj
 0002:0000f570       $unwind$?initialize_stdio_handles_nolock@@YAXXZ 0000000180057570     libucrt:ioinit.obj
 0002:0000f570       $unwind$__acrt_initialize_stdio 0000000180057570     libucrt:_file.obj
 0002:0000f588       $unwind$??$BuildCatchObjectHelperInternal@V__FrameHandler3@@@@YAHPEAUEHExceptionRecord@@PEAXPEBU_s_HandlerType@@PEBU_s_CatchableType@@@Z 0000000180057588     libvcruntime:frame.obj
 0002:0000f5c8       $unwind$??$BuildCatchObjectHelperInternal@V__FrameHandler4@@@@YAHPEAUEHExceptionRecord@@PEAXPEAUHandlerType4@FH4@@PEBU_s_CatchableType@@@Z 00000001800575c8     libvcruntime:frame.obj
 0002:0000f608       $unwind$??$BuildCatchObjectInternal@V__FrameHandler3@@@@YAXPEAUEHExceptionRecord@@PEAXPEBU_s_HandlerType@@PEBU_s_CatchableType@@@Z 0000000180057608     libvcruntime:frame.obj
 0002:0000f634       $unwind$??$BuildCatchObjectInternal@V__FrameHandler4@@@@YAXPEAUEHExceptionRecord@@PEAXPEAUHandlerType4@FH4@@PEBU_s_CatchableType@@@Z 0000000180057634     libvcruntime:frame.obj
 0002:0000f660       $unwind$??$FindHandler@V__FrameHandler3@@@@YAXPEAUEHExceptionRecord@@PEA_KPEAU_CONTEXT@@PEAU_xDISPATCHER_CONTEXT@@PEBU_s_FuncInfo@@EH1@Z 0000000180057660     libvcruntime:frame.obj
 0002:0000f680       $unwind$??$FindHandler@V__FrameHandler4@@@@YAXPEAUEHExceptionRecord@@PEA_KPEAU_CONTEXT@@PEAU_xDISPATCHER_CONTEXT@@PEAUFuncInfo4@FH4@@EH1@Z 0000000180057680     libvcruntime:frame.obj
 0002:0000f6a0       $unwind$??$CatchIt@V__FrameHandler3@@@@YAXPEAUEHExceptionRecord@@PEA_KPEAU_CONTEXT@@PEAU_xDISPATCHER_CONTEXT@@PEBU_s_FuncInfo@@PEBU_s_HandlerType@@PEBU_s_CatchableType@@PEBU_s_TryBlockMapEntry@@H1EE@Z 00000001800576a0     libvcruntime:frame.obj
 0002:0000f6a0       $unwind$??$CatchIt@V__FrameHandler4@@@@YAXPEAUEHExceptionRecord@@PEA_KPEAU_CONTEXT@@PEAU_xDISPATCHER_CONTEXT@@PEAUFuncInfo4@FH4@@PEAUHandlerType4@4@PEBU_s_CatchableType@@PEAUTryBlockMapEntry4@4@H1EE@Z 00000001800576a0     libvcruntime:frame.obj
 0002:0000f6b8       $unwind$??$FindHandlerForForeignException@V__FrameHandler3@@@@YAXPEAUEHExceptionRecord@@PEA_KPEAU_CONTEXT@@PEAU_xDISPATCHER_CONTEXT@@PEBU_s_FuncInfo@@HH1@Z 00000001800576b8     libvcruntime:frame.obj
 0002:0000f6d4       $unwind$??$FindHandlerForForeignException@V__FrameHandler4@@@@YAXPEAUEHExceptionRecord@@PEA_KPEAU_CONTEXT@@PEAU_xDISPATCHER_CONTEXT@@PEAUFuncInfo4@FH4@@HH1@Z 00000001800576d4     libvcruntime:frame.obj
 0002:0000f6f8       $xdatasym                  00000001800576f8     libvcruntime:handlers.obj
 0002:0000f718       $unwind$_CxxThrowException 0000000180057718     libvcruntime:throw.obj
 0002:0000f728       $xdatasym                  0000000180057728     libucrt:strcmp.obj
 0002:0000f72c       $unwind$atan2f             000000018005772c     libucrt:atan2f.obj
 0002:0000f750       $xdatasym                  0000000180057750     libucrt:cosf.obj
 0002:0000f758       $xdatasym                  0000000180057758     libucrt:sinf.obj
 0002:0000f760       $unwind$??$free_environment@D@@YAXQEAPEAD@Z 0000000180057760     libucrt:environment_initialization.obj
 0002:0000f760       $unwind$??$free_environment@_W@@YAXQEAPEA_W@Z 0000000180057760     libucrt:environment_initialization.obj
 0002:0000f760       $unwind$_initterm          0000000180057760     libucrt:initterm.obj
 0002:0000f76c       $unwind$?try_cor_exit_process@@YAXI@Z 000000018005776c     libucrt:exit.obj
 0002:0000f780       $ip2state$?try_cor_exit_process@@YAXI@Z 0000000180057780     libucrt:exit.obj
 0002:0000f788       $unwind$?common_exit@@YAXHW4_crt_exit_cleanup_mode@@W4_crt_exit_return_mode@@@Z 0000000180057788     libucrt:exit.obj
 0002:0000f79c       $stateUnwindMap$__dcrt_uninitialize_environments_nolock 000000018005779c     libucrt:environment_initialization.obj
 0002:0000f79c       $stateUnwindMap$?common_exit@@YAXHW4_crt_exit_cleanup_mode@@W4_crt_exit_return_mode@@@Z 000000018005779c     libucrt:exit.obj
 0002:0000f79c       $stateUnwindMap$_execute_onexit_table 000000018005779c     libucrt:onexit.obj
 0002:0000f7a8       $ip2state$?common_exit@@YAXHW4_crt_exit_cleanup_mode@@W4_crt_exit_return_mode@@@Z 00000001800577a8     libucrt:exit.obj
 0002:0000f7b0       $unwind$??R<lambda_6e4b09c48022b2350581041d5f6b0c4c>@@QEBA@XZ 00000001800577b0     libucrt:exit.obj
 0002:0000f7d0       $unwind$??$?RV<lambda_d80eeec6fff315bfe5c115232f3240e3>@@AEAV<lambda_6e4b09c48022b2350581041d5f6b0c4c>@@V<lambda_2358e3775559c9db80273638284d5e45>@@@?$__crt_seh_guarded_call@X@@QEAAX$$QEAV<lambda_d80eeec6fff315bfe5c115232f3240e3>@@AEAV<lambda_6e4b09c48022b2350581041d5f6b0c4c>@@$$QEAV<lambda_2358e3775559c9db80273638284d5e45>@@@Z 00000001800577d0     libucrt:exit.obj
 0002:0000f7f4       $unwind$_configure_narrow_argv 00000001800577f4     libucrt:argv_parsing.obj
 0002:0000f808       $unwind$__dcrt_uninitialize_environments_nolock 0000000180057808     libucrt:environment_initialization.obj
 0002:0000f818       $unwind$??$create_environment@D@@YAQEAPEADQEAD@Z 0000000180057818     libucrt:environment_initialization.obj
 0002:0000f818       $unwind$_mbtowc_internal   0000000180057818     libucrt:mbtowc.obj
 0002:0000f818       $unwind$??$__acrt_convert_wcs_mbs_cp@D_WV<lambda_7c9dea7b4ca7285d2cdb541a38da6275>@@U__crt_win32_buffer_internal_dynamic_resizing@@@@YAHQEBDAEAV?$__crt_win32_buffer@_WU__crt_win32_buffer_internal_dynamic_resizing@@@@AEBV<lambda_7c9dea7b4ca7285d2cdb541a38da6275>@@I@Z 0000000180057818     libucrt:argv_wildcards.obj
 0002:0000f818       $unwind$??$type_case_integer@$07@?$output_processor@DV?$string_output_adapter@D@__crt_stdio_output@@V?$format_validation_base@DV?$string_output_adapter@D@__crt_stdio_output@@@2@@__crt_stdio_output@@AEAA_N_N@Z 0000000180057818     libucrt:output.obj
 0002:0000f818       $unwind$??$type_case_integer@$09@?$output_processor@DV?$string_output_adapter@D@__crt_stdio_output@@V?$format_validation_base@DV?$string_output_adapter@D@__crt_stdio_output@@@2@@__crt_stdio_output@@AEAA_N_N@Z 0000000180057818     libucrt:output.obj
 0002:0000f818       $unwind$??$type_case_integer@$0BA@@?$output_processor@DV?$string_output_adapter@D@__crt_stdio_output@@V?$format_validation_base@DV?$string_output_adapter@D@__crt_stdio_output@@@2@@__crt_stdio_output@@AEAA_N_N@Z 0000000180057818     libucrt:output.obj
 0002:0000f818       $unwind$?process@?$output_processor@DV?$string_output_adapter@D@__crt_stdio_output@@V?$format_validation_base@DV?$string_output_adapter@D@__crt_stdio_output@@@2@@__crt_stdio_output@@QEAAHXZ 0000000180057818     libucrt:output.obj
 0002:0000f830       $unwind$_execute_onexit_table 0000000180057830     libucrt:onexit.obj
 0002:0000f840       $ip2state$_execute_onexit_table 0000000180057840     libucrt:onexit.obj
 0002:0000f848       $unwind$?fp_format_f_internal@@YAHQEAD_KHQEAU_strflt@@_NAEAV__crt_cached_ptd_host@@@Z 0000000180057848     libucrt:cvt.obj
 0002:0000f848       $unwind$__acrt_DownlevelLocaleNameToLCID 0000000180057848     libucrt:lcidtoname_downlevel.obj
 0002:0000f848       $unwind$??R<lambda_f03950bc5685219e0bcd2087efbe011e>@@QEBA@XZ 0000000180057848     libucrt:onexit.obj
 0002:0000f860       $unwind$??$?RV<lambda_7777bce6b2f8c936911f934f8298dc43>@@AEAV<lambda_f03950bc5685219e0bcd2087efbe011e>@@V<lambda_3883c3dff614d5e0c5f61bb1ac94921c>@@@?$__crt_seh_guarded_call@H@@QEAAH$$QEAV<lambda_7777bce6b2f8c936911f934f8298dc43>@@AEAV<lambda_f03950bc5685219e0bcd2087efbe011e>@@$$QEAV<lambda_3883c3dff614d5e0c5f61bb1ac94921c>@@@Z 0000000180057860     libucrt:onexit.obj
 0002:0000f884       $unwind$terminate          0000000180057884     libucrt:terminate.obj
 0002:0000f8a4       $chain$0$?get_raw_ptd@__crt_cached_ptd_host@@QEAAPEAU__acrt_ptd@@XZ 00000001800578a4     libucrt:output.obj
 0002:0000f8b8       $chain$1$?get_raw_ptd@__crt_cached_ptd_host@@QEAAPEAU__acrt_ptd@@XZ 00000001800578b8     libucrt:output.obj
 0002:0000f8c8       $unwind$?write_string@?$string_output_adapter@D@__crt_stdio_output@@QEBAXQEBDHQEAHAEAV__crt_cached_ptd_host@@@Z 00000001800578c8     libucrt:output.obj
 0002:0000f8e0       $unwind$??$common_vsprintf@Vformat_validation_base@__crt_stdio_output@@D@@YAH_KQEAD0QEBDAEAV__crt_cached_ptd_host@@1@Z 00000001800578e0     libucrt:output.obj
 0002:0000f900       $unwind$?parse_int_from_format_string@?$output_processor@DV?$string_output_adapter@D@__crt_stdio_output@@V?$format_validation_base@DV?$string_output_adapter@D@__crt_stdio_output@@@2@@__crt_stdio_output@@AEAA_NQEAH@Z 0000000180057900     libucrt:output.obj
 0002:0000f914       $unwind$?state_case_type@?$output_processor@DV?$string_output_adapter@D@__crt_stdio_output@@V?$format_validation_base@DV?$string_output_adapter@D@__crt_stdio_output@@@2@@__crt_stdio_output@@AEAA_NXZ 0000000180057914     libucrt:output.obj
 0002:0000f938       $unwind$?type_case_a@?$output_processor@DV?$string_output_adapter@D@__crt_stdio_output@@V?$format_validation_base@DV?$string_output_adapter@D@__crt_stdio_output@@@2@@__crt_stdio_output@@AEAA_NXZ 0000000180057938     libucrt:output.obj
 0002:0000f94c       $unwind$??$parse_integer@KV?$c_string_character_source@D@__crt_strtox@@$00@__crt_strtox@@YAKAEAV__crt_cached_ptd_host@@V?$c_string_character_source@D@0@H_N@Z 000000018005794c     libucrt:atox.obj
 0002:0000f94c       $unwind$??$copy_and_add_argument_to_buffer@D@@YAHQEBD0_KAEAV?$argument_list@D@?A0x5f5c8891@@@Z 000000018005794c     libucrt:argv_wildcards.obj
 0002:0000f94c       $unwind$??$parse_integer@KV?$c_string_character_source@D@__crt_strtox@@$0A@@__crt_strtox@@YAKAEAV__crt_cached_ptd_host@@V?$c_string_character_source@D@0@H_N@Z 000000018005794c     libucrt:output.obj
 0002:0000f968       $unwind$??$type_case_integer_parse_into_buffer@I$09@?$output_processor@DV?$string_output_adapter@D@__crt_stdio_output@@V?$format_validation_base@DV?$string_output_adapter@D@__crt_stdio_output@@@2@@__crt_stdio_output@@AEAAXI_N@Z 0000000180057968     libucrt:output.obj
 0002:0000f968       $unwind$??$type_case_integer_parse_into_buffer@_K$09@?$output_processor@DV?$string_output_adapter@D@__crt_stdio_output@@V?$format_validation_base@DV?$string_output_adapter@D@__crt_stdio_output@@@2@@__crt_stdio_output@@AEAAX_K_N@Z 0000000180057968     libucrt:output.obj
 0002:0000f970       $unwind$atol               0000000180057970     libucrt:atox.obj
 0002:0000f980       $xdatasym                  0000000180057980     libucrt:strncmp.obj
 0002:0000f984       $unwind$_ctrlfp            0000000180057984     libucrt:fpctrl.obj
 0002:0000f9ac       $unwind$_call_matherr      00000001800579ac     libucrt:libm_error.obj
 0002:0000f9b4       $unwind$_handle_error      00000001800579b4     libucrt:libm_error.obj
 0002:0000f9b4       $unwind$_handle_errorf     00000001800579b4     libucrt:libm_error.obj
 0002:0000f9d8       $xdatasym                  00000001800579d8     libucrt:remainder_piby2f_forasm.obj
 0002:0000f9e0       $xdatasym                  00000001800579e0     libucrt:remainder_piby2_forfma3.obj
 0002:0000f9ec       $unwind$_sincosf_special   00000001800579ec     libucrt:sincos_special.obj
 0002:0000f9f4       $unwind$__acrt_initialize_fma3 00000001800579f4     libucrt:fma3_available.obj
 0002:0000fa00       $xdatasym                  0000000180057a00     libucrt:remainder_piby2f_forc.obj
 0002:0000fa10       $unwind$_free_base         0000000180057a10     libucrt:free_base.obj
 0002:0000fa10       $unwind$?destroy_fls@@YAXPEAX@Z 0000000180057a10     libucrt:per_thread_data.obj
 0002:0000fa10       $unwind$__acrt_locale_free_numeric 0000000180057a10     libucrt:initnum.obj
 0002:0000fa10       $unwind$__acrt_locale_free_lc_time_if_unreferenced 0000000180057a10     libucrt:locale_refcounting.obj
 0002:0000fa18       $unwind$?construct_ptd_array@@YAXQEAU__acrt_ptd@@@Z 0000000180057a18     libucrt:per_thread_data.obj
 0002:0000fa20       $unwind$?destroy_ptd_array@@YAXQEAU__acrt_ptd@@@Z 0000000180057a20     libucrt:per_thread_data.obj
 0002:0000fa28       $unwind$??$?RV<lambda_0ae27a3a962d80f24befdcbee591983d>@@AEAV<lambda_8d0ee55de4b1038c4002e0adecdf1839>@@V<lambda_dc504788e8f1664fe9b84e20bfb512f2>@@@?$__crt_seh_guarded_call@X@@QEAAX$$QEAV<lambda_0ae27a3a962d80f24befdcbee591983d>@@AEAV<lambda_8d0ee55de4b1038c4002e0adecdf1839>@@$$QEAV<lambda_dc504788e8f1664fe9b84e20bfb512f2>@@@Z 0000000180057a28     libucrt:per_thread_data.obj
 0002:0000fa4c       $unwind$??$?RV<lambda_aa87e3671a710a21b5dc78c0bdf72e11>@@AEAV<lambda_92619d2358a28f41a33ba319515a20b9>@@V<lambda_6992ecaafeb10aed2b74cb1fae11a551>@@@?$__crt_seh_guarded_call@X@@QEAAX$$QEAV<lambda_aa87e3671a710a21b5dc78c0bdf72e11>@@AEAV<lambda_92619d2358a28f41a33ba319515a20b9>@@$$QEAV<lambda_6992ecaafeb10aed2b74cb1fae11a551>@@@Z 0000000180057a4c     libucrt:per_thread_data.obj
 0002:0000fa70       $unwind$??$?RV<lambda_f2e299630e499de9f9a165e60fcd3db5>@@AEAV<lambda_2ae9d31cdba2644fcbeaf08da7c24588>@@V<lambda_40d01ff24d0e7b3814fdbdcee8eab3c7>@@@?$__crt_seh_guarded_call@X@@QEAAX$$QEAV<lambda_f2e299630e499de9f9a165e60fcd3db5>@@AEAV<lambda_2ae9d31cdba2644fcbeaf08da7c24588>@@$$QEAV<lambda_40d01ff24d0e7b3814fdbdcee8eab3c7>@@@Z 0000000180057a70     libucrt:per_thread_data.obj
 0002:0000fa94       $unwind$??$?RV<lambda_2d41944a1d46af3157314b8a01080d33>@@AEAV<lambda_8f455de75cd7d7f24b4096f044d8b9e6>@@V<lambda_aa500f224e6afead328df44964fe2772>@@@?$__crt_seh_guarded_call@X@@QEAAX$$QEAV<lambda_2d41944a1d46af3157314b8a01080d33>@@AEAV<lambda_8f455de75cd7d7f24b4096f044d8b9e6>@@$$QEAV<lambda_aa500f224e6afead328df44964fe2772>@@@Z 0000000180057a94     libucrt:per_thread_data.obj
 0002:0000fab8       $unwind$__acrt_call_reportfault 0000000180057ab8     libucrt:invalid_parameter.obj
 0002:0000fad8       $unwind$__acrt_fp_strflt_to_string 0000000180057ad8     libucrt:_fptostr.obj
 0002:0000fad8       $unwind$??$common_lseek_nolock@_J@@YA_JH_JHAEAV__crt_cached_ptd_host@@@Z 0000000180057ad8     libucrt:lseek.obj
 0002:0000fad8       $unwind$_invalid_parameter_internal 0000000180057ad8     libucrt:invalid_parameter.obj
 0002:0000faec       $unwind$_invalid_parameter 0000000180057aec     libucrt:invalid_parameter.obj
 0002:0000faf8       $unwind$??$common_expand_argv_wildcards@D@@YAHQEAPEADQEAPEAPEAD@Z 0000000180057af8     libucrt:argv_wildcards.obj
 0002:0000fb10       $unwind$__dcrt_get_narrow_environment_from_os 0000000180057b10     libucrt:get_environment_from_os.obj
 0002:0000fb10       $unwind$??$__acrt_convert_wcs_mbs_cp@_WDV<lambda_d8593a27d1aa8c02be35c86a17d324c4>@@U__crt_win32_buffer_internal_dynamic_resizing@@@@YAHQEB_WAEAV?$__crt_win32_buffer@DU__crt_win32_buffer_internal_dynamic_resizing@@@@AEBV<lambda_d8593a27d1aa8c02be35c86a17d324c4>@@I@Z 0000000180057b10     libucrt:argv_wildcards.obj
 0002:0000fb28       $unwind$??$expand_argument_wildcards@D@@YAHQEAD0AEAV?$argument_list@D@?A0x5f5c8891@@@Z 0000000180057b28     libucrt:argv_wildcards.obj
 0002:0000fb48       $unwind$__acrt_GetModuleFileNameA 0000000180057b48     libucrt:getmodulefilenamea.obj
 0002:0000fb64       $unwind$__dcrt_write_console 0000000180057b64     libucrt:initcon.obj
 0002:0000fb64       $unwind$??$__acrt_convert_wcs_mbs_cp@_WDV<lambda_f788ae46380686e8b737efdd8c720d07>@@U__crt_win32_buffer_no_resizing@@@@YAHQEB_WAEAV?$__crt_win32_buffer@DU__crt_win32_buffer_no_resizing@@@@AEBV<lambda_f788ae46380686e8b737efdd8c720d07>@@I@Z 0000000180057b64     libucrt:getmodulefilenamea.obj
 0002:0000fb78       $unwind$_setmbcp_nolock    0000000180057b78     libucrt:mbctype.obj
 0002:0000fb98       $unwind$?update_thread_multibyte_data_internal@@YAPEAU__crt_multibyte_data@@QEAU__acrt_ptd@@QEAPEAU1@@Z 0000000180057b98     libucrt:mbctype.obj
 0002:0000fbc0       $unwind$?setmbcp_internal@@YAHH_NQEAU__acrt_ptd@@QEAPEAU__crt_multibyte_data@@@Z 0000000180057bc0     libucrt:mbctype.obj
 0002:0000fbd8       $unwind$?setSBUpLow@@YAXPEAU__crt_multibyte_data@@@Z 0000000180057bd8     libucrt:mbctype.obj
 0002:0000fbf4       $unwind$??$?RV<lambda_efdfa57d1f175319df784efa44bb7b81>@@AEAV<lambda_5f0a4c1567f8adc6734073e5d1e1b35c>@@V<lambda_2e8a7d3640ea6ccb4c2413664c2db6fd>@@@?$__crt_seh_guarded_call@X@@QEAAX$$QEAV<lambda_efdfa57d1f175319df784efa44bb7b81>@@AEAV<lambda_5f0a4c1567f8adc6734073e5d1e1b35c>@@$$QEAV<lambda_2e8a7d3640ea6ccb4c2413664c2db6fd>@@@Z 0000000180057bf4     libucrt:mbctype.obj
 0002:0000fc18       $unwind$?x_ismbbtype_l@@YAHPEAU__crt_locale_pointers@@IHH@Z 0000000180057c18     libucrt:ismbbyte.obj
 0002:0000fc28       $unwind$__acrt_WideCharToMultiByte 0000000180057c28     libucrt:widechartomultibyte.obj
 0002:0000fc34       $unwind$__acrt_initialize_winapi_thunks 0000000180057c34     libucrt:winapi_thunks.obj
 0002:0000fc3c       $unwind$__acrt_initialize_lowio 0000000180057c3c     libucrt:ioinit.obj
 0002:0000fc5c       $unwind$?initialize_inherited_file_handles_nolock@@YAXXZ 0000000180057c5c     libucrt:ioinit.obj
 0002:0000fc78       $unwind$_query_new_handler 0000000180057c78     libucrt:new_handler.obj
 0002:0000fc98       $unwind$__acrt_uninitialize_locale 0000000180057c98     libucrt:wsetlocale.obj
 0002:0000fc98       $unwind$__acrt_get_sigabrt_handler 0000000180057c98     libucrt:signal.obj
 0002:0000fca0       $unwind$raise              0000000180057ca0     libucrt:signal.obj
 0002:0000fce0       $unwind$??$?RV<lambda_450d765d439847d4c735a33c368b5fc0>@@AEAV<lambda_44731a7d0e6d81c3e6aa82d741081786>@@V<lambda_601a2a7da3b7a96e9554ac7215c4b07c>@@@?$__crt_seh_guarded_call@P6AXH@Z@@QEAAP6AXH@Z$$QEAV<lambda_450d765d439847d4c735a33c368b5fc0>@@AEAV<lambda_44731a7d0e6d81c3e6aa82d741081786>@@$$QEAV<lambda_601a2a7da3b7a96e9554ac7215c4b07c>@@@Z 0000000180057ce0     libucrt:signal.obj
 0002:0000fd04       $unwind$fclose             0000000180057d04     libucrt:fclose.obj
 0002:0000fd04       $unwind$_fflush_nolock     0000000180057d04     libucrt:fflush.obj
 0002:0000fd14       $unwind$?common_flush_all@@YAH_N@Z 0000000180057d14     libucrt:fflush.obj
 0002:0000fd1c       $unwind$??$?RV<lambda_842d9ff0dc9ef11c61343bbaebe7f885>@@AEAV<lambda_c5860995281e5c4ce005b3de8f5874ee>@@V<lambda_d90129c13df834fdcbf8d2b88dafcf2d>@@@?$__crt_seh_guarded_call@X@@QEAAX$$QEAV<lambda_842d9ff0dc9ef11c61343bbaebe7f885>@@AEAV<lambda_c5860995281e5c4ce005b3de8f5874ee>@@$$QEAV<lambda_d90129c13df834fdcbf8d2b88dafcf2d>@@@Z 0000000180057d1c     libucrt:fflush.obj
 0002:0000fd40       $unwind$??$?RV<lambda_886d6c58226a84441f68b9f2b8217b83>@@AEAV<lambda_ab61a845afdef5b7c387490eaf3616ee>@@V<lambda_f7f22ab5edc0698d5f6905b0d3f44752>@@@?$__crt_seh_guarded_call@X@@QEAAX$$QEAV<lambda_886d6c58226a84441f68b9f2b8217b83>@@AEAV<lambda_ab61a845afdef5b7c387490eaf3616ee>@@$$QEAV<lambda_f7f22ab5edc0698d5f6905b0d3f44752>@@@Z 0000000180057d40     libucrt:fflush.obj
 0002:0000fd68       $unwind$?fp_format_e_internal@@YAHQEAD_KH_NIQEAU_strflt@@2AEAV__crt_cached_ptd_host@@@Z 0000000180057d68     libucrt:cvt.obj
 0002:0000fd84       $unwind$?should_round_up@@YA_NQEBN_KFW4__acrt_rounding_mode@@@Z 0000000180057d84     libucrt:cvt.obj
 0002:0000fda0       $unwind$?fp_format_a@@YAHQEBNPEAD_KQEAD2H_NIW4__acrt_rounding_mode@@AEAV__crt_cached_ptd_host@@@Z 0000000180057da0     libucrt:cvt.obj
 0002:0000fdbc       $unwind$?fp_format_g@@YAHQEBNQEAD_K12H_NIW4__acrt_rounding_mode@@AEAV__crt_cached_ptd_host@@@Z 0000000180057dbc     libucrt:cvt.obj
 0002:0000fdd4       $unwind$_wctomb_internal   0000000180057dd4     libucrt:wctomb.obj
 0002:0000fde8       $unwind$??$?RV<lambda_410d79af7f07d98d83a3f525b3859a53>@@AEAV<lambda_3e16ef9562a7dcce91392c22ab16ea36>@@V<lambda_38119f0e861e05405d8a144b9b982f0a>@@@?$__crt_seh_guarded_call@X@@QEAAX$$QEAV<lambda_410d79af7f07d98d83a3f525b3859a53>@@AEAV<lambda_3e16ef9562a7dcce91392c22ab16ea36>@@$$QEAV<lambda_38119f0e861e05405d8a144b9b982f0a>@@@Z 0000000180057de8     libucrt:wsetlocale.obj
 0002:0000fe10       $unwind$_isctype_l         0000000180057e10     libucrt:isctype.obj
 0002:0000fe30       $xdatasym                  0000000180057e30     libucrt:fpsr.obj
 0002:0000fe38       $unwind$_raise_exc_ex      0000000180057e38     libucrt:fpexcept.obj
