 PhysXCommon_64

 Timestamp is 65f5ebea (Sat Mar 16 14:58:50 2024)

 Preferred load address is 0000000180000000

 Start         Length     Name                   Class
 0001:00000000 000028c0H .text$di                CODE
 0001:000028c0 00136cc0H .text$mn                CODE
 0001:00139580 00000040H .text$mn$00             CODE
 0001:001395c0 00000620H .text$x                 CODE
 0002:00000000 00000278H .idata$5                DATA
 0002:00000278 00000028H .00cfg                  DATA
 0002:000002a0 00000008H .CRT$XCA                DATA
 0002:000002a8 00001428H .CRT$XCU                DATA
 0002:000016d0 00000008H .CRT$XCZ                DATA
 0002:000016d8 00000008H .CRT$XIA                DATA
 0002:000016e0 00000018H .CRT$XIC                DATA
 0002:000016f8 00000008H .CRT$XIZ                DATA
 0002:00001700 00000008H .CRT$XPA                DATA
 0002:00001708 00000010H .CRT$XPX                DATA
 0002:00001718 00000008H .CRT$XPXA               DATA
 0002:00001720 00000008H .CRT$XPZ                DATA
 0002:00001728 00000008H .CRT$XTA                DATA
 0002:00001730 00000010H .CRT$XTZ                DATA
 0002:00001738 00000000H .gehcont$y              DATA
 0002:00001738 00000000H .gfids$y                DATA
 0002:00001740 0000dcc0H .rdata                  DATA
 0002:0000f400 00000000H .rdata$CastGuardVftablesA DATA
 0002:0000f400 00000000H .rdata$CastGuardVftablesC DATA
 0002:0000f400 0000043cH .rdata$r                DATA
 0002:0000f83c 0000021cH .rdata$voltmd           DATA
 0002:0000fa58 00000408H .rdata$zzzdbg           DATA
 0002:0000fe60 00000008H .rtc$IAA                DATA
 0002:0000fe68 00000008H .rtc$IZZ                DATA
 0002:0000fe70 00000008H .rtc$TAA                DATA
 0002:0000fe78 00000008H .rtc$TZZ                DATA
 0002:0000fe80 0000c9e0H .xdata                  DATA
 0002:0001c860 00000084H .xdata$x                DATA
 0002:0001c8e4 00000020H .didat$2                DATA
 0002:0001c904 00000024H .didat$3                DATA
 0002:0001c928 000000b8H .didat$4                DATA
 0002:0001c9e0 00000430H .didat$6                DATA
 0002:0001ce10 000000c0H .didat$7                DATA
 0002:0001ced0 0000a0dcH .edata                  DATA
 0002:00026fac 00000014H .idata$2                DATA
 0002:00026fc0 00000018H .idata$3                DATA
 0002:00026fd8 00000278H .idata$4                DATA
 0002:00027250 000005aeH .idata$6                DATA
 0003:00000000 00001430H .data                   DATA
 0003:00001430 00000438H .data$r                 DATA
 0003:00001868 000000f0H .data$rs                DATA
 0003:00001958 000000b8H .didat$5                DATA
 0003:00001a10 00003ae0H .bss                    DATA
 0004:00000000 000070f8H .pdata                  DATA
 0005:00000000 00002304H _RDATA                  DATA
 0006:00000000 000000a0H .rsrc$01                DATA
 0006:000000a0 000004b0H .rsrc$02                DATA

  Address         Publics by Value              Rva+Base               Lib:Object

 0000:00000000       __arm64x_redirection_metadata 0000000000000000     <absolute>
 0000:00000000       __guard_iat_table          0000000000000000     <absolute>
 0000:00000000       __hybrid_code_map          0000000000000000     <absolute>
 0000:00000000       __arm64x_extra_rfe_table_size 0000000000000000     <absolute>
 0000:00000000       __guard_iat_count          0000000000000000     <absolute>
 0000:00000000       ___safe_se_handler_count   0000000000000000     <absolute>
 0000:00000000       __guard_longjmp_count      0000000000000000     <absolute>
 0000:00000000       __guard_fids_count         0000000000000000     <absolute>
 0000:00000000       __dynamic_value_reloc_table 0000000000000000     <absolute>
 0000:00000000       __x64_code_ranges_to_entry_points_count 0000000000000000     <absolute>
 0000:00000000       __hybrid_auxiliary_iat     0000000000000000     <absolute>
 0000:00000000       __hybrid_auxiliary_iat_copy 0000000000000000     <absolute>
 0000:00000000       ___safe_se_handler_table   0000000000000000     <absolute>
 0000:00000000       __arm64x_extra_rfe_table   0000000000000000     <absolute>
 0000:00000000       __AbsoluteZero             0000000000000000     <absolute>
 0000:00000000       __guard_eh_cont_count      0000000000000000     <absolute>
 0000:00000000       __guard_check_icall_a64n_fptr 0000000000000000     <absolute>
 0000:00000000       __guard_fids_table         0000000000000000     <absolute>
 0000:00000000       __x64_code_ranges_to_entry_points 0000000000000000     <absolute>
 0000:00000000       __guard_longjmp_table      0000000000000000     <absolute>
 0000:00000000       __arm64x_redirection_metadata_count 0000000000000000     <absolute>
 0000:00000000       __enclave_config           0000000000000000     <absolute>
 0000:00000000       __guard_eh_cont_table      0000000000000000     <absolute>
 0000:00000000       __arm64x_native_entrypoint 0000000000000000     <absolute>
 0000:00000000       __hybrid_code_map_count    0000000000000000     <absolute>
 0000:00000100       __guard_flags              0000000000000100     <absolute>
 0000:00000000       __ImageBase                0000000180000000     <linker-defined>
 0001:000028c0       ??_ECollection@Cm@physx@@UEAAPEAXI@Z 00000001800038c0 f i CmCollection.obj
 0001:000028c0       ??_GCollection@Cm@physx@@UEAAPEAXI@Z 00000001800038c0 f i CmCollection.obj
 0001:00002970       ??_EPxCollection@physx@@MEAAPEAXI@Z 0000000180003970 f i CmCollection.obj
 0001:00002970       ??_GPxCollection@physx@@MEAAPEAXI@Z 0000000180003970 f i CmCollection.obj
 0001:000029a0       ?PxCreateCollection@@YAPEAVPxCollection@physx@@XZ 00000001800039a0 f   CmCollection.obj
 0001:00002aa0       ?add@Collection@Cm@physx@@UEAAXAEAVPxBase@3@_K@Z 0000000180003aa0 f   CmCollection.obj
 0001:00002b90       ?add@Collection@Cm@physx@@UEAAXAEAVPxCollection@3@@Z 0000000180003b90 f   CmCollection.obj
 0001:00002db0       ?addId@Collection@Cm@physx@@UEAAXAEAVPxBase@3@_K@Z 0000000180003db0 f   CmCollection.obj
 0001:00002f00       ?contains@Collection@Cm@physx@@UEBA_NAEAVPxBase@3@@Z 0000000180003f00 f   CmCollection.obj
 0001:00002fb0       ?create@?$HashBase@V?$Pair@QEAVPxBase@physx@@_K@shdfnd@physx@@PEAVPxBase@3@U?$Hash@PEAVPxBase@physx@@@23@UGetKey@?$HashMapBase@PEAVPxBase@physx@@_KU?$Hash@PEAVPxBase@physx@@@shdfnd@2@VNonTrackingAllocator@42@@internal@23@VNonTrackingAllocator@23@$00@internal@shdfnd@physx@@QEAAPEAV?$Pair@QEAVPxBase@physx@@_K@34@AEBQEAVPxBase@4@AEA_N@Z 0000000180003fb0 f i CmCollection.obj
 0001:00002fb0       ?create@?$HashBase@V?$Pair@$$CB_KPEAVPxBase@physx@@@shdfnd@physx@@_KU?$Hash@_K@23@UGetKey@?$HashMapBase@_KPEAVPxBase@physx@@U?$Hash@_K@shdfnd@2@VNonTrackingAllocator@42@@internal@23@VNonTrackingAllocator@23@$00@internal@shdfnd@physx@@QEAAPEAV?$Pair@$$CB_KPEAVPxBase@physx@@@34@AEB_KAEA_N@Z 0000000180003fb0 f i CmCollection.obj
 0001:00003150       ?erase@?$HashBase@V?$Pair@$$CB_KPEAVPxBase@physx@@@shdfnd@physx@@_KU?$Hash@_K@23@UGetKey@?$HashMapBase@_KPEAVPxBase@physx@@U?$Hash@_K@shdfnd@2@VNonTrackingAllocator@42@@internal@23@VNonTrackingAllocator@23@$00@internal@shdfnd@physx@@QEAA_NAEB_K@Z 0000000180004150 f i CmCollection.obj
 0001:00003150       ?erase@?$HashBase@V?$Pair@QEAVPxBase@physx@@_K@shdfnd@physx@@PEAVPxBase@3@U?$Hash@PEAVPxBase@physx@@@23@UGetKey@?$HashMapBase@PEAVPxBase@physx@@_KU?$Hash@PEAVPxBase@physx@@@shdfnd@2@VNonTrackingAllocator@42@@internal@23@VNonTrackingAllocator@23@$00@internal@shdfnd@physx@@QEAA_NAEBQEAVPxBase@4@@Z 0000000180004150 f i CmCollection.obj
 0001:000032f0       ?find@?$HashMapBase@_KPEAVPxBase@physx@@U?$Hash@_K@shdfnd@2@VNonTrackingAllocator@42@@internal@shdfnd@physx@@QEBAPEBV?$Pair@$$CB_KPEAVPxBase@physx@@@34@AEB_K@Z 00000001800042f0 f i CmCollection.obj
 0001:000032f0       ?find@?$HashMapBase@PEAVPxBase@physx@@_KU?$Hash@PEAVPxBase@physx@@@shdfnd@2@VNonTrackingAllocator@42@@internal@shdfnd@physx@@QEBAPEBV?$Pair@QEAVPxBase@physx@@_K@34@AEBQEAVPxBase@4@@Z 00000001800042f0 f i CmCollection.obj
 0001:00003390       ?find@Collection@Cm@physx@@UEBAPEAVPxBase@3@_K@Z 0000000180004390 f   CmCollection.obj
 0001:000033f0       ?getId@Collection@Cm@physx@@UEBA_KAEBVPxBase@3@@Z 00000001800043f0 f   CmCollection.obj
 0001:000034a0       ?getIds@Collection@Cm@physx@@UEBAIPEA_KII@Z 00000001800044a0 f   CmCollection.obj
 0001:000035d0       ?getNbColumns@HeightField@Gu@physx@@UEBAIXZ 00000001800045d0 f   GuBounds.obj
 0001:000035d0       ?getNbIds@Collection@Cm@physx@@UEBAIXZ 00000001800045d0 f   CmCollection.obj
 0001:000035e0       ?getNbObjects@Collection@Cm@physx@@UEBAIXZ 00000001800045e0 f   CmCollection.obj
 0001:000035f0       ?getObject@Collection@Cm@physx@@UEBAAEAVPxBase@3@I@Z 00000001800045f0 f   CmCollection.obj
 0001:00003600       ?getObjects@Collection@Cm@physx@@UEBAIPEAPEAVPxBase@3@II@Z 0000000180004600 f   CmCollection.obj
 0001:000036c0       ?insert@?$HashMapBase@_KPEAVPxBase@physx@@U?$Hash@_K@shdfnd@2@VNonTrackingAllocator@42@@internal@shdfnd@physx@@QEAA_N_KQEAVPxBase@4@@Z 00000001800046c0 f i CmCollection.obj
 0001:00003710       ?release@Collection@Cm@physx@@UEAAXXZ 0000000180004710 f i CmCollection.obj
 0001:00003730       ?remove@Collection@Cm@physx@@UEAAXAEAVPxBase@3@@Z 0000000180004730 f   CmCollection.obj
 0001:00003870       ?remove@Collection@Cm@physx@@UEAAXAEAVPxCollection@3@@Z 0000000180004870 f   CmCollection.obj
 0001:000039d0       ?removeId@Collection@Cm@physx@@UEAAX_K@Z 00000001800049d0 f   CmCollection.obj
 0001:00003ab0       ?reserveInternal@?$HashBase@V?$Pair@$$CB_KPEAVPxBase@physx@@@shdfnd@physx@@_KU?$Hash@_K@23@UGetKey@?$HashMapBase@_KPEAVPxBase@physx@@U?$Hash@_K@shdfnd@2@VNonTrackingAllocator@42@@internal@23@VNonTrackingAllocator@23@$00@internal@shdfnd@physx@@AEAAXI@Z 0000000180004ab0 f i CmCollection.obj
 0001:00003ab0       ?reserveInternal@?$HashBase@V?$Pair@QEAVPxBase@physx@@_K@shdfnd@physx@@PEAVPxBase@3@U?$Hash@PEAVPxBase@physx@@@23@UGetKey@?$HashMapBase@PEAVPxBase@physx@@_KU?$Hash@PEAVPxBase@physx@@@shdfnd@2@VNonTrackingAllocator@42@@internal@23@VNonTrackingAllocator@23@$00@internal@shdfnd@physx@@AEAAXI@Z 0000000180004ab0 f i CmCollection.obj
 0001:00003ca0       ??0PtrTable@Cm@physx@@QEAA@W4PxEMPTY@2@@Z 0000000180004ca0 f i CmPtrTable.obj
 0001:00003cc0       ??0PtrTable@Cm@physx@@QEAA@XZ 0000000180004cc0 f   CmPtrTable.obj
 0001:00003cd0       ??1Box@Gu@physx@@QEAA@XZ   0000000180004cd0 f   GuBounds.obj
 0001:00003cd0       ?requiresObjects@HeightField@Gu@physx@@UEAAXAEAVPxProcessPxBaseCallback@3@@Z 0000000180004cd0 f   GuHeightField.obj
 0001:00003cd0       ??1PtrTable@Cm@physx@@QEAA@XZ 0000000180004cd0 f   CmPtrTable.obj
 0001:00003cd0       ??1HeightFieldData@Gu@physx@@QEAA@XZ 0000000180004cd0 f   GuBounds.obj
 0001:00003cd0       ?profile@Callback@RTree@Gu@physx@@UEAAXXZ 0000000180004cd0 f   GuMidphaseRTree.obj
 0001:00003cd0       _guard_check_icall_nop     0000000180004cd0 f   LIBCMT:guard_support.obj
 0001:00003cd0       ??1AABBTreeBuildNode@Gu@physx@@QEAA@XZ 0000000180004cd0 f   GuAABBTreeBuild.obj
 0001:00003cd0       ?requiresObjects@TriangleMesh@Gu@physx@@UEAAXAEAVPxProcessPxBaseCallback@3@@Z 0000000180004cd0 f   GuTriangleMesh.obj
 0001:00003cd0       ?requiresObjects@ConvexMesh@Gu@physx@@UEAAXAEAVPxProcessPxBaseCallback@3@@Z 0000000180004cd0 f   GuConvexMesh.obj
 0001:00003cd0       ??1MaterialIndicesStruct@physx@@QEAA@XZ 0000000180004cd0 f   GuGeometryUnion.obj
 0001:00003ce0       ??4PtrTable@Cm@physx@@QEAAAEAU012@AEBU012@@Z 0000000180004ce0 f i CmPtrTable.obj
 0001:00003ce0       ??4MaterialIndicesStruct@physx@@QEAAAEAU01@AEBU01@@Z 0000000180004ce0 f i GuGeometryUnion.obj
 0001:00003ce0       ??4CmModuleUpdateLoader@Cm@physx@@QEAAAEAV012@AEBV012@@Z 0000000180004ce0 f i CmWindowsModuleUpdateLoader.obj
 0001:00003cf0       ?add@PtrTable@Cm@physx@@QEAAXPEAXAEAVPtrTableStorageManager@23@@Z 0000000180004cf0 f   CmPtrTable.obj
 0001:00003db0       ?clear@PtrTable@Cm@physx@@QEAAXAEAVPtrTableStorageManager@23@@Z 0000000180004db0 f   CmPtrTable.obj
 0001:00003e30       ?exportExtraData@PtrTable@Cm@physx@@QEAAXAEAVPxSerializationContext@3@@Z 0000000180004e30 f   CmPtrTable.obj
 0001:00003e80       ?find@PtrTable@Cm@physx@@QEBAIPEBX@Z 0000000180004e80 f   CmPtrTable.obj
 0001:00003eb0       ?getBinaryMetaData@PtrTable@Cm@physx@@SAXAEAVPxOutputStream@3@@Z 0000000180004eb0 f   CmPtrTable.obj
 0001:00004060       ?getCount@PtrTable@Cm@physx@@QEBAIXZ 0000000180005060 f i CmPtrTable.obj
 0001:00004070       ?getPtrs@PtrTable@Cm@physx@@QEBAPEBQEAXXZ 0000000180005070 f i CmPtrTable.obj
 0001:00004070       ?getPtrs@PtrTable@Cm@physx@@QEAAPEAPEAXXZ 0000000180005070 f i CmPtrTable.obj
 0001:00004080       ?importExtraData@PtrTable@Cm@physx@@QEAAXAEAVPxDeserializationContext@3@@Z 0000000180005080 f   CmPtrTable.obj
 0001:000040b0       ?realloc@PtrTable@Cm@physx@@AEAAXIIAEAVPtrTableStorageManager@23@@Z 00000001800050b0 f   CmPtrTable.obj
 0001:00004140       ?replaceWithLast@PtrTable@Cm@physx@@QEAAXIAEAVPtrTableStorageManager@23@@Z 0000000180005140 f   CmPtrTable.obj
 0001:00004240       ??0RadixSort@Cm@physx@@QEAA@XZ 0000000180005240 f   CmRadixSort.obj
 0001:00004270       ??1RadixSort@Cm@physx@@UEAA@XZ 0000000180005270 f   CmRadixSort.obj
 0001:00004280       ??_ERadixSort@Cm@physx@@UEAAPEAXI@Z 0000000180005280 f i CmRadixSort.obj
 0001:00004310       ?GetNbHits@RadixSort@Cm@physx@@QEBAIXZ 0000000180005310 f i CmRadixSort.obj
 0001:00004320       ?GetNbTotalCalls@RadixSort@Cm@physx@@QEBAIXZ 0000000180005320 f i CmRadixSort.obj
 0001:00004330       ?GetRanks@RadixSort@Cm@physx@@QEBAPEBIXZ 0000000180005330 f i CmRadixSort.obj
 0001:00004330       ?getHeightField@HeightFieldUtil@Gu@physx@@QEBAAEBVHeightField@23@XZ 0000000180005330 f i GuCCTSweepTests.obj
 0001:00004340       ?getPos@AABBTreeBuildNode@Gu@physx@@QEBAPEBV123@XZ 0000000180005340 f i GuAABBTreeBuild.obj
 0001:00004340       ?GetValencies@BigConvexData@physx@@QEBAPEBUValency@Gu@2@XZ 0000000180005340 f i GuMetaData.obj
 0001:00004340       ?GetRecyclable@RadixSort@Cm@physx@@QEBAPEAIXZ 0000000180005340 f i CmRadixSort.obj
 0001:00004340       ?getHeightFieldGeometry@HeightFieldUtil@Gu@physx@@QEBAAEBVPxHeightFieldGeometry@3@XZ 0000000180005340 f i GuCCTSweepTests.obj
 0001:00004350       ?SetBuffers@RadixSort@Cm@physx@@QEAA_NPEAI00PEAPEAI@Z 0000000180005350 f   CmRadixSort.obj
 0001:00004390       ?Sort@RadixSort@Cm@physx@@QEAAAEAV123@PEBIIW4RadixHint@23@@Z 0000000180005390 f   CmRadixSort.obj
 0001:000049e0       ?Sort@RadixSort@Cm@physx@@QEAAAEAV123@PEBMI@Z 00000001800059e0 f   CmRadixSort.obj
 0001:00005140       ?invalidateRanks@RadixSort@Cm@physx@@QEAAXXZ 0000000180006140 f i CmRadixSort.obj
 0001:00005150       ??0RadixSortBuffered@Cm@physx@@QEAA@XZ 0000000180006150 f   CmRadixSortBuffered.obj
 0001:00005180       ??1RadixSortBuffered@Cm@physx@@UEAA@XZ 0000000180006180 f   CmRadixSortBuffered.obj
 0001:000051b0       ??_ERadixSortBuffered@Cm@physx@@UEAAPEAXI@Z 00000001800061b0 f i CmRadixSortBuffered.obj
 0001:000052e0       ?CheckResize@RadixSortBuffered@Cm@physx@@AEAAXI@Z 00000001800062e0 f i CmRadixSortBuffered.obj
 0001:00005320       ?Resize@RadixSortBuffered@Cm@physx@@AEAA_NI@Z 0000000180006320 f   CmRadixSortBuffered.obj
 0001:00005420       ?Sort@RadixSortBuffered@Cm@physx@@QEAAAEAV123@PEBIIW4RadixHint@23@@Z 0000000180006420 f   CmRadixSortBuffered.obj
 0001:000054c0       ?Sort@RadixSortBuffered@Cm@physx@@QEAAAEAV123@PEBMI@Z 00000001800064c0 f   CmRadixSortBuffered.obj
 0001:00005550       ?reset@RadixSortBuffered@Cm@physx@@QEAAXXZ 0000000180006550 f   CmRadixSortBuffered.obj
 0001:000055d0       ??0DebugText@Cm@physx@@QEAA@$$QEAU012@@Z 00000001800065d0 f i CmRenderOutput.obj
 0001:000055d0       ??0DebugText@Cm@physx@@QEAA@AEBU012@@Z 00000001800065d0 f i CmRenderOutput.obj
 0001:000056b0       ??0DebugText@Cm@physx@@QEAA@AEBVPxVec3@2@MPEBDZZ 00000001800066b0 f   CmRenderOutput.obj
 0001:00005710       ??0RenderOutput@Cm@physx@@QEAA@AEAVRenderBuffer@12@@Z 0000000180006710 f i CmRenderOutput.obj
 0001:00005760       ??0RenderOutput@Cm@physx@@QEAA@AEBV012@@Z 0000000180006760 f i CmRenderOutput.obj
 0001:00005800       ??4DebugText@Cm@physx@@QEAAAEAU012@$$QEAU012@@Z 0000000180006800 f i CmRenderOutput.obj
 0001:00005800       ??4DebugText@Cm@physx@@QEAAAEAU012@AEBU012@@Z 0000000180006800 f i CmRenderOutput.obj
 0001:00005930       ??6Cm@physx@@YAAEAVRenderOutput@01@AEAV201@AEBUDebugArc@01@@Z 0000000180006930 f   CmRenderOutput.obj
 0001:00005a30       ??6Cm@physx@@YAAEAVRenderOutput@01@AEAV201@AEBUDebugArrow@01@@Z 0000000180006a30 f   CmRenderOutput.obj
 0001:00005e20       ??6Cm@physx@@YAAEAVRenderOutput@01@AEAV201@AEBUDebugBasis@01@@Z 0000000180006e20 f   CmRenderOutput.obj
 0001:00005f20       ??6Cm@physx@@YAAEAVRenderOutput@01@AEAV201@AEBUDebugBox@01@@Z 0000000180006f20 f   CmRenderOutput.obj
 0001:00006420       ??6Cm@physx@@YAAEAVRenderOutput@01@AEAV201@AEBUDebugCircle@01@@Z 0000000180007420 f   CmRenderOutput.obj
 0001:00006500       ??6RenderOutput@Cm@physx@@QEAAAEAV012@AEBUDebugText@12@@Z 0000000180007500 f   CmRenderOutput.obj
 0001:00006710       ??6RenderOutput@Cm@physx@@QEAAAEAV012@AEBVPxMat44@2@@Z 0000000180007710 f   CmRenderOutput.obj
 0001:00006780       ??6RenderOutput@Cm@physx@@QEAAAEAV012@AEBVPxTransform@2@@Z 0000000180007780 f   CmRenderOutput.obj
 0001:00006900       ??6RenderOutput@Cm@physx@@QEAAAEAV012@I@Z 0000000180007900 f   CmRenderOutput.obj
 0001:00006910       ??6RenderOutput@Cm@physx@@QEAAAEAV012@VPxVec3@2@@Z 0000000180007910 f   CmRenderOutput.obj
 0001:00006e60       ??6RenderOutput@Cm@physx@@QEAAAEAV012@W4Primitive@012@@Z 0000000180007e60 f   CmRenderOutput.obj
 0001:00006e70       ?copy@?$Array@UPxDebugLine@physx@@VNamedAllocator@shdfnd@2@@shdfnd@physx@@KAXPEAUPxDebugLine@3@0PEBU43@@Z 0000000180007e70 f i CmRenderOutput.obj
 0001:00007020       ?copy@?$Array@UPxDebugPoint@physx@@VNamedAllocator@shdfnd@2@@shdfnd@physx@@KAXPEAUPxDebugPoint@3@0PEBU43@@Z 0000000180008020 f i CmRenderOutput.obj
 0001:00007120       ?copy@?$Array@UPxDebugText@physx@@VNamedAllocator@shdfnd@2@@shdfnd@physx@@KAXPEAUPxDebugText@3@0PEBU43@@Z 0000000180008120 f i CmRenderOutput.obj
 0001:00007290       ?copy@?$Array@UPxDebugTriangle@physx@@VNamedAllocator@shdfnd@2@@shdfnd@physx@@KAXPEAUPxDebugTriangle@3@0PEBU43@@Z 0000000180008290 f i CmRenderOutput.obj
 0001:00007490       ?growAndPushBack@?$Array@DVNamedAllocator@shdfnd@physx@@@shdfnd@physx@@IEAAAEADAEBD@Z 0000000180008490 f i CmRenderOutput.obj
 0001:00007570       ?growAndPushBack@?$Array@UPxDebugLine@physx@@VNamedAllocator@shdfnd@2@@shdfnd@physx@@IEAAAEAUPxDebugLine@3@AEBU43@@Z 0000000180008570 f i CmRenderOutput.obj
 0001:00007680       ?growAndPushBack@?$Array@UPxDebugPoint@physx@@VNamedAllocator@shdfnd@2@@shdfnd@physx@@IEAAAEAUPxDebugPoint@3@AEBU43@@Z 0000000180008680 f i CmRenderOutput.obj
 0001:00007770       ?growAndPushBack@?$Array@UPxDebugText@physx@@VNamedAllocator@shdfnd@2@@shdfnd@physx@@IEAAAEAUPxDebugText@3@AEBU43@@Z 0000000180008770 f i CmRenderOutput.obj
 0001:00007870       ?growAndPushBack@?$Array@UPxDebugTriangle@physx@@VNamedAllocator@shdfnd@2@@shdfnd@physx@@IEAAAEAUPxDebugTriangle@3@AEBU43@@Z 0000000180008870 f i CmRenderOutput.obj
 0001:000079b0       ?outputCapsule@RenderOutput@Cm@physx@@QEAAAEAV123@MMAEBVPxMat44@3@@Z 00000001800089b0 f   CmRenderOutput.obj
 0001:00008490       ?outputSegment@RenderOutput@Cm@physx@@QEAAXAEBVPxVec3@3@0@Z 0000000180009490 f i CmRenderOutput.obj
 0001:00008550       ?recreate@?$Array@DVNamedAllocator@shdfnd@physx@@@shdfnd@physx@@IEAAXI@Z 0000000180009550 f i CmRenderOutput.obj
 0001:00008600       ?recreate@?$Array@UPxDebugLine@physx@@VNamedAllocator@shdfnd@2@@shdfnd@physx@@IEAAXI@Z 0000000180009600 f i CmRenderOutput.obj
 0001:000086a0       ?reserveSegments@RenderOutput@Cm@physx@@QEAAPEAUPxDebugLine@3@I@Z 00000001800096a0 f i CmRenderOutput.obj
 0001:00008710       ??DPxQuat@physx@@QEBA?AV01@AEBV01@@Z 0000000180009710 f i CmVisualization.obj
 0001:00008850       ?visualizeAngularLimit@Cm@physx@@YAXAEAVRenderOutput@12@MAEBVPxTransform@2@MM_N@Z 0000000180009850 f   CmVisualization.obj
 0001:00008a10       ?visualizeDoubleCone@Cm@physx@@YAXAEAVRenderOutput@12@MAEBVPxTransform@2@M_N@Z 0000000180009a10 f   CmVisualization.obj
 0001:00008c70       ?visualizeJointFrames@Cm@physx@@YAXAEAVRenderOutput@12@MAEBVPxTransform@2@1@Z 0000000180009c70 f   CmVisualization.obj
 0001:00008d30       ?visualizeLimitCone@Cm@physx@@YAXAEAVRenderOutput@12@MAEBVPxTransform@2@MM_N@Z 0000000180009d30 f   CmVisualization.obj
 0001:00008fc0       ?visualizeLinearLimit@Cm@physx@@YAXAEAVRenderOutput@12@MAEBVPxTransform@2@1M_N@Z 0000000180009fc0 f   CmVisualization.obj
 0001:00009240       ??0CmModuleUpdateLoader@Cm@physx@@QEAA@PEBD@Z 000000018000a240 f   CmWindowsModuleUpdateLoader.obj
 0001:00009280       ??1CmModuleUpdateLoader@Cm@physx@@QEAA@XZ 000000018000a280 f   CmWindowsModuleUpdateLoader.obj
 0001:000092b0       ?LoadModule@CmModuleUpdateLoader@Cm@physx@@QEAAPEAUHINSTANCE__@@PEBD0@Z 000000018000a2b0 f   CmWindowsModuleUpdateLoader.obj
 0001:000092d0       ?commonDelayHook@@YAP6A_JXZIPEAUDelayLoadInfo@@@Z 000000018000a2d0 f   CmWindowsDelayLoadHook.obj
 0001:000093b0       PxSetPhysXCommonDelayLoadHook 000000018000a3b0 f   CmWindowsDelayLoadHook.obj
 0001:000093c0       ??0Box@Gu@physx@@QEAA@AEBV012@@Z 000000018000a3c0 f i GuBounds.obj
 0001:000093c0       ??4Box@Gu@physx@@QEAAAEBV012@AEBV012@@Z 000000018000a3c0 f i GuBounds.obj
 0001:00009420       ??0Box@Gu@physx@@QEAA@AEBVPxVec3@2@0AEBVPxMat33@2@@Z 000000018000a420 f i GuBounds.obj
 0001:00009490       ??0AABBTreeBuildNode@Gu@physx@@QEAA@XZ 000000018000a490 f i GuAABBTreeBuild.obj
 0001:00009490       ??0HeightFieldData@Gu@physx@@QEAA@W4PxEMPTY@2@@Z 000000018000a490 f i GuBounds.obj
 0001:00009490       ?getAABB@AABBTreeBuildNode@Gu@physx@@QEBAAEBVPxBounds3@3@XZ 000000018000a490 f i GuAABBTreeBuild.obj
 0001:00009490       ??0Box@Gu@physx@@QEAA@XZ   000000018000a490 f i GuBounds.obj
 0001:00009490       ?getPaddedBounds@HeightFieldData@Gu@physx@@QEBAAEBVCenterExtentsPadded@23@XZ 000000018000a490 f i GuBounds.obj
 0001:00009490       ??0BigConvexData@physx@@QEAA@W4PxEMPTY@1@@Z 000000018000a490 f i GuMetaData.obj
 0001:00009490       ??0GeometryUnion@Gu@physx@@QEAA@W4PxEMPTY@2@@Z 000000018000a490 f i GuGeometryUnion.obj
 0001:00009490       ??$forward@_K@std@@YA$$QEA_KAEA_K@Z 000000018000a490 f i libvcruntime:undname.obj
 0001:00009490       ?getGeometry@GeometryUnion@Gu@physx@@QEBAAEBVPxGeometry@3@XZ 000000018000a490 f i GuGeometryUnion.obj
 0001:00009490       ??0MaterialIndicesStruct@physx@@QEAA@W4PxEMPTY@1@@Z 000000018000a490 f i GuGeometryUnion.obj
 0001:000094a0       ??0HeightFieldData@Gu@physx@@QEAA@AEBU012@@Z 000000018000a4a0 f i GuBounds.obj
 0001:000094a0       ??0HeightFieldData@Gu@physx@@QEAA@$$QEAU012@@Z 000000018000a4a0 f i GuBounds.obj
 0001:000094a0       ??4HeightFieldData@Gu@physx@@QEAAAEAU012@$$QEAU012@@Z 000000018000a4a0 f i GuBounds.obj
 0001:000094a0       ??4HeightFieldData@Gu@physx@@QEAAAEAU012@AEBU012@@Z 000000018000a4a0 f i GuBounds.obj
 0001:00009500       ??0HeightFieldData@Gu@physx@@QEAA@XZ 000000018000a500 f i GuBounds.obj
 0001:00009510       ??0PxQuat@physx@@QEAA@AEBVPxMat33@1@@Z 000000018000a510 f i GuBounds.obj
 0001:000096f0       ??0ShapeData@Gu@physx@@QEAA@AEBVPxGeometry@2@AEBVPxTransform@2@M@Z 000000018000a6f0 f   GuBounds.obj
 0001:00009c50       ??1PxHeightField@physx@@MEAA@XZ 000000018000ac50 f i GuBounds.obj
 0001:00009c50       ??1PxConvexMesh@physx@@MEAA@XZ 000000018000ac50 f i GuBounds.obj
 0001:00009c60       ??_EPxBase@physx@@MEAAPEAXI@Z 000000018000ac60 f i GuBounds.obj
 0001:00009c60       ??_GPxBVHStructure@physx@@MEAAPEAXI@Z 000000018000ac60 f i GuBVHStructure.obj
 0001:00009c60       ??_GPxBase@physx@@MEAAPEAXI@Z 000000018000ac60 f i GuBounds.obj
 0001:00009c60       ??_EPxTriangleMesh@physx@@MEAAPEAXI@Z 000000018000ac60 f i GuTriangleMesh.obj
 0001:00009c60       ??_EPxBVHStructure@physx@@MEAAPEAXI@Z 000000018000ac60 f i GuBVHStructure.obj
 0001:00009c60       ??_GPxTriangleMesh@physx@@MEAAPEAXI@Z 000000018000ac60 f i GuTriangleMesh.obj
 0001:00009c90       ??_H@YAXPEAX_K1P6APEAX0@Z@Z 000000018000ac90 f i GuBounds.obj
 0001:00009ce0       ?computeAABBExtent@Box@Gu@physx@@QEBA?AVPxVec3@3@XZ 000000018000ace0 f i GuBounds.obj
 0001:00009da0       ?computeBounds@Gu@physx@@YAXAEAVPxBounds3@2@AEBVPxGeometry@2@AEBVPxTransform@2@MPEIBVCenterExtentsPadded@12@M@Z 000000018000ada0 f   GuBounds.obj
 0001:0000a680       ?computeBoundsWithCCDThreshold@Gu@physx@@YAMAEAVVec3p@12@0AEBVPxGeometry@2@AEBVPxTransform@2@PEIBVCenterExtentsPadded@12@@Z 000000018000b680 f   GuBounds.obj
 0001:0000a850       ?computeBoxPoints@Box@Gu@physx@@QEBAXPEIAVPxVec3@3@@Z 000000018000b850 f i GuBounds.obj
 0001:0000b800       ?getConcreteTypeName@PxConvexMesh@physx@@UEBAPEBDXZ 000000018000c800 f i GuBounds.obj
 0001:0000b810       ?getConcreteTypeName@PxHeightField@physx@@UEBAPEBDXZ 000000018000c810 f i GuBounds.obj
 0001:0000b820       ?getConvexEdgeThreshold@HeightField@Gu@physx@@UEBAMXZ 000000018000c820 f i GuBounds.obj
 0001:0000b830       ?getFlags@HeightField@Gu@physx@@UEBA?AV?$PxFlags@W4Enum@PxHeightFieldFlag@physx@@G@3@XZ 000000018000c830 f i GuBounds.obj
 0001:0000b840       ?getFormat@HeightField@Gu@physx@@UEBA?AW4Enum@PxHeightFieldFormat@3@XZ 000000018000c840 f i GuBounds.obj
 0001:0000b850       ?getHeight@HeightField@Gu@physx@@UEBAMMM@Z 000000018000c850 f i GuBounds.obj
 0001:0000b890       ?getHeightInternal2@HeightField@Gu@physx@@QEBAMIMM@Z 000000018000c890 f i GuBounds.obj
 0001:0000ba00       ?getIndexBuffer@ConvexMesh@Gu@physx@@UEBAPEBEXZ 000000018000ca00 f i GuBounds.obj
 0001:0000ba40       ?getNbPolygons@ConvexMesh@Gu@physx@@UEBAIXZ 000000018000ca40 f i GuBounds.obj
 0001:0000ba50       ?getNbRows@HeightField@Gu@physx@@UEBAIXZ 000000018000ca50 f i GuBounds.obj
 0001:0000ba60       ?getNbVertices@ConvexMesh@Gu@physx@@UEBAIXZ 000000018000ca60 f i GuBounds.obj
 0001:0000ba70       ?getSample@HeightField@Gu@physx@@UEBAAEBUPxHeightFieldSample@3@II@Z 000000018000ca70 f i GuBounds.obj
 0001:0000ba80       ?getSampleStride@HeightField@Gu@physx@@UEBAIXZ 000000018000ca80 f i GuBounds.obj
 0001:0000ba90       ?getTimestamp@HeightField@Gu@physx@@UEBAIXZ 000000018000ca90 f i GuBounds.obj
 0001:0000baa0       ?getTransform@Box@Gu@physx@@QEBA?AVPxTransform@3@XZ 000000018000caa0 f i GuBounds.obj
 0001:0000bb00       ?getTriangleMaterialIndex@HeightField@Gu@physx@@UEBAGI@Z 000000018000cb00 f i GuBounds.obj
 0001:0000bb30       ?getTriangleNormal@HeightField@Gu@physx@@UEBA?AVPxVec3@3@I@Z 000000018000cb30 f i GuBounds.obj
 0001:0000bc30       ?getVertices@ConvexMesh@Gu@physx@@UEBAPEBVPxVec3@3@XZ 000000018000cc30 f i GuBounds.obj
 0001:0000bc50       ?isKindOf@PxBase@physx@@MEBA_NPEBD@Z 000000018000cc50 f i GuBounds.obj
 0001:0000bc80       ?isKindOf@PxConvexMesh@physx@@MEBA_NPEBD@Z 000000018000cc80 f i GuBounds.obj
 0001:0000bcd0       ?isKindOf@PxHeightField@physx@@MEBA_NPEBD@Z 000000018000ccd0 f i GuBounds.obj
 0001:0000bd20       ?isReleasable@PxBase@physx@@UEBA_NXZ 000000018000cd20 f i GuBounds.obj
 0001:0000bd30       ?isValid@Box@Gu@physx@@QEBA_NXZ 000000018000cd30 f i GuBounds.obj
 0001:0000bd50       ?preExportDataReset@ConvexMesh@Gu@physx@@QEAAXXZ 000000018000cd50 f i GuBounds.obj
 0001:0000bd50       ?preExportDataReset@HeightField@Gu@physx@@QEAAXXZ 000000018000cd50 f i GuBounds.obj
 0001:0000bd60       ?rotate@Box@Gu@physx@@QEBA?AVPxVec3@3@AEBV43@@Z 000000018000cd60 f i GuBounds.obj
 0001:0000bdf0       ?rotateInv@Box@Gu@physx@@QEBA?AVPxVec3@3@AEBV43@@Z 000000018000cdf0 f i GuBounds.obj
 0001:0000be80       ?setAxes@Box@Gu@physx@@QEAAXAEBVPxVec3@3@00@Z 000000018000ce80 f i GuBounds.obj
 0001:0000bec0       ?setEmpty@Box@Gu@physx@@QEAAXXZ 000000018000cec0 f i GuBounds.obj
 0001:0000bf00       ?transform@Box@Gu@physx@@QEBA?AVPxVec3@3@AEBV43@@Z 000000018000cf00 f i GuBounds.obj
 0001:0000bfa0       ?computeOBBPoints@Gu@physx@@YAXPEIAVPxVec3@2@AEBV32@1111@Z 000000018000cfa0 f   GuBox.obj
 0001:0000c220       ?create@Box@Gu@physx@@QEAAXAEBVCapsule@23@@Z 000000018000d220 f   GuBox.obj
 0001:0000c450       ?getBoxEdges@Gu@physx@@YAPEBEXZ 000000018000d450 f   GuBox.obj
 0001:0000c460       ?computeBasis@shdfnd@physx@@YAXAEBVPxVec3@2@0AEAV32@11@Z 000000018000d460 f i GuCapsule.obj
 0001:0000c600       ?computeBoxAroundCapsule@Gu@physx@@YAXAEBVCapsule@12@AEAVBox@12@@Z 000000018000d600 f   GuCapsule.obj
 0001:0000c750       ??0HeightFieldUtil@Gu@physx@@QEAA@AEBVPxHeightFieldGeometry@2@@Z 000000018000d750 f i GuCCTSweepTests.obj
 0001:0000c750       ??0HeightFieldTraceUtil@Gu@physx@@QEAA@AEBVPxHeightFieldGeometry@2@@Z 000000018000d750 f i GuCCTSweepTests.obj
 0001:0000c790       ??4HeightFieldTraceUtil@Gu@physx@@QEAAAEAV012@$$QEAV012@@Z 000000018000d790 f i GuCCTSweepTests.obj
 0001:0000c790       ??4HeightFieldUtil@Gu@physx@@QEAAAEAV012@AEBV012@@Z 000000018000d790 f i GuCCTSweepTests.obj
 0001:0000c790       ??4HeightFieldTraceUtil@Gu@physx@@QEAAAEAV012@AEBV012@@Z 000000018000d790 f i GuCCTSweepTests.obj
 0001:0000c7b0       ??4HeightFieldUtil@Gu@physx@@QEAAAEAV012@$$QEAV012@@Z 000000018000d7b0 f i GuCCTSweepTests.obj
 0001:0000c7e0       ??_G?$EntityReport@I@Gu@physx@@UEAAPEAXI@Z 000000018000d7e0 f i GuCCTSweepTests.obj
 0001:0000c7e0       ??_E?$EntityReport@I@Gu@physx@@UEAAPEAXI@Z 000000018000d7e0 f i GuCCTSweepTests.obj
 0001:0000c840       ?ceilUp@HeightFieldTraceUtil@Gu@physx@@SAMM@Z 000000018000d840 f i GuCCTSweepTests.obj
 0001:0000c880       ?computePointNormal@HeightFieldUtil@Gu@physx@@QEBA?AVPxVec3@3@IAEBV43@AEBVPxTransform@3@MMMMAEAM@Z 000000018000d880 f i GuCCTSweepTests.obj
 0001:0000cca0       ?floorDown@HeightFieldTraceUtil@Gu@physx@@SAMM@Z 000000018000dca0 f i GuCCTSweepTests.obj
 0001:0000cce0       ?getFeatureIndex@HeightFieldUtil@Gu@physx@@SAII@Z 000000018000dce0 f i GuCCTSweepTests.obj
 0001:0000ccf0       ?getFeatureType@HeightFieldUtil@Gu@physx@@SA?AW4Feature@123@I@Z 000000018000dcf0 f i GuCCTSweepTests.obj
 0001:0000cd00       ?getHeightAtShapePoint@HeightFieldUtil@Gu@physx@@QEBAMMM@Z 000000018000dd00 f i GuCCTSweepTests.obj
 0001:0000cd60       ?getNormalAtShapePoint@HeightFieldUtil@Gu@physx@@QEBA?AVPxVec3@3@MM@Z 000000018000dd60 f i GuCCTSweepTests.obj
 0001:0000ce20       ?getNormal_2@HeightField@Gu@physx@@QEBA?AVPxVec3@3@IMMMMM@Z 000000018000de20 f i GuCCTSweepTests.obj
 0001:0000cf40       ?getOneOverColumnScale@HeightFieldUtil@Gu@physx@@QEBAMXZ 000000018000df40 f i GuCCTSweepTests.obj
 0001:0000cf50       ?getOneOverHeightScale@HeightFieldUtil@Gu@physx@@QEBAMXZ 000000018000df50 f i GuCCTSweepTests.obj
 0001:0000cf60       ?getOneOverRowScale@HeightFieldUtil@Gu@physx@@QEBAMXZ 000000018000df60 f i GuCCTSweepTests.obj
 0001:0000cf70       ?getVertexNormal@HeightFieldUtil@Gu@physx@@QEBA?AVPxVec3@3@I@Z 000000018000df70 f i GuCCTSweepTests.obj
 0001:0000cfb0       ?shape2hfp@HeightFieldUtil@Gu@physx@@QEBA?AVPxVec3@3@AEBV43@@Z 000000018000dfb0 f i GuCCTSweepTests.obj
 0001:0000cfb0       ?hf2shapen@HeightFieldUtil@Gu@physx@@QEBA?AVPxVec3@3@AEBV43@@Z 000000018000dfb0 f i GuCCTSweepTests.obj
 0001:0000cff0       ?hf2shapep@HeightFieldUtil@Gu@physx@@QEBA?AVPxVec3@3@AEBV43@@Z 000000018000dff0 f i GuCCTSweepTests.obj
 0001:0000d030       ?hf2worldn@HeightFieldUtil@Gu@physx@@QEBA?AVPxVec3@3@AEBVPxTransform@3@AEBV43@@Z 000000018000e030 f i GuCCTSweepTests.obj
 0001:0000d1a0       ?hf2worldp@HeightFieldUtil@Gu@physx@@QEBA?AVPxVec3@3@AEBVPxTransform@3@AEBV43@@Z 000000018000e1a0 f i GuCCTSweepTests.obj
 0001:0000d320       ?isCollisionVertex@HeightFieldUtil@Gu@physx@@QEBA_NIII@Z 000000018000e320 f i GuCCTSweepTests.obj
 0001:0000d340       ?isQueryVertex@HeightFieldUtil@Gu@physx@@QEBA_NIII@Z 000000018000e340 f i GuCCTSweepTests.obj
 0001:0000d400       ?isShapePointOnHeightField@HeightFieldUtil@Gu@physx@@QEBA_NMM@Z 000000018000e400 f i GuCCTSweepTests.obj
 0001:0000d450       ?makeFeatureCode@HeightFieldUtil@Gu@physx@@SAIIW4Feature@123@@Z 000000018000e450 f i GuCCTSweepTests.obj
 0001:0000d610       ?sweepBoxTriangles_Precise@Gu@physx@@YA_NIPEBVPxTriangle@2@_NAEBVPxBoxGeometry@2@AEBVPxTransform@2@AEBVPxVec3@2@MAEAUPxSweepHit@2@PEBIMV?$PxFlags@W4Enum@PxHitFlag@physx@@G@2@@Z 000000018000e610 f   GuCCTSweepTests.obj
 0001:0000e390       ?sweepBox_BoxGeom_Precise@@YA_NAEBVPxGeometry@physx@@AEBVPxTransform@2@AEBVPxBoxGeometry@2@1AEBVBox@Gu@2@AEBVPxVec3@2@MAEAUPxSweepHit@2@V?$PxFlags@W4Enum@PxHitFlag@physx@@G@2@M@Z 000000018000f390 f   GuCCTSweepTests.obj
 0001:0000e550       ?sweepBox_CapsuleGeom_Precise@@YA_NAEBVPxGeometry@physx@@AEBVPxTransform@2@AEBVPxBoxGeometry@2@1AEBVBox@Gu@2@AEBVPxVec3@2@MAEAUPxSweepHit@2@V?$PxFlags@W4Enum@PxHitFlag@physx@@G@2@M@Z 000000018000f550 f   GuCCTSweepTests.obj
 0001:0000e920       ?sweepBox_HeightFieldGeom_Precise@@YA_NAEBVPxGeometry@physx@@AEBVPxTransform@2@AEBVPxBoxGeometry@2@1AEBVBox@Gu@2@AEBVPxVec3@2@MAEAUPxSweepHit@2@V?$PxFlags@W4Enum@PxHitFlag@physx@@G@2@M@Z 000000018000f920 f   GuCCTSweepTests.obj
 0001:0000ecf0       ?sweepBox_SphereGeom_Precise@@YA_NAEBVPxGeometry@physx@@AEBVPxTransform@2@AEBVPxBoxGeometry@2@1AEBVBox@Gu@2@AEBVPxVec3@2@MAEAUPxSweepHit@2@V?$PxFlags@W4Enum@PxHitFlag@physx@@G@2@M@Z 000000018000fcf0 f   GuCCTSweepTests.obj
 0001:0000efc0       ?sweepCapsule_BoxGeom_Precise@@YA_NAEBVPxGeometry@physx@@AEBVPxTransform@2@AEBVPxCapsuleGeometry@2@1AEBVCapsule@Gu@2@AEBVPxVec3@2@MAEAUPxSweepHit@2@V?$PxFlags@W4Enum@PxHitFlag@physx@@G@2@M@Z 000000018000ffc0 f   GuCCTSweepTests.obj
 0001:0000f620       ?computePenetration@PxGeometryQuery@physx@@SA_NAEAVPxVec3@2@AEAMAEBVPxGeometry@2@AEBVPxTransform@2@23@Z 0000000180010620 f   GuGeometryQuery.obj
 0001:0000f7a0       ?getWorldBounds@PxGeometryQuery@physx@@SA?AVPxBounds3@2@AEBVPxGeometry@2@AEBVPxTransform@2@M@Z 00000001800107a0 f   GuGeometryQuery.obj
 0001:0000f900       ?isFinite@PxQuat@physx@@QEBA_NXZ 0000000180010900 f i GuGeometryQuery.obj
 0001:0000f970       ?isFinite@PxVec3@physx@@QEBA_NXZ 0000000180010970 f i GuGeometryQuery.obj
 0001:0000f9d0       ?isUnit@PxQuat@physx@@QEBA_NXZ 00000001800109d0 f i GuGeometryQuery.obj
 0001:0000fa40       ?isValid@PxGeometryQuery@physx@@SA_NAEBVPxGeometry@2@@Z 0000000180010a40 f   GuGeometryQuery.obj
 0001:0000fbc0       ?isValid@PxTransform@physx@@QEBA_NXZ 0000000180010bc0 f i GuGeometryQuery.obj
 0001:0000fc30       ?overlap@PxGeometryQuery@physx@@SA_NAEBVPxGeometry@2@AEBVPxTransform@2@01@Z 0000000180010c30 f   GuGeometryQuery.obj
 0001:0000fd80       ?pointDistance@PxGeometryQuery@physx@@SAMAEBVPxVec3@2@AEBVPxGeometry@2@AEBVPxTransform@2@PEAV32@@Z 0000000180010d80 f   GuGeometryQuery.obj
 0001:000104b0       ?raycast@PxGeometryQuery@physx@@SAIAEBVPxVec3@2@0AEBVPxGeometry@2@AEBVPxTransform@2@MV?$PxFlags@W4Enum@PxHitFlag@physx@@G@2@IPEIAUPxRaycastHit@2@@Z 00000001800114b0 f   GuGeometryQuery.obj
 0001:000107c0       ?sweep@PxGeometryQuery@physx@@SA_NAEBVPxVec3@2@MAEBVPxGeometry@2@AEBVPxTransform@2@12AEAUPxSweepHit@2@V?$PxFlags@W4Enum@PxHitFlag@physx@@G@2@M@Z 00000001800117c0 f   GuGeometryQuery.obj
 0001:00010e10       ??0GeometryUnion@Gu@physx@@QEAA@AEBVPxGeometry@2@@Z 0000000180011e10 f i GuGeometryUnion.obj
 0001:00010e30       ??0GeometryUnion@Gu@physx@@QEAA@XZ 0000000180011e30 f i GuGeometryUnion.obj
 0001:00010e40       ??0MaterialIndicesStruct@physx@@QEAA@XZ 0000000180011e40 f i GuGeometryUnion.obj
 0001:00010e60       ??4GeometryUnion@Gu@physx@@QEAAAEAV012@AEBV012@@Z 0000000180011e60 f i GuGeometryUnion.obj
 0001:00010e60       ??4GeometryUnion@Gu@physx@@QEAAAEAV012@$$QEAV012@@Z 0000000180011e60 f i GuGeometryUnion.obj
 0001:00010e90       ?allocate@MaterialIndicesStruct@physx@@QEAAXG@Z 0000000180011e90 f i GuGeometryUnion.obj
 0001:00010f00       ?deallocate@MaterialIndicesStruct@physx@@QEAAXXZ 0000000180011f00 f i GuGeometryUnion.obj
 0001:00010f50       ?getCount@BuildStats@Gu@physx@@QEBAIXZ 0000000180011f50 f i GuAABBTreeBuild.obj
 0001:00010f50       ?getNumAxes@SeparatingAxes@Gu@physx@@QEBAIXZ 0000000180011f50 f i GuMTD.obj
 0001:00010f50       ?getType@GeometryUnion@Gu@physx@@QEBA?AW4Enum@PxGeometryType@3@XZ 0000000180011f50 f i GuGeometryUnion.obj
 0001:00010f60       ?set@GeometryUnion@Gu@physx@@QEAAXAEBVPxGeometry@3@@Z 0000000180011f60 f   GuGeometryUnion.obj
 0001:00011140       ?computeBoundsAroundVertices@Gu@physx@@YAXAEAVPxBounds3@2@IPEIBVPxVec3@2@@Z 0000000180012140 f   GuInternal.obj
 0001:000111f0       ?computeBoxPoints@Gu@physx@@YAXAEBVPxBounds3@2@PEIAVPxVec3@2@@Z 00000001800121f0 f   GuInternal.obj
 0001:00011290       ?computeSweptBox@Gu@physx@@YAXAEAVBox@12@AEBVPxVec3@2@1AEBVPxMat33@2@1M@Z 0000000180012290 f   GuInternal.obj
 0001:000117c0       ?getPlane@Gu@physx@@YA?AVPxPlane@2@AEBVPxTransform@2@@Z 00000001800127c0 f   GuInternal.obj
 0001:00011870       ??$?_UI@@YAPEAX_KV?$ReflectionAllocator@I@shdfnd@physx@@PEBDH@Z 0000000180012870 f i GuMeshFactory.obj
 0001:00011910       ??0GuMeshFactory@physx@@QEAA@XZ 0000000180012910 f   GuMeshFactory.obj
 0001:00011ad0       ??1GuMeshFactory@physx@@MEAA@XZ 0000000180012ad0 f   GuMeshFactory.obj
 0001:00011bc0       ??1MeshDataBase@Gu@physx@@UEAA@XZ 0000000180012bc0 f i GuMeshFactory.obj
 0001:00011cb0       ??1TriangleMeshData@Gu@physx@@UEAA@XZ 0000000180012cb0 f i GuMeshFactory.obj
 0001:00011d80       ??_EGuMeshFactory@physx@@MEAAPEAXI@Z 0000000180012d80 f i GuMeshFactory.obj
 0001:00011e90       ??_GBV4TriangleData@Gu@physx@@UEAAPEAXI@Z 0000000180012e90 f i GuMeshFactory.obj
 0001:00011e90       ??_EBV4TriangleData@Gu@physx@@UEAAPEAXI@Z 0000000180012e90 f i GuMeshFactory.obj
 0001:00011f20       ??_GMeshDataBase@Gu@physx@@UEAAPEAXI@Z 0000000180012f20 f i GuMeshFactory.obj
 0001:00011f20       ??_EMeshDataBase@Gu@physx@@UEAAPEAXI@Z 0000000180012f20 f i GuMeshFactory.obj
 0001:00011f90       ??_GRTreeTriangleData@Gu@physx@@UEAAPEAXI@Z 0000000180012f90 f i GuMeshFactory.obj
 0001:00011f90       ??_ERTreeTriangleData@Gu@physx@@UEAAPEAXI@Z 0000000180012f90 f i GuMeshFactory.obj
 0001:00012040       ??_ETriangleMeshData@Gu@physx@@UEAAPEAXI@Z 0000000180013040 f i GuMeshFactory.obj
 0001:00012040       ??_GTriangleMeshData@Gu@physx@@UEAAPEAXI@Z 0000000180013040 f i GuMeshFactory.obj
 0001:000120b0       ?__global_array_delete@@YAXPEAX_K@Z 00000001800130b0 f i GuMeshFactory.obj
 0001:000120c0       ??_V@YAXPEAX_K@Z           00000001800130c0 f i LIBCMT:delete_array_size.obj
 0001:000120c0       ?__global_delete@@YAXPEAX_K@Z 00000001800130c0 f i GuMeshFactory.obj
 0001:000120d0       ?addBVHStructure@GuMeshFactory@physx@@QEAAXPEAVBVHStructure@Gu@2@_N@Z 00000001800130d0 f   GuMeshFactory.obj
 0001:00012150       ?addConvexMesh@GuMeshFactory@physx@@QEAAXPEAVConvexMesh@Gu@2@_N@Z 0000000180013150 f   GuMeshFactory.obj
 0001:000121d0       ?addFactoryListener@GuMeshFactory@physx@@QEAAXAEAVGuMeshFactoryListener@2@@Z 00000001800131d0 f   GuMeshFactory.obj
 0001:00012240       ?addHeightField@GuMeshFactory@physx@@QEAAXPEAVHeightField@Gu@2@_N@Z 0000000180013240 f   GuMeshFactory.obj
 0001:000122c0       ?addTriangleMesh@GuMeshFactory@physx@@QEAAXPEAVTriangleMesh@Gu@2@_N@Z 00000001800132c0 f   GuMeshFactory.obj
 0001:00012340       ?create@?$HashBase@PEAVBVHStructure@Gu@physx@@PEAV123@U?$Hash@PEAVBVHStructure@Gu@physx@@@shdfnd@3@UGetKey@?$HashSetBase@PEAVBVHStructure@Gu@physx@@U?$Hash@PEAVBVHStructure@Gu@physx@@@shdfnd@3@VNonTrackingAllocator@53@$00@internal@53@VNonTrackingAllocator@53@$00@internal@shdfnd@physx@@QEAAPEAPEAVBVHStructure@Gu@4@AEBQEAV564@AEA_N@Z 0000000180013340 f i GuMeshFactory.obj
 0001:00012340       ?create@?$HashBase@PEAVHeightField@Gu@physx@@PEAV123@U?$Hash@PEAVHeightField@Gu@physx@@@shdfnd@3@UGetKey@?$HashSetBase@PEAVHeightField@Gu@physx@@U?$Hash@PEAVHeightField@Gu@physx@@@shdfnd@3@VNonTrackingAllocator@53@$00@internal@53@VNonTrackingAllocator@53@$00@internal@shdfnd@physx@@QEAAPEAPEAVHeightField@Gu@4@AEBQEAV564@AEA_N@Z 0000000180013340 f i GuMeshFactory.obj
 0001:00012340       ?create@?$HashBase@PEAVConvexMesh@Gu@physx@@PEAV123@U?$Hash@PEAVConvexMesh@Gu@physx@@@shdfnd@3@UGetKey@?$HashSetBase@PEAVConvexMesh@Gu@physx@@U?$Hash@PEAVConvexMesh@Gu@physx@@@shdfnd@3@VNonTrackingAllocator@53@$00@internal@53@VNonTrackingAllocator@53@$00@internal@shdfnd@physx@@QEAAPEAPEAVConvexMesh@Gu@4@AEBQEAV564@AEA_N@Z 0000000180013340 f i GuMeshFactory.obj
 0001:00012340       ?create@?$HashBase@PEAVTriangleMesh@Gu@physx@@PEAV123@U?$Hash@PEAVTriangleMesh@Gu@physx@@@shdfnd@3@UGetKey@?$HashSetBase@PEAVTriangleMesh@Gu@physx@@U?$Hash@PEAVTriangleMesh@Gu@physx@@@shdfnd@3@VNonTrackingAllocator@53@$00@internal@53@VNonTrackingAllocator@53@$00@internal@shdfnd@physx@@QEAAPEAPEAVTriangleMesh@Gu@4@AEBQEAV564@AEA_N@Z 0000000180013340 f i GuMeshFactory.obj
 0001:000124e0       ?createBVHStructure@GuMeshFactory@physx@@IEAAPEAVPxBVHStructure@2@AEAUBVHStructureData@Gu@2@@Z 00000001800134e0 f   GuMeshFactory.obj
 0001:000125f0       ?createBVHStructure@GuMeshFactory@physx@@QEAAPEAVPxBVHStructure@2@AEAVPxInputStream@2@@Z 00000001800135f0 f   GuMeshFactory.obj
 0001:00012730       ?createBVHStructure@GuMeshFactory@physx@@QEAAPEAVPxBVHStructure@2@PEAX@Z 0000000180013730 f   GuMeshFactory.obj
 0001:00012740       ?createConvexMesh@GuMeshFactory@physx@@IEAAPEAVPxConvexMesh@2@AEAUConvexHullInitData@Gu@2@@Z 0000000180013740 f   GuMeshFactory.obj
 0001:00012870       ?createConvexMesh@GuMeshFactory@physx@@QEAAPEAVPxConvexMesh@2@AEAVPxInputStream@2@@Z 0000000180013870 f   GuMeshFactory.obj
 0001:000129d0       ?createConvexMesh@GuMeshFactory@physx@@QEAAPEAVPxConvexMesh@2@PEAX@Z 00000001800139d0 f   GuMeshFactory.obj
 0001:000129e0       ?createHeightField@GuMeshFactory@physx@@QEAAPEAVPxHeightField@2@AEAVPxInputStream@2@@Z 00000001800139e0 f   GuMeshFactory.obj
 0001:00012b30       ?createHeightField@GuMeshFactory@physx@@QEAAPEAVPxHeightField@2@PEAX@Z 0000000180013b30 f   GuMeshFactory.obj
 0001:00012c60       ?createTriangleMesh@GuMeshFactory@physx@@IEAAPEAVPxTriangleMesh@2@AEAVTriangleMeshData@Gu@2@@Z 0000000180013c60 f   GuMeshFactory.obj
 0001:00012e80       ?createTriangleMesh@GuMeshFactory@physx@@QEAAPEAVPxTriangleMesh@2@AEAVPxInputStream@2@@Z 0000000180013e80 f   GuMeshFactory.obj
 0001:00012ee0       ?createTriangleMesh@GuMeshFactory@physx@@QEAAPEAVPxTriangleMesh@2@PEAX@Z 0000000180013ee0 f   GuMeshFactory.obj
 0001:00012ef0       ?erase@?$HashBase@PEAVTriangleMesh@Gu@physx@@PEAV123@U?$Hash@PEAVTriangleMesh@Gu@physx@@@shdfnd@3@UGetKey@?$HashSetBase@PEAVTriangleMesh@Gu@physx@@U?$Hash@PEAVTriangleMesh@Gu@physx@@@shdfnd@3@VNonTrackingAllocator@53@$00@internal@53@VNonTrackingAllocator@53@$00@internal@shdfnd@physx@@QEAA_NAEBQEAVTriangleMesh@Gu@4@@Z 0000000180013ef0 f i GuMeshFactory.obj
 0001:00012ef0       ?erase@?$HashBase@PEAVBVHStructure@Gu@physx@@PEAV123@U?$Hash@PEAVBVHStructure@Gu@physx@@@shdfnd@3@UGetKey@?$HashSetBase@PEAVBVHStructure@Gu@physx@@U?$Hash@PEAVBVHStructure@Gu@physx@@@shdfnd@3@VNonTrackingAllocator@53@$00@internal@53@VNonTrackingAllocator@53@$00@internal@shdfnd@physx@@QEAA_NAEBQEAVBVHStructure@Gu@4@@Z 0000000180013ef0 f i GuMeshFactory.obj
 0001:00012ef0       ?erase@?$HashBase@PEAVConvexMesh@Gu@physx@@PEAV123@U?$Hash@PEAVConvexMesh@Gu@physx@@@shdfnd@3@UGetKey@?$HashSetBase@PEAVConvexMesh@Gu@physx@@U?$Hash@PEAVConvexMesh@Gu@physx@@@shdfnd@3@VNonTrackingAllocator@53@$00@internal@53@VNonTrackingAllocator@53@$00@internal@shdfnd@physx@@QEAA_NAEBQEAVConvexMesh@Gu@4@@Z 0000000180013ef0 f i GuMeshFactory.obj
 0001:00012ef0       ?erase@?$HashBase@PEAVHeightField@Gu@physx@@PEAV123@U?$Hash@PEAVHeightField@Gu@physx@@@shdfnd@3@UGetKey@?$HashSetBase@PEAVHeightField@Gu@physx@@U?$Hash@PEAVHeightField@Gu@physx@@@shdfnd@3@VNonTrackingAllocator@53@$00@internal@53@VNonTrackingAllocator@53@$00@internal@shdfnd@physx@@QEAA_NAEBQEAVHeightField@Gu@4@@Z 0000000180013ef0 f i GuMeshFactory.obj
 0001:00013060       ?getBVHStructures@GuMeshFactory@physx@@QEBAIPEAPEAVPxBVHStructure@2@II@Z 0000000180014060 f   GuMeshFactory.obj
 0001:00013100       ?getConvexMeshes@GuMeshFactory@physx@@QEBAIPEAPEAVPxConvexMesh@2@II@Z 0000000180014100 f   GuMeshFactory.obj
 0001:00013190       ?getHeightFields@GuMeshFactory@physx@@QEBAIPEAPEAVPxHeightField@2@II@Z 0000000180014190 f   GuMeshFactory.obj
 0001:00013230       ?getNbBVHStructures@GuMeshFactory@physx@@QEBAIXZ 0000000180014230 f   GuMeshFactory.obj
 0001:00013270       ?getNbConvexMeshes@GuMeshFactory@physx@@QEBAIXZ 0000000180014270 f   GuMeshFactory.obj
 0001:000132b0       ?getNbHeightFields@GuMeshFactory@physx@@QEBAIXZ 00000001800142b0 f   GuMeshFactory.obj
 0001:000132f0       ?getNbTriangleMeshes@GuMeshFactory@physx@@QEBAIXZ 00000001800142f0 f   GuMeshFactory.obj
 0001:00013330       ?getTriangleMeshes@GuMeshFactory@physx@@QEBAIPEAPEAVPxTriangleMesh@2@II@Z 0000000180014330 f   GuMeshFactory.obj
 0001:000133c0       ?growAndPushBack@?$Array@PEAVGuMeshFactoryListener@physx@@VNamedAllocator@shdfnd@2@@shdfnd@physx@@IEAAAEAPEAVGuMeshFactoryListener@3@AEBQEAV43@@Z 00000001800143c0 f i GuMeshFactory.obj
 0001:00014330       ?notifyFactoryListener@GuMeshFactory@physx@@QEAAXPEBVPxBase@2@G@Z 0000000180015330 f   GuMeshFactory.obj
 0001:000143a0       ?release@GuMeshFactory@physx@@QEAAXXZ 00000001800153a0 f   GuMeshFactory.obj
 0001:00014440       ?removeBVHStructure@GuMeshFactory@physx@@QEAA_NAEAVPxBVHStructure@2@@Z 0000000180015440 f   GuMeshFactory.obj
 0001:00014490       ?removeConvexMesh@GuMeshFactory@physx@@QEAA_NAEAVPxConvexMesh@2@@Z 0000000180015490 f   GuMeshFactory.obj
 0001:000144e0       ?removeFactoryListener@GuMeshFactory@physx@@QEAAXAEAVGuMeshFactoryListener@2@@Z 00000001800154e0 f   GuMeshFactory.obj
 0001:00014570       ?removeHeightField@GuMeshFactory@physx@@QEAA_NAEAVPxHeightField@2@@Z 0000000180015570 f   GuMeshFactory.obj
 0001:000145c0       ?removeTriangleMesh@GuMeshFactory@physx@@QEAA_NAEAVPxTriangleMesh@2@@Z 00000001800155c0 f   GuMeshFactory.obj
 0001:00014610       ?reserveInternal@?$HashBase@PEAVHeightField@Gu@physx@@PEAV123@U?$Hash@PEAVHeightField@Gu@physx@@@shdfnd@3@UGetKey@?$HashSetBase@PEAVHeightField@Gu@physx@@U?$Hash@PEAVHeightField@Gu@physx@@@shdfnd@3@VNonTrackingAllocator@53@$00@internal@53@VNonTrackingAllocator@53@$00@internal@shdfnd@physx@@AEAAXI@Z 0000000180015610 f i GuMeshFactory.obj
 0001:00014610       ?reserveInternal@?$HashBase@PEAVBVHStructure@Gu@physx@@PEAV123@U?$Hash@PEAVBVHStructure@Gu@physx@@@shdfnd@3@UGetKey@?$HashSetBase@PEAVBVHStructure@Gu@physx@@U?$Hash@PEAVBVHStructure@Gu@physx@@@shdfnd@3@VNonTrackingAllocator@53@$00@internal@53@VNonTrackingAllocator@53@$00@internal@shdfnd@physx@@AEAAXI@Z 0000000180015610 f i GuMeshFactory.obj
 0001:00014610       ?reserveInternal@?$HashBase@PEAVConvexMesh@Gu@physx@@PEAV123@U?$Hash@PEAVConvexMesh@Gu@physx@@@shdfnd@3@UGetKey@?$HashSetBase@PEAVConvexMesh@Gu@physx@@U?$Hash@PEAVConvexMesh@Gu@physx@@@shdfnd@3@VNonTrackingAllocator@53@$00@internal@53@VNonTrackingAllocator@53@$00@internal@shdfnd@physx@@AEAAXI@Z 0000000180015610 f i GuMeshFactory.obj
 0001:00014610       ?reserveInternal@?$HashBase@PEAVTriangleMesh@Gu@physx@@PEAV123@U?$Hash@PEAVTriangleMesh@Gu@physx@@@shdfnd@3@UGetKey@?$HashSetBase@PEAVTriangleMesh@Gu@physx@@U?$Hash@PEAVTriangleMesh@Gu@physx@@@shdfnd@3@VNonTrackingAllocator@53@$00@internal@53@VNonTrackingAllocator@53@$00@internal@shdfnd@physx@@AEAAXI@Z 0000000180015610 f i GuMeshFactory.obj
 0001:000147e0       ??4BigConvexData@physx@@QEAAAEAV01@AEBV01@@Z 00000001800157e0 f i GuMetaData.obj
 0001:00014800       ?GetAdjacentVerts@BigConvexData@physx@@QEBAPEBEXZ 0000000180015800 f i GuMetaData.obj
 0001:00014810       ?GetNbNeighbors@BigConvexData@physx@@QEBAGI@Z 0000000180015810 f i GuMetaData.obj
 0001:00014810       ?GetValency@BigConvexData@physx@@QEBAGI@Z 0000000180015810 f i GuMetaData.obj
 0001:00014820       ?GetNbSamples@BigConvexData@physx@@QEBAIXZ 0000000180015820 f i GuMetaData.obj
 0001:00014830       ?length@pcharNode@@UEBAHXZ 0000000180015830 f i libvcruntime:undname.obj
 0001:00014830       ?GetNbVerts@BigConvexData@physx@@QEBAIXZ 0000000180015830 f i GuMetaData.obj
 0001:00014830       ?raw_length@pcharNode@@UEBAHXZ 0000000180015830 f i libvcruntime:undname.obj
 0001:00014840       ?GetNeighbors@BigConvexData@physx@@QEBAPEBEI@Z 0000000180015840 f i GuMetaData.obj
 0001:00014850       ?GetOffset@BigConvexData@physx@@QEBAGI@Z 0000000180015850 f i GuMetaData.obj
 0001:00014860       ?GetSubdiv@BigConvexData@physx@@QEBAIXZ 0000000180015860 f i GuMetaData.obj
 0001:00014870       ?getBinaryMetaData@BV4Tree@Gu@physx@@SAXAEAVPxOutputStream@3@@Z 0000000180015870 f   GuMetaData.obj
 0001:00014c00       ?getBinaryMetaData@BV4TriangleMesh@Gu@physx@@SAXAEAVPxOutputStream@3@@Z 0000000180015c00 f   GuMetaData.obj
 0001:00014ee0       ?getBinaryMetaData@BigConvexData@physx@@SAXAEAVPxOutputStream@2@@Z 0000000180015ee0 f   GuMetaData.obj
 0001:000151a0       ?getBinaryMetaData@ConvexMesh@Gu@physx@@SAXAEAVPxOutputStream@3@@Z 00000001800161a0 f   GuMetaData.obj
 0001:00015830       ?getBinaryMetaData@GeometryUnion@Gu@physx@@SAXAEAVPxOutputStream@3@@Z 0000000180016830 f   GuMetaData.obj
 0001:00015e80       ?getBinaryMetaData@HeightField@Gu@physx@@SAXAEAVPxOutputStream@3@@Z 0000000180016e80 f   GuMetaData.obj
 0001:000162b0       ?getBinaryMetaData@MaterialIndicesStruct@physx@@SAXAEAVPxOutputStream@2@@Z 00000001800172b0 f   GuMetaData.obj
 0001:00016450       ?getBinaryMetaData@RTree@Gu@physx@@SAXAEAVPxOutputStream@3@@Z 0000000180017450 f   GuMetaData.obj
 0001:00016780       ?getBinaryMetaData@RTreeTriangleMesh@Gu@physx@@SAXAEAVPxOutputStream@3@@Z 0000000180017780 f   GuMetaData.obj
 0001:00017020       ?getBinaryMetaData@TriangleMesh@Gu@physx@@SAXAEAVPxOutputStream@3@@Z 0000000180018020 f   GuMetaData.obj
 0001:00018490       ?doSupport@?$SupportLocalImpl@VConvexHullV@Gu@physx@@@Gu@physx@@UEBA?AT__m128@@AEBT4@@Z 0000000180019490 f i GuMTD.obj
 0001:00018570       ?doSupport@?$SupportLocalImpl@VConvexHullV@Gu@physx@@@Gu@physx@@UEBAXAEBT__m128@@AEAT4@1@Z 0000000180019570 f i GuMTD.obj
 0001:000188d0       ?populateVerts@?$SupportLocalImpl@VConvexHullV@Gu@physx@@@Gu@physx@@UEBAXPEBEIPEBVPxVec3@3@PEAT__m128@@@Z 00000001800198d0 f i GuMTD.obj
 0001:00018930       ??_G?$SupportLocalImpl@VTriangleV@Gu@physx@@@Gu@physx@@UEAAPEAXI@Z 0000000180019930 f i GuPCMContactConvexCommon.obj
 0001:00018930       ??_G?$SupportLocalImpl@VBoxV@Gu@physx@@@Gu@physx@@UEAAPEAXI@Z 0000000180019930 f i GuMTD.obj
 0001:00018930       ??_E?$SupportLocalImpl@VBoxV@Gu@physx@@@Gu@physx@@UEAAPEAXI@Z 0000000180019930 f i GuMTD.obj
 0001:00018930       ??_G?$SupportLocalImpl@VConvexHullV@Gu@physx@@@Gu@physx@@UEAAPEAXI@Z 0000000180019930 f i GuMTD.obj
 0001:00018930       ??_E?$SupportLocalImpl@VTriangleV@Gu@physx@@@Gu@physx@@UEAAPEAXI@Z 0000000180019930 f i GuPCMContactConvexCommon.obj
 0001:00018930       ??_E?$SupportLocalImpl@VConvexHullV@Gu@physx@@@Gu@physx@@UEAAPEAXI@Z 0000000180019930 f i GuMTD.obj
 0001:00018930       ??_E?$SupportLocalImpl@VConvexHullNoScaleV@Gu@physx@@@Gu@physx@@UEAAPEAXI@Z 0000000180019930 f i GuMTD.obj
 0001:00018930       ??_G?$SupportLocalImpl@VConvexHullNoScaleV@Gu@physx@@@Gu@physx@@UEAAPEAXI@Z 0000000180019930 f i GuMTD.obj
 0001:00018960       ?doSupport@?$SupportLocalImpl@VConvexHullNoScaleV@Gu@physx@@@Gu@physx@@UEBA?AT__m128@@AEBT4@@Z 0000000180019960 f i GuMTD.obj
 0001:000189b0       ?doSupport@?$SupportLocalImpl@VConvexHullNoScaleV@Gu@physx@@@Gu@physx@@UEBAXAEBT__m128@@AEAT4@1@Z 00000001800199b0 f i GuMTD.obj
 0001:00018b30       ?populateVerts@?$SupportLocalImpl@VConvexHullNoScaleV@Gu@physx@@@Gu@physx@@UEBAXPEBEIPEBVPxVec3@3@PEAT__m128@@@Z 0000000180019b30 f i GuMTD.obj
 0001:00018b30       ?populateVerts@?$SupportLocalImpl@VBoxV@Gu@physx@@@Gu@physx@@UEBAXPEBEIPEBVPxVec3@3@PEAT__m128@@@Z 0000000180019b30 f i GuMTD.obj
 0001:00018b70       ?doSupport@?$SupportLocalImpl@VBoxV@Gu@physx@@@Gu@physx@@UEBA?AT__m128@@AEBT4@@Z 0000000180019b70 f i GuMTD.obj
 0001:00018ba0       ?doSupport@?$SupportLocalImpl@VBoxV@Gu@physx@@@Gu@physx@@UEBAXAEBT__m128@@AEAT4@1@Z 0000000180019ba0 f i GuMTD.obj
 0001:00018ce0       ??_ESupportLocal@Gu@physx@@UEAAPEAXI@Z 0000000180019ce0 f i GuMTD.obj
 0001:00018ce0       ??_GSupportLocal@Gu@physx@@UEAAPEAXI@Z 0000000180019ce0 f i GuMTD.obj
 0001:0001a9c0       ??$gjk@U?$LocalConvex@VCapsuleV@Gu@physx@@@Gu@physx@@U?$LocalConvex@VConvexHullV@Gu@physx@@@23@@Gu@physx@@YA?AW4GjkStatus@01@AEBU?$LocalConvex@VCapsuleV@Gu@physx@@@01@AEBU?$LocalConvex@VConvexHullV@Gu@physx@@@01@AEBT__m128@@2AEAT5@333@Z 000000018001b9c0 f i GuMTD.obj
 0001:0001b730       ??0MultiplePersistentContactManifold@Gu@physx@@QEAA@XZ 000000018001c730 f i GuMTD.obj
 0001:0001b780       ??0PolygonalBox@Gu@physx@@QEAA@AEBV012@@Z 000000018001c780 f i GuMTD.obj
 0001:0001ba00       ??0SeparatingAxes@Gu@physx@@QEAA@$$QEAV012@@Z 000000018001ca00 f i GuMTD.obj
 0001:0001ba00       ??0SeparatingAxes@Gu@physx@@QEAA@AEBV012@@Z 000000018001ca00 f i GuMTD.obj
 0001:0001bb10       ??0SeparatingAxes@Gu@physx@@QEAA@XZ 000000018001cb10 f i GuMTD.obj
 0001:0001bb20       ??4MultiplePersistentContactManifold@Gu@physx@@QEAAAEAV012@$$QEAV012@@Z 000000018001cb20 f i GuMTD.obj
 0001:0001be30       ??4MultiplePersistentContactManifold@Gu@physx@@QEAAAEAV012@AEBV012@@Z 000000018001ce30 f i GuMTD.obj
 0001:0001be50       ??4SeparatingAxes@Gu@physx@@QEAAAEAV012@$$QEAV012@@Z 000000018001ce50 f i GuMTD.obj
 0001:0001be50       ??4SeparatingAxes@Gu@physx@@QEAAAEAV012@AEBV012@@Z 000000018001ce50 f i GuMTD.obj
 0001:0001bf60       ??_E?$LocalConvex@VConvexHullNoScaleV@Gu@physx@@@Gu@physx@@UEAAPEAXI@Z 000000018001cf60 f i GuPCMContactBoxConvex.obj
 0001:0001bf60       ??_G?$LocalConvex@VCapsuleV@Gu@physx@@@Gu@physx@@UEAAPEAXI@Z 000000018001cf60 f i GuMTD.obj
 0001:0001bf60       ??_E?$LocalConvex@VConvexHullV@Gu@physx@@@Gu@physx@@UEAAPEAXI@Z 000000018001cf60 f i GuMTD.obj
 0001:0001bf60       ??_E?$LocalConvex@VBoxV@Gu@physx@@@Gu@physx@@UEAAPEAXI@Z 000000018001cf60 f i GuSweepTests.obj
 0001:0001bf60       ??_E?$LocalConvex@VCapsuleV@Gu@physx@@@Gu@physx@@UEAAPEAXI@Z 000000018001cf60 f i GuMTD.obj
 0001:0001bf60       ??_G?$LocalConvex@VConvexHullNoScaleV@Gu@physx@@@Gu@physx@@UEAAPEAXI@Z 000000018001cf60 f i GuPCMContactBoxConvex.obj
 0001:0001bf60       ??_GGjkConvexBase@Gu@physx@@UEAAPEAXI@Z 000000018001cf60 f i GuMTD.obj
 0001:0001bf60       ??_E?$LocalConvex@VTriangleV@Gu@physx@@@Gu@physx@@UEAAPEAXI@Z 000000018001cf60 f i GuSweepTests.obj
 0001:0001bf60       ??_EGjkConvexBase@Gu@physx@@UEAAPEAXI@Z 000000018001cf60 f i GuMTD.obj
 0001:0001bf60       ??_G?$LocalConvex@VConvexHullV@Gu@physx@@@Gu@physx@@UEAAPEAXI@Z 000000018001cf60 f i GuMTD.obj
 0001:0001bf60       ??_G?$LocalConvex@VTriangleV@Gu@physx@@@Gu@physx@@UEAAPEAXI@Z 000000018001cf60 f i GuSweepTests.obj
 0001:0001bf60       ??_G?$LocalConvex@VBoxV@Gu@physx@@@Gu@physx@@UEAAPEAXI@Z 000000018001cf60 f i GuSweepTests.obj
 0001:0001c6f0       ?clearManifold@MultiplePersistentContactManifold@Gu@physx@@QEAAXXZ 000000018001d6f0 f i GuMTD.obj
 0001:000202f0       ?getAxes@SeparatingAxes@Gu@physx@@QEBAPEBVPxVec3@3@XZ 00000001800212f0 f i GuMTD.obj
 0001:00020300       ?getCenter@?$LocalConvex@VConvexHullV@Gu@physx@@@Gu@physx@@UEBA?AT__m128@@XZ 0000000180021300 f i GuMTD.obj
 0001:00020300       ?getCenter@?$LocalConvex@VTriangleV@Gu@physx@@@Gu@physx@@UEBA?AT__m128@@XZ 0000000180021300 f i GuSweepTests.obj
 0001:00020300       ?getCenter@?$LocalConvex@VCapsuleV@Gu@physx@@@Gu@physx@@UEBA?AT__m128@@XZ 0000000180021300 f i GuMTD.obj
 0001:00020300       ?getCenter@?$LocalConvex@VConvexHullNoScaleV@Gu@physx@@@Gu@physx@@UEBA?AT__m128@@XZ 0000000180021300 f i GuPCMContactBoxConvex.obj
 0001:00020300       ?getCenter@?$LocalConvex@VBoxV@Gu@physx@@@Gu@physx@@UEBA?AT__m128@@XZ 0000000180021300 f i GuSweepTests.obj
 0001:00020310       ?getEmptyManifold@MultiplePersistentContactManifold@Gu@physx@@QEAAPEAVSinglePersistentContactManifold@23@XZ 0000000180021310 f i GuMTD.obj
 0001:00020330       ?getManifold@MultiplePersistentContactManifold@Gu@physx@@QEAAPEAVSinglePersistentContactManifold@23@I@Z 0000000180021330 f i GuMTD.obj
 0001:00020350       ?getSweepMargin@?$RelativeConvex@VCapsuleV@Gu@physx@@@Gu@physx@@UEBA?AT__m128@@XZ 0000000180021350 f i GuCCDSweepPrimitives.obj
 0001:00020350       ?getSweepMargin@?$LocalConvex@VCapsuleV@Gu@physx@@@Gu@physx@@UEBA?AT__m128@@XZ 0000000180021350 f i GuMTD.obj
 0001:00020360       ?getSweepMargin@?$RelativeConvex@VConvexHullV@Gu@physx@@@Gu@physx@@UEBA?AT__m128@@XZ 0000000180021360 f i GuOverlapTests.obj
 0001:00020360       ?getSweepMargin@?$RelativeConvex@VBoxV@Gu@physx@@@Gu@physx@@UEBA?AT__m128@@XZ 0000000180021360 f i GuOverlapTests.obj
 0001:00020360       ?getSweepMargin@?$RelativeConvex@VConvexHullNoScaleV@Gu@physx@@@Gu@physx@@UEBA?AT__m128@@XZ 0000000180021360 f i GuPCMContactConvexConvex.obj
 0001:00020360       ?getSweepMargin@?$LocalConvex@VConvexHullNoScaleV@Gu@physx@@@Gu@physx@@UEBA?AT__m128@@XZ 0000000180021360 f i GuPCMContactBoxConvex.obj
 0001:00020360       ?getSweepMargin@?$LocalConvex@VBoxV@Gu@physx@@@Gu@physx@@UEBA?AT__m128@@XZ 0000000180021360 f i GuSweepTests.obj
 0001:00020360       ?getSweepMargin@?$LocalConvex@VConvexHullV@Gu@physx@@@Gu@physx@@UEBA?AT__m128@@XZ 0000000180021360 f i GuMTD.obj
 0001:00020380       ?hillClimbing@ConvexHullV@Gu@physx@@QEBAIAEBT__m128@@@Z 0000000180021380 f i GuMTD.obj
 0001:000205b0       ?initialize@MultiplePersistentContactManifold@Gu@physx@@QEAAXXZ 00000001800215b0 f i GuMTD.obj
 0001:00020610       ?invalidate@MultiplePersistentContactManifold@Gu@physx@@QEAAIAEBVPsTransformV@aos@shdfnd@3@AEBT__m128@@1@Z 0000000180021610 f i GuMTD.obj
 0001:00020690       ?invalidate@MultiplePersistentContactManifold@Gu@physx@@QEAAIAEBVPsTransformV@aos@shdfnd@3@AEBT__m128@@@Z 0000000180021690 f i GuMTD.obj
 0001:00020710       ?maxTransformPositionDelta@MultiplePersistentContactManifold@Gu@physx@@QEAA?AT__m128@@AEBT4@@Z 0000000180021710 f i GuMTD.obj
 0001:00020750       ?maxTransformQuatDelta@MultiplePersistentContactManifold@Gu@physx@@QEAA?AT__m128@@AEBT4@@Z 0000000180021750 f i GuMTD.obj
 0001:00020790       ?pointConvexDistance@@YA_NAEAVPxVec3@physx@@0AEAMAEBV12@PEBVConvexMesh@Gu@2@AEBVPxMeshScale@2@AEBVPxTransform@2@@Z 0000000180021790 f   GuMTD.obj
 0001:00021550       ?reduceManifoldContactsInDifferentPatches@MultiplePersistentContactManifold@Gu@physx@@QEAAIPEAPEAUPCMContactPatch@23@IPEAVMeshPersistentContact@23@IAEBT__m128@@@Z 0000000180022550 f i GuMTD.obj
 0001:000216b0       ?refineContactPatchConnective@MultiplePersistentContactManifold@Gu@physx@@QEAAXPEAPEAUPCMContactPatch@23@IPEAVMeshPersistentContact@23@AEBT__m128@@@Z 00000001800226b0 f i GuMTD.obj
 0001:000217a0       ?refreshManifold@MultiplePersistentContactManifold@Gu@physx@@QEAAXAEBVPsMatTransformV@aos@shdfnd@3@AEBT__m128@@1@Z 00000001800227a0 f i GuMTD.obj
 0001:000218a0       ?reset@SeparatingAxes@Gu@physx@@QEAAXXZ 00000001800228a0 f i GuMTD.obj
 0001:000218b0       ?setRelativeTransform@MultiplePersistentContactManifold@Gu@physx@@QEAAXAEBVPsTransformV@aos@shdfnd@3@@Z 00000001800228b0 f i GuMTD.obj
 0001:000218c0       ?support@?$LocalConvex@VCapsuleV@Gu@physx@@@Gu@physx@@UEBA?AT__m128@@AEBT4@@Z 00000001800228c0 f i GuMTD.obj
 0001:00021920       ?support@?$LocalConvex@VCapsuleV@Gu@physx@@@Gu@physx@@UEBA?AT__m128@@AEBT4@AEAH@Z 0000000180022920 f i GuMTD.obj
 0001:00021990       ?support@?$LocalConvex@VConvexHullV@Gu@physx@@@Gu@physx@@UEBA?AT__m128@@AEBT4@@Z 0000000180022990 f i GuMTD.obj
 0001:00021a70       ?support@?$LocalConvex@VConvexHullV@Gu@physx@@@Gu@physx@@UEBA?AT__m128@@AEBT4@AEAH@Z 0000000180022a70 f i GuMTD.obj
 0001:00021b40       ?supportPoint@?$LocalConvex@VCapsuleV@Gu@physx@@@Gu@physx@@UEBA?AT__m128@@H@Z 0000000180022b40 f i GuMTD.obj
 0001:00021b70       ?supportPoint@?$LocalConvex@VConvexHullV@Gu@physx@@@Gu@physx@@UEBA?AT__m128@@H@Z 0000000180022b70 f i GuMTD.obj
 0001:00021bc0       ?supportVertexIndex@ConvexHullV@Gu@physx@@QEBAIAEBT__m128@@@Z 0000000180022bc0 f i GuMTD.obj
 0001:00021e40       ?toBuffer@MultiplePersistentContactManifold@Gu@physx@@QEAAXPEIAE@Z 0000000180022e40 f i GuMTD.obj
 0001:00021f20       ?supportPoint@?$RelativeConvex@VBoxV@Gu@physx@@@Gu@physx@@UEBA?AT__m128@@H@Z 0000000180022f20 f i GuOverlapTests.obj
 0001:00021f90       ?support@?$RelativeConvex@VBoxV@Gu@physx@@@Gu@physx@@UEBA?AT__m128@@AEBT4@@Z 0000000180022f90 f i GuOverlapTests.obj
 0001:00022010       ?support@?$RelativeConvex@VBoxV@Gu@physx@@@Gu@physx@@UEBA?AT__m128@@AEBT4@AEAH@Z 0000000180023010 f i GuOverlapTests.obj
 0001:000220a0       ?getCenter@?$RelativeConvex@VCapsuleV@Gu@physx@@@Gu@physx@@UEBA?AT__m128@@XZ 00000001800230a0 f i GuCCDSweepPrimitives.obj
 0001:000220a0       ?getCenter@?$RelativeConvex@VTriangleV@Gu@physx@@@Gu@physx@@UEBA?AT__m128@@XZ 00000001800230a0 f i GuCCDSweepPrimitives.obj
 0001:000220a0       ?getCenter@?$RelativeConvex@VConvexHullV@Gu@physx@@@Gu@physx@@UEBA?AT__m128@@XZ 00000001800230a0 f i GuOverlapTests.obj
 0001:000220a0       ?getCenter@?$RelativeConvex@VConvexHullNoScaleV@Gu@physx@@@Gu@physx@@UEBA?AT__m128@@XZ 00000001800230a0 f i GuPCMContactConvexConvex.obj
 0001:000220a0       ?getCenter@?$RelativeConvex@VBoxV@Gu@physx@@@Gu@physx@@UEBA?AT__m128@@XZ 00000001800230a0 f i GuOverlapTests.obj
 0001:000220e0       ??_E?$RelativeConvex@VTriangleV@Gu@physx@@@Gu@physx@@UEAAPEAXI@Z 00000001800230e0 f i GuCCDSweepPrimitives.obj
 0001:000220e0       ??_G?$RelativeConvex@VTriangleV@Gu@physx@@@Gu@physx@@UEAAPEAXI@Z 00000001800230e0 f i GuCCDSweepPrimitives.obj
 0001:000220e0       ??_G?$RelativeConvex@VCapsuleV@Gu@physx@@@Gu@physx@@UEAAPEAXI@Z 00000001800230e0 f i GuCCDSweepPrimitives.obj
 0001:000220e0       ??_E?$RelativeConvex@VBoxV@Gu@physx@@@Gu@physx@@UEAAPEAXI@Z 00000001800230e0 f i GuOverlapTests.obj
 0001:000220e0       ??_E?$RelativeConvex@VCapsuleV@Gu@physx@@@Gu@physx@@UEAAPEAXI@Z 00000001800230e0 f i GuCCDSweepPrimitives.obj
 0001:000220e0       ??_G?$RelativeConvex@VBoxV@Gu@physx@@@Gu@physx@@UEAAPEAXI@Z 00000001800230e0 f i GuOverlapTests.obj
 0001:000220e0       ??_E?$RelativeConvex@VConvexHullNoScaleV@Gu@physx@@@Gu@physx@@UEAAPEAXI@Z 00000001800230e0 f i GuPCMContactConvexConvex.obj
 0001:000220e0       ??_G?$RelativeConvex@VConvexHullNoScaleV@Gu@physx@@@Gu@physx@@UEAAPEAXI@Z 00000001800230e0 f i GuPCMContactConvexConvex.obj
 0001:000220e0       ??_E?$RelativeConvex@VConvexHullV@Gu@physx@@@Gu@physx@@UEAAPEAXI@Z 00000001800230e0 f i GuOverlapTests.obj
 0001:000220e0       ??_G?$RelativeConvex@VConvexHullV@Gu@physx@@@Gu@physx@@UEAAPEAXI@Z 00000001800230e0 f i GuOverlapTests.obj
 0001:000242a0       ?supportPoint@?$RelativeConvex@VConvexHullV@Gu@physx@@@Gu@physx@@UEBA?AT__m128@@H@Z 00000001800252a0 f i GuOverlapTests.obj
 0001:00024320       ?support@?$RelativeConvex@VConvexHullV@Gu@physx@@@Gu@physx@@UEBA?AT__m128@@AEBT4@@Z 0000000180025320 f i GuOverlapTests.obj
 0001:00024450       ?support@?$RelativeConvex@VConvexHullV@Gu@physx@@@Gu@physx@@UEBA?AT__m128@@AEBT4@AEAH@Z 0000000180025450 f i GuOverlapTests.obj
 0001:000245b0       ??$gjk@U?$RelativeConvex@VBoxV@Gu@physx@@@Gu@physx@@U?$LocalConvex@VConvexHullV@Gu@physx@@@23@@Gu@physx@@YA?AW4GjkStatus@01@AEBU?$RelativeConvex@VBoxV@Gu@physx@@@01@AEBU?$LocalConvex@VConvexHullV@Gu@physx@@@01@AEBT__m128@@2AEAT5@333@Z 00000001800255b0 f i GuOverlapTests.obj
 0001:00025370       ??$gjk@U?$RelativeConvex@VConvexHullV@Gu@physx@@@Gu@physx@@U?$LocalConvex@VConvexHullV@Gu@physx@@@23@@Gu@physx@@YA?AW4GjkStatus@01@AEBU?$RelativeConvex@VConvexHullV@Gu@physx@@@01@AEBU?$LocalConvex@VConvexHullV@Gu@physx@@@01@AEBT__m128@@2AEAT5@333@Z 0000000180026370 f i GuOverlapTests.obj
 0001:00026200       ?ComputeCubemapNearestOffset@physx@@YAIAEBVPxVec3@1@I@Z 0000000180027200 f i GuOverlapTests.obj
 0001:00026300       ?getOverlapFuncTable@Gu@physx@@YAPEAY06Q6A_NAEBVPxGeometry@2@AEBVPxTransform@2@01PEAUTriggerCache@12@@ZXZ 0000000180027300 f   GuOverlapTests.obj
 0001:00027d90       ?registerHeightFields@Gu@physx@@YAXXZ 0000000180028d90 f   GuOverlapTests.obj
 0001:00027de0       ?raycast_box@@YAIAEBVPxGeometry@physx@@AEBVPxTransform@2@AEBVPxVec3@2@2MV?$PxFlags@W4Enum@PxHitFlag@physx@@G@2@IPEIAUPxRaycastHit@2@@Z 0000000180028de0 f   GuRaycastTests.obj
 0001:00028410       ?raycast_sphere@@YAIAEBVPxGeometry@physx@@AEBVPxTransform@2@AEBVPxVec3@2@2MV?$PxFlags@W4Enum@PxHitFlag@physx@@G@2@IPEIAUPxRaycastHit@2@@Z 0000000180029410 f   GuRaycastTests.obj
 0001:000285a0       ?raycast_capsule@@YAIAEBVPxGeometry@physx@@AEBVPxTransform@2@AEBVPxVec3@2@2MV?$PxFlags@W4Enum@PxHitFlag@physx@@G@2@IPEIAUPxRaycastHit@2@@Z 00000001800295a0 f   GuRaycastTests.obj
 0001:00028b00       ?raycast_plane@@YAIAEBVPxGeometry@physx@@AEBVPxTransform@2@AEBVPxVec3@2@2MV?$PxFlags@W4Enum@PxHitFlag@physx@@G@2@IPEIAUPxRaycastHit@2@@Z 0000000180029b00 f   GuRaycastTests.obj
 0001:00028c70       ?raycast_convexMesh@@YAIAEBVPxGeometry@physx@@AEBVPxTransform@2@AEBVPxVec3@2@2MV?$PxFlags@W4Enum@PxHitFlag@physx@@G@2@IPEIAUPxRaycastHit@2@@Z 0000000180029c70 f   GuRaycastTests.obj
 0001:000297a0       ?raycast_triangleMesh@@YAIAEBVPxGeometry@physx@@AEBVPxTransform@2@AEBVPxVec3@2@2MV?$PxFlags@W4Enum@PxHitFlag@physx@@G@2@IPEIAUPxRaycastHit@2@@Z 000000018002a7a0 f   GuRaycastTests.obj
 0001:0002aac0       ??Dphysx@@YA?AVMatrix34@Cm@0@AEBVPxMeshScale@0@AEBVPxTransform@0@@Z 000000018002bac0 f i GuRaycastTests.obj
 0001:0002b700       ?getRaycastFuncTable@Gu@physx@@YAAEAY06Q6AIAEBVPxGeometry@2@AEBVPxTransform@2@AEBVPxVec3@2@2MV?$PxFlags@W4Enum@PxHitFlag@physx@@G@2@IPEIAUPxRaycastHit@2@@ZXZ 000000018002c700 f   GuRaycastTests.obj
 0001:0002b710       ?raycast_heightField@@YAIAEBVPxGeometry@physx@@AEBVPxTransform@2@AEBVPxVec3@2@2MV?$PxFlags@W4Enum@PxHitFlag@physx@@G@2@IPEIAUPxRaycastHit@2@@Z 000000018002c710 f   GuRaycastTests.obj
 0001:0002be50       ?registerHeightFields_Raycasts@@YAXXZ 000000018002ce50 f   GuRaycastTests.obj
 0001:0002be60       ?ReadHeader@Gu@physx@@YA_NEEEEAEAIAEA_NAEAVPxInputStream@2@@Z 000000018002ce60 f   GuSerialize.obj
 0001:0002bfc0       ?ReadIndices@Gu@physx@@YAXGIPEAGAEAVPxInputStream@2@_N@Z 000000018002cfc0 f   GuSerialize.obj
 0001:0002c110       ?StoreIndices@Gu@physx@@YAXGIPEBGAEAVPxOutputStream@2@_N@Z 000000018002d110 f   GuSerialize.obj
 0001:0002c1d0       ?StoreIndices@Gu@physx@@YAXIIPEBIAEAVPxOutputStream@2@_N@Z 000000018002d1d0 f   GuSerialize.obj
 0001:0002c2f0       ?WriteHeader@Gu@physx@@YA_NEEEEI_NAEAVPxOutputStream@2@@Z 000000018002d2f0 f   GuSerialize.obj
 0001:0002c420       ?computeMaxIndex@physx@@YAGPEBGI@Z 000000018002d420 f   GuSerialize.obj
 0001:0002c450       ?computeMaxIndex@physx@@YAIPEBII@Z 000000018002d450 f   GuSerialize.obj
 0001:0002c480       ?readChunk@physx@@YAXAEAC000AEAVPxInputStream@1@@Z 000000018002d480 f   GuSerialize.obj
 0001:0002c500       ?readDword@physx@@YAI_NAEAVPxInputStream@1@@Z 000000018002d500 f   GuSerialize.obj
 0001:0002c560       ?readFloat@physx@@YAM_NAEAVPxInputStream@1@@Z 000000018002d560 f   GuSerialize.obj
 0001:0002c5c0       ?readFloatBuffer@physx@@YA_NPEAMI_NAEAVPxInputStream@1@@Z 000000018002d5c0 f   GuSerialize.obj
 0001:0002c640       ?readHeader@physx@@YA_NCCCCAEAIAEA_NAEAVPxInputStream@1@@Z 000000018002d640 f   GuSerialize.obj
 0001:0002c790       ?readIndices@physx@@YAXIIPEAIAEAVPxInputStream@1@_N@Z 000000018002d790 f   GuSerialize.obj
 0001:0002c880       ?readWord@physx@@YAG_NAEAVPxInputStream@1@@Z 000000018002d880 f   GuSerialize.obj
 0001:0002c8c0       ?readWordBuffer@physx@@YAXPEAGI_NAEAVPxInputStream@1@@Z 000000018002d8c0 f   GuSerialize.obj
 0001:0002c930       ?storeIndices@physx@@YAXIIPEBIAEAVPxOutputStream@1@_N@Z 000000018002d930 f   GuSerialize.obj
 0001:0002ca20       ?writeDword@physx@@YAXI_NAEAVPxOutputStream@1@@Z 000000018002da20 f   GuSerialize.obj
 0001:0002ca70       ?writeFloat@physx@@YAXM_NAEAVPxOutputStream@1@@Z 000000018002da70 f   GuSerialize.obj
 0001:0002cac0       ?writeFloatBuffer@physx@@YAXPEBMI_NAEAVPxOutputStream@1@@Z 000000018002dac0 f   GuSerialize.obj
 0001:0002cb60       ?writeHeader@physx@@YA_NCCCCI_NAEAVPxOutputStream@1@@Z 000000018002db60 f   GuSerialize.obj
 0001:0002cc90       ?writeWord@physx@@YAXG_NAEAVPxOutputStream@1@@Z 000000018002dc90 f   GuSerialize.obj
 0001:0002ccd0       ?writeWordBuffer@physx@@YAXPEBGI_NAEAVPxOutputStream@1@@Z 000000018002dcd0 f   GuSerialize.obj
 0001:0002cd50       ??Dphysx@@YA?AVMatrix34@Cm@0@AEBVPxTransform@0@AEBVPxMeshScale@0@@Z 000000018002dd50 f i GuSweepMTD.obj
 0001:0002d3a0       ??_G?$MeshHitCallback@UPxRaycastHit@physx@@@Gu@physx@@UEAAPEAXI@Z 000000018002e3a0 f i GuSweepMTD.obj
 0001:0002d3a0       ??_E?$MeshHitCallback@UPxRaycastHit@physx@@@Gu@physx@@UEAAPEAXI@Z 000000018002e3a0 f i GuSweepMTD.obj
 0001:0002d3d0       ??_EMeshMTDGenerationCallback@@UEAAPEAXI@Z 000000018002e3d0 f i GuSweepMTD.obj
 0001:0002d3d0       ??_GMeshMTDGenerationCallback@@UEAAPEAXI@Z 000000018002e3d0 f i GuSweepMTD.obj
 0001:0002d400       ??_GMidPhaseQueryLocalReport@@UEAAPEAXI@Z 000000018002e400 f i GuSweepMTD.obj
 0001:0002d400       ??_EMidPhaseQueryLocalReport@@UEAAPEAXI@Z 000000018002e400 f i GuSweepMTD.obj
 0001:0002d430       ?computeBox_HeightFieldMTD@Gu@physx@@YA_NAEBVPxHeightFieldGeometry@2@AEBVPxTransform@2@AEBVBox@12@1M_NIAEAUPxSweepHit@2@@Z 000000018002e430 f   GuSweepMTD.obj
 0001:0002e280       ?computeBox_TriangleMeshMTD@Gu@physx@@YA_NAEBVPxTriangleMeshGeometry@2@AEBVPxTransform@2@AEBVBox@12@1M_NAEAUPxSweepHit@2@@Z 000000018002f280 f   GuSweepMTD.obj
 0001:0002ef10       ?computeCapsule_CapsuleMTD@Gu@physx@@YA_NAEBVCapsule@12@0AEAUPxSweepHit@2@@Z 000000018002ff10 f   GuSweepMTD.obj
 0001:0002f150       ?computeCapsule_HeightFieldMTD@Gu@physx@@YA_NAEBVPxHeightFieldGeometry@2@AEBVPxTransform@2@AEAVCapsuleV@12@M_NIAEAUPxSweepHit@2@@Z 0000000180030150 f   GuSweepMTD.obj
 0001:0002f9c0       ?computeCapsule_TriangleMeshMTD@Gu@physx@@YA_NAEBVPxTriangleMeshGeometry@2@AEBVPxTransform@2@AEAVCapsuleV@12@M_NAEAUPxSweepHit@2@@Z 00000001800309c0 f   GuSweepMTD.obj
 0001:000302a0       ?computeConvex_HeightFieldMTD@Gu@physx@@YA_NAEBVPxHeightFieldGeometry@2@AEBVPxTransform@2@AEBVPxConvexMeshGeometry@2@1M_NIAEAUPxSweepHit@2@@Z 00000001800312a0 f   GuSweepMTD.obj
 0001:00031620       ?computeConvex_TriangleMeshMTD@Gu@physx@@YA_NAEBVPxTriangleMeshGeometry@2@AEBVPxTransform@2@AEBVPxConvexMeshGeometry@2@1M_NAEAUPxSweepHit@2@@Z 0000000180032620 f   GuSweepMTD.obj
 0001:00032870       ?computePlane_BoxMTD@Gu@physx@@YA_NAEBVPxPlane@2@AEBVBox@12@AEAUPxSweepHit@2@@Z 0000000180033870 f   GuSweepMTD.obj
 0001:00032ba0       ?computePlane_CapsuleMTD@Gu@physx@@YA_NAEBVPxPlane@2@AEBVCapsule@12@AEAUPxSweepHit@2@@Z 0000000180033ba0 f   GuSweepMTD.obj
 0001:00032cc0       ?computePlane_ConvexMTD@Gu@physx@@YA_NAEBVPxPlane@2@AEBVPxConvexMeshGeometry@2@AEBVPxTransform@2@AEAUPxSweepHit@2@@Z 0000000180033cc0 f   GuSweepMTD.obj
 0001:00033830       ?computeSphere_CapsuleMTD@Gu@physx@@YA_NAEBVSphere@12@AEBVCapsule@12@AEAUPxSweepHit@2@@Z 0000000180034830 f   GuSweepMTD.obj
 0001:000339e0       ?computeSphere_SphereMTD@Gu@physx@@YA_NAEBVSphere@12@0AEAUPxSweepHit@2@@Z 00000001800349e0 f   GuSweepMTD.obj
 0001:00033ad0       ?getInverse@PxMat33@physx@@QEBA?BV12@XZ 0000000180034ad0 f i GuSweepMTD.obj
 0001:00033d20       ?growAndPushBack@?$Array@IVNamedAllocator@shdfnd@physx@@@shdfnd@physx@@IEAAAEAIAEBI@Z 0000000180034d20 f i GuSweepMTD.obj
 0001:00033e10       ?init@FastVertex2ShapeScaling@Cm@physx@@QEAAXAEBVPxVec3@3@AEBVPxQuat@3@@Z 0000000180034e10 f i GuSweepMTD.obj
 0001:000341f0       ?onEvent@MidPhaseQueryLocalReport@@UEAA_NIPEAI@Z 00000001800351f0 f i GuSweepMTD.obj
 0001:00034260       ?processHit@MeshMTDGenerationCallback@@UEAA_NAEBUPxRaycastHit@physx@@AEBVPxVec3@3@11AEAMPEBI@Z 0000000180035260 f i GuSweepMTD.obj
 0001:000342b0       ?recreate@?$Array@IVNamedAllocator@shdfnd@physx@@@shdfnd@physx@@IEAAXI@Z 00000001800352b0 f i GuSweepMTD.obj
 0001:00034360       ??$gjkPenetration@U?$LocalConvex@VCapsuleV@Gu@physx@@@Gu@physx@@U?$LocalConvex@VConvexHullV@Gu@physx@@@23@@Gu@physx@@YA?AW4GjkStatus@01@AEBU?$LocalConvex@VCapsuleV@Gu@physx@@@01@AEBU?$LocalConvex@VConvexHullV@Gu@physx@@@01@AEBT__m128@@2_NPEIAE4AEAEAEAUGjkOutput@01@@Z 0000000180035360 f i GuSweepSharedTests.obj
 0001:00035930       ??$gjkPenetration@U?$RelativeConvex@VBoxV@Gu@physx@@@Gu@physx@@U?$LocalConvex@VConvexHullV@Gu@physx@@@23@@Gu@physx@@YA?AW4GjkStatus@01@AEBU?$RelativeConvex@VBoxV@Gu@physx@@@01@AEBU?$LocalConvex@VConvexHullV@Gu@physx@@@01@AEBT__m128@@2_NPEIAE4AEAEAEAUGjkOutput@01@@Z 0000000180036930 f i GuSweepSharedTests.obj
 0001:00036f20       ??$gjkPenetration@U?$RelativeConvex@VConvexHullV@Gu@physx@@@Gu@physx@@U?$LocalConvex@VConvexHullV@Gu@physx@@@23@@Gu@physx@@YA?AW4GjkStatus@01@AEBU?$RelativeConvex@VConvexHullV@Gu@physx@@@01@AEBU?$LocalConvex@VConvexHullV@Gu@physx@@@01@AEBT__m128@@2_NPEIAE4AEAEAEAUGjkOutput@01@@Z 0000000180037f20 f i GuSweepSharedTests.obj
 0001:00038580       ??$gjkRaycast@U?$LocalConvex@VCapsuleV@Gu@physx@@@Gu@physx@@U?$LocalConvex@VConvexHullV@Gu@physx@@@23@@Gu@physx@@YA_NAEBU?$LocalConvex@VCapsuleV@Gu@physx@@@01@AEBU?$LocalConvex@VConvexHullV@Gu@physx@@@01@AEBT__m128@@222AEAT4@33M@Z 0000000180039580 f i GuSweepSharedTests.obj
 0001:000392d0       ??$gjkRaycast@U?$RelativeConvex@VBoxV@Gu@physx@@@Gu@physx@@U?$LocalConvex@VConvexHullV@Gu@physx@@@23@@Gu@physx@@YA_NAEBU?$RelativeConvex@VBoxV@Gu@physx@@@01@AEBU?$LocalConvex@VConvexHullV@Gu@physx@@@01@AEBT__m128@@222AEAT4@33M@Z 000000018003a2d0 f i GuSweepSharedTests.obj
 0001:0003a090       ??$gjkRaycast@U?$RelativeConvex@VConvexHullV@Gu@physx@@@Gu@physx@@U?$LocalConvex@VConvexHullV@Gu@physx@@@23@@Gu@physx@@YA_NAEBU?$RelativeConvex@VConvexHullV@Gu@physx@@@01@AEBU?$LocalConvex@VConvexHullV@Gu@physx@@@01@AEBT__m128@@222AEAT4@33M@Z 000000018003b090 f i GuSweepSharedTests.obj
 0001:0003af20       ??$gjkRaycastPenetration@U?$RelativeConvex@VConvexHullV@Gu@physx@@@Gu@physx@@U?$LocalConvex@VConvexHullV@Gu@physx@@@23@@Gu@physx@@YA_NAEBU?$RelativeConvex@VConvexHullV@Gu@physx@@@01@AEBU?$LocalConvex@VConvexHullV@Gu@physx@@@01@AEBT__m128@@222AEAT4@33M_N@Z 000000018003bf20 f i GuSweepSharedTests.obj
 0001:0003bb50       ?sweepBox_ConvexGeom@@YA_NAEBVPxGeometry@physx@@AEBVPxTransform@2@AEBVPxBoxGeometry@2@1AEBVBox@Gu@2@AEBVPxVec3@2@MAEAUPxSweepHit@2@V?$PxFlags@W4Enum@PxHitFlag@physx@@G@2@M@Z 000000018003cb50 f   GuSweepSharedTests.obj
 0001:0003c970       ?sweepBox_PlaneGeom@@YA_NAEBVPxGeometry@physx@@AEBVPxTransform@2@AEBVPxBoxGeometry@2@1AEBVBox@Gu@2@AEBVPxVec3@2@MAEAUPxSweepHit@2@V?$PxFlags@W4Enum@PxHitFlag@physx@@G@2@M@Z 000000018003d970 f   GuSweepSharedTests.obj
 0001:0003ce10       ?sweepCapsuleTriangles@Gu@physx@@YA_NIPEBVPxTriangle@2@_NAEBVPxCapsuleGeometry@2@AEBVPxTransform@2@AEBVPxVec3@2@MAEAUPxSweepHit@2@PEBIMV?$PxFlags@W4Enum@PxHitFlag@physx@@G@2@@Z 000000018003de10 f   GuSweepSharedTests.obj
 0001:0003d000       ?sweepCapsule_CapsuleGeom@@YA_NAEBVPxGeometry@physx@@AEBVPxTransform@2@AEBVPxCapsuleGeometry@2@1AEBVCapsule@Gu@2@AEBVPxVec3@2@MAEAUPxSweepHit@2@V?$PxFlags@W4Enum@PxHitFlag@physx@@G@2@M@Z 000000018003e000 f   GuSweepSharedTests.obj
 0001:0003d1e0       ?sweepCapsule_ConvexGeom@@YA_NAEBVPxGeometry@physx@@AEBVPxTransform@2@AEBVPxCapsuleGeometry@2@1AEBVCapsule@Gu@2@AEBVPxVec3@2@MAEAUPxSweepHit@2@V?$PxFlags@W4Enum@PxHitFlag@physx@@G@2@M@Z 000000018003e1e0 f   GuSweepSharedTests.obj
 0001:0003df70       ?sweepCapsule_PlaneGeom@@YA_NAEBVPxGeometry@physx@@AEBVPxTransform@2@AEBVPxCapsuleGeometry@2@1AEBVCapsule@Gu@2@AEBVPxVec3@2@MAEAUPxSweepHit@2@V?$PxFlags@W4Enum@PxHitFlag@physx@@G@2@M@Z 000000018003ef70 f   GuSweepSharedTests.obj
 0001:0003e260       ?sweepCapsule_SphereGeom@@YA_NAEBVPxGeometry@physx@@AEBVPxTransform@2@AEBVPxCapsuleGeometry@2@1AEBVCapsule@Gu@2@AEBVPxVec3@2@MAEAUPxSweepHit@2@V?$PxFlags@W4Enum@PxHitFlag@physx@@G@2@M@Z 000000018003f260 f   GuSweepSharedTests.obj
 0001:0003e3f0       ?sweepConvex_BoxGeom@@YA_NAEBVPxGeometry@physx@@AEBVPxTransform@2@AEBVPxConvexMeshGeometry@2@1AEBVPxVec3@2@MAEAUPxSweepHit@2@V?$PxFlags@W4Enum@PxHitFlag@physx@@G@2@M@Z 000000018003f3f0 f   GuSweepSharedTests.obj
 0001:0003e600       ?sweepConvex_CapsuleGeom@@YA_NAEBVPxGeometry@physx@@AEBVPxTransform@2@AEBVPxConvexMeshGeometry@2@1AEBVPxVec3@2@MAEAUPxSweepHit@2@V?$PxFlags@W4Enum@PxHitFlag@physx@@G@2@M@Z 000000018003f600 f   GuSweepSharedTests.obj
 0001:0003e820       ?sweepConvex_ConvexGeom@@YA_NAEBVPxGeometry@physx@@AEBVPxTransform@2@AEBVPxConvexMeshGeometry@2@1AEBVPxVec3@2@MAEAUPxSweepHit@2@V?$PxFlags@W4Enum@PxHitFlag@physx@@G@2@M@Z 000000018003f820 f   GuSweepSharedTests.obj
 0001:0003f7c0       ?sweepConvex_PlaneGeom@@YA_NAEBVPxGeometry@physx@@AEBVPxTransform@2@AEBVPxConvexMeshGeometry@2@1AEBVPxVec3@2@MAEAUPxSweepHit@2@V?$PxFlags@W4Enum@PxHitFlag@physx@@G@2@M@Z 00000001800407c0 f   GuSweepSharedTests.obj
 0001:0003fc10       ?sweepConvex_SphereGeom@@YA_NAEBVPxGeometry@physx@@AEBVPxTransform@2@AEBVPxConvexMeshGeometry@2@1AEBVPxVec3@2@MAEAUPxSweepHit@2@V?$PxFlags@W4Enum@PxHitFlag@physx@@G@2@M@Z 0000000180040c10 f   GuSweepSharedTests.obj
 0001:00040830       ?sweepCapsule_BoxGeom@@YA_NAEBVPxGeometry@physx@@AEBVPxTransform@2@AEBVPxCapsuleGeometry@2@1AEBVCapsule@Gu@2@AEBVPxVec3@2@MAEAUPxSweepHit@2@V?$PxFlags@W4Enum@PxHitFlag@physx@@G@2@M@Z 0000000180041830 f   GuSweepTests.obj
 0001:00041120       ?sweepBox_SphereGeom@@YA_NAEBVPxGeometry@physx@@AEBVPxTransform@2@AEBVPxBoxGeometry@2@1AEBVBox@Gu@2@AEBVPxVec3@2@MAEAUPxSweepHit@2@V?$PxFlags@W4Enum@PxHitFlag@physx@@G@2@M@Z 0000000180042120 f   GuSweepTests.obj
 0001:000417f0       ?sweepBox_CapsuleGeom@@YA_NAEBVPxGeometry@physx@@AEBVPxTransform@2@AEBVPxBoxGeometry@2@1AEBVBox@Gu@2@AEBVPxVec3@2@MAEAUPxSweepHit@2@V?$PxFlags@W4Enum@PxHitFlag@physx@@G@2@M@Z 00000001800427f0 f   GuSweepTests.obj
 0001:000420f0       ?sweepBox_BoxGeom@@YA_NAEBVPxGeometry@physx@@AEBVPxTransform@2@AEBVPxBoxGeometry@2@1AEBVBox@Gu@2@AEBVPxVec3@2@MAEAUPxSweepHit@2@V?$PxFlags@W4Enum@PxHitFlag@physx@@G@2@M@Z 00000001800430f0 f   GuSweepTests.obj
 0001:00042a90       ??$gjkPenetration@U?$LocalConvex@VCapsuleV@Gu@physx@@@Gu@physx@@U?$LocalConvex@VBoxV@Gu@physx@@@23@@Gu@physx@@YA?AW4GjkStatus@01@AEBU?$LocalConvex@VCapsuleV@Gu@physx@@@01@AEBU?$LocalConvex@VBoxV@Gu@physx@@@01@AEBT__m128@@2_NPEIAE4AEAEAEAUGjkOutput@01@@Z 0000000180043a90 f i GuSweepTests.obj
 0001:00043fb0       ??$gjkPenetration@U?$RelativeConvex@VBoxV@Gu@physx@@@Gu@physx@@U?$LocalConvex@VBoxV@Gu@physx@@@23@@Gu@physx@@YA?AW4GjkStatus@01@AEBU?$RelativeConvex@VBoxV@Gu@physx@@@01@AEBU?$LocalConvex@VBoxV@Gu@physx@@@01@AEBT__m128@@2_NPEIAE4AEAEAEAUGjkOutput@01@@Z 0000000180044fb0 f i GuSweepTests.obj
 0001:000454f0       ??$gjkRaycast@U?$LocalConvex@VCapsuleV@Gu@physx@@@Gu@physx@@U?$LocalConvex@VBoxV@Gu@physx@@@23@@Gu@physx@@YA_NAEBU?$LocalConvex@VCapsuleV@Gu@physx@@@01@AEBU?$LocalConvex@VBoxV@Gu@physx@@@01@AEBT__m128@@222AEAT4@33M@Z 00000001800464f0 f i GuSweepTests.obj
 0001:000460d0       ??$gjkRaycast@U?$LocalConvex@VTriangleV@Gu@physx@@@Gu@physx@@U?$LocalConvex@VBoxV@Gu@physx@@@23@@Gu@physx@@YA_NAEBU?$LocalConvex@VTriangleV@Gu@physx@@@01@AEBU?$LocalConvex@VBoxV@Gu@physx@@@01@AEBT__m128@@222AEAT4@33M@Z 00000001800470d0 f i GuSweepTests.obj
 0001:00046d20       ??$gjkRaycast@U?$RelativeConvex@VBoxV@Gu@physx@@@Gu@physx@@U?$LocalConvex@VBoxV@Gu@physx@@@23@@Gu@physx@@YA_NAEBU?$RelativeConvex@VBoxV@Gu@physx@@@01@AEBU?$LocalConvex@VBoxV@Gu@physx@@@01@AEBT__m128@@222AEAT4@33M@Z 0000000180047d20 f i GuSweepTests.obj
 0001:00047960       ?getSweepFuncTable@Gu@physx@@YAAEBUGeomSweepFuncs@12@XZ 0000000180048960 f   GuSweepTests.obj
 0001:00047970       ?getSweepMargin@?$LocalConvex@VTriangleV@Gu@physx@@@Gu@physx@@UEBA?AT__m128@@XZ 0000000180048970 f i GuSweepTests.obj
 0001:00047970       ?getSweepMargin@?$RelativeConvex@VTriangleV@Gu@physx@@@Gu@physx@@UEBA?AT__m128@@XZ 0000000180048970 f i GuCCDSweepPrimitives.obj
 0001:00047980       ?registerHeightFields_Sweeps@@YAXXZ 0000000180048980 f   GuSweepTests.obj
 0001:000479c0       ?support@?$LocalConvex@VBoxV@Gu@physx@@@Gu@physx@@UEBA?AT__m128@@AEBT4@@Z 00000001800489c0 f i GuSweepTests.obj
 0001:000479f0       ?support@?$LocalConvex@VBoxV@Gu@physx@@@Gu@physx@@UEBA?AT__m128@@AEBT4@AEAH@Z 00000001800489f0 f i GuSweepTests.obj
 0001:00047a30       ?support@?$LocalConvex@VTriangleV@Gu@physx@@@Gu@physx@@UEBA?AT__m128@@AEBT4@@Z 0000000180048a30 f i GuSweepTests.obj
 0001:00047ac0       ?support@?$LocalConvex@VTriangleV@Gu@physx@@@Gu@physx@@UEBA?AT__m128@@AEBT4@AEAH@Z 0000000180048ac0 f i GuSweepTests.obj
 0001:00047ba0       ?supportPoint@?$LocalConvex@VBoxV@Gu@physx@@@Gu@physx@@UEBA?AT__m128@@H@Z 0000000180048ba0 f i GuSweepTests.obj
 0001:00047be0       ?supportPoint@?$LocalConvex@VTriangleV@Gu@physx@@@Gu@physx@@UEBA?AT__m128@@H@Z 0000000180048be0 f i GuSweepTests.obj
 0001:00047c00       ?sweepBoxTriangles@Gu@physx@@YA_NIPEBVPxTriangle@2@_NAEBVPxBoxGeometry@2@AEBVPxTransform@2@AEBVPxVec3@2@MAEAUPxSweepHit@2@PEBIMV?$PxFlags@W4Enum@PxHitFlag@physx@@G@2@@Z 0000000180048c00 f   GuSweepTests.obj
 0001:00048680       ??$?_UV?$ReflectionAllocator@VAABBTreeBuildNode@Gu@physx@@@shdfnd@physx@@@UserAllocated@shdfnd@physx@@SAPEAX_KV?$ReflectionAllocator@VAABBTreeBuildNode@Gu@physx@@@12@PEBDH@Z 0000000180049680 f i GuAABBTreeBuild.obj
 0001:00048720       ??$copy@VNamedAllocator@shdfnd@physx@@@?$Array@USlab@NodeAllocator@Gu@physx@@VNamedAllocator@shdfnd@4@@shdfnd@physx@@IEAAXAEBV012@@Z 0000000180049720 f i GuAABBTreeBuild.obj
 0001:000487a0       ??4AABBTreeBuildNode@Gu@physx@@QEAAAEAV012@AEBV012@@Z 00000001800497a0 f i GuAABBTreeBuild.obj
 0001:000487a0       ??0AABBTreeBuildNode@Gu@physx@@QEAA@AEBV012@@Z 00000001800497a0 f i GuAABBTreeBuild.obj
 0001:000487e0       ??0AABBTreeBuildParams@Gu@physx@@QEAA@IIPEBVPxBounds3@2@@Z 00000001800497e0 f i GuAABBTreeBuild.obj
 0001:00048800       ??0BuildStats@Gu@physx@@QEAA@XZ 0000000180049800 f i GuAABBTreeBuild.obj
 0001:00048810       ??0NodeAllocator@Gu@physx@@QEAA@AEBV012@@Z 0000000180049810 f i GuAABBTreeBuild.obj
 0001:00048880       ??0NodeAllocator@Gu@physx@@QEAA@XZ 0000000180049880 f   GuAABBTreeBuild.obj
 0001:000488e0       ??1AABBTreeBuildParams@Gu@physx@@QEAA@XZ 00000001800498e0 f i GuAABBTreeBuild.obj
 0001:000488e0       ?reset@AABBTreeBuildParams@Gu@physx@@QEAAXXZ 00000001800498e0 f i GuAABBTreeBuild.obj
 0001:00048940       ??1NodeAllocator@Gu@physx@@QEAA@XZ 0000000180049940 f   GuAABBTreeBuild.obj
 0001:00048980       ??4AABBTreeBuildParams@Gu@physx@@QEAAAEAV012@AEBV012@@Z 0000000180049980 f i GuAABBTreeBuild.obj
 0001:000489a0       ??4BuildStats@Gu@physx@@QEAAAEAU012@$$QEAU012@@Z 00000001800499a0 f i GuAABBTreeBuild.obj
 0001:000489b0       ??4BuildStats@Gu@physx@@QEAAAEAU012@AEBU012@@Z 00000001800499b0 f i GuAABBTreeBuild.obj
 0001:000489c0       ??4NodeAllocator@Gu@physx@@QEAAAEAV012@AEBV012@@Z 00000001800499c0 f i GuAABBTreeBuild.obj
 0001:00048a70       ??_FAABBTreeBuildParams@Gu@physx@@QEAAXXZ 0000000180049a70 f i GuAABBTreeBuild.obj
 0001:00048a90       ?_buildHierarchy@AABBTreeBuildNode@Gu@physx@@QEAAXAEAVAABBTreeBuildParams@23@AEAUBuildStats@23@AEAVNodeAllocator@23@QEAI@Z 0000000180049a90 f   GuAABBTreeBuild.obj
 0001:00048b20       ?allocate@?$Array@USlab@NodeAllocator@Gu@physx@@VNamedAllocator@shdfnd@4@@shdfnd@physx@@IEAAPEAUSlab@NodeAllocator@Gu@3@I@Z 0000000180049b20 f i GuAABBTreeBuild.obj
 0001:00048b90       ?buildAABBTree@Gu@physx@@YA_NAEAVAABBTreeBuildParams@12@AEAVNodeAllocator@12@AEAUBuildStats@12@AEAPEAI@Z 0000000180049b90 f   GuAABBTreeBuild.obj
 0001:00048bf0       ?getBiNode@NodeAllocator@Gu@physx@@QEAAPEAVAABBTreeBuildNode@23@XZ 0000000180049bf0 f   GuAABBTreeBuild.obj
 0001:00048d20       ?getNbRuntimePrimitives@AABBTreeBuildNode@Gu@physx@@QEBAIXZ 0000000180049d20 f i GuAABBTreeBuild.obj
 0001:00048d20       ?getNbTriangles@TriangleMesh@Gu@physx@@UEBAIXZ 0000000180049d20 f i GuTriangleMesh.obj
 0001:00048d20       ?getNbPrimitives@AABBTreeBuildNode@Gu@physx@@QEBAIXZ 0000000180049d20 f i GuAABBTreeBuild.obj
 0001:00048d30       ?getNeg@AABBTreeBuildNode@Gu@physx@@QEBAPEBV123@XZ 0000000180049d30 f i GuAABBTreeBuild.obj
 0001:00048d50       ?getPrimitives@AABBTreeBuildNode@Gu@physx@@QEAAPEAIPEAI@Z 0000000180049d50 f i GuAABBTreeBuild.obj
 0001:00048d50       ?getPrimitives@AABBTreeBuildNode@Gu@physx@@QEBAPEBIPEBI@Z 0000000180049d50 f i GuAABBTreeBuild.obj
 0001:00048d60       ?growAndPushBack@?$Array@USlab@NodeAllocator@Gu@physx@@VNamedAllocator@shdfnd@4@@shdfnd@physx@@IEAAAEAUSlab@NodeAllocator@Gu@3@AEBU4563@@Z 0000000180049d60 f i GuAABBTreeBuild.obj
 0001:00048e60       ?increaseCount@BuildStats@Gu@physx@@QEAAXI@Z 0000000180049e60 f i GuAABBTreeBuild.obj
 0001:00048e70       ?init@NodeAllocator@Gu@physx@@QEAAXII@Z 0000000180049e70 f   GuAABBTreeBuild.obj
 0001:00048f80       ?initAABBTreeBuild@Gu@physx@@YA_NAEAVAABBTreeBuildParams@12@AEAVNodeAllocator@12@AEAUBuildStats@12@AEAPEAI@Z 0000000180049f80 f   GuAABBTreeBuild.obj
 0001:00049180       ?isLeaf@AABBTreeBuildNode@Gu@physx@@QEBA_NXZ 000000018004a180 f i GuAABBTreeBuild.obj
 0001:00049190       ?recreate@?$Array@USlab@NodeAllocator@Gu@physx@@VNamedAllocator@shdfnd@4@@shdfnd@physx@@IEAAXI@Z 000000018004a190 f i GuAABBTreeBuild.obj
 0001:00049240       ?release@NodeAllocator@Gu@physx@@QEAAXXZ 000000018004a240 f   GuAABBTreeBuild.obj
 0001:000492f0       ?reset@BuildStats@Gu@physx@@QEAAXXZ 000000018004a2f0 f i GuAABBTreeBuild.obj
 0001:00049300       ?resize@?$Array@USlab@NodeAllocator@Gu@physx@@VNamedAllocator@shdfnd@4@@shdfnd@physx@@QEAAXIAEBUSlab@NodeAllocator@Gu@3@@Z 000000018004a300 f i GuAABBTreeBuild.obj
 0001:00049380       ?setCount@BuildStats@Gu@physx@@QEAAXI@Z 000000018004a380 f i GuAABBTreeBuild.obj
 0001:00049390       ?setNbRunTimePrimitives@AABBTreeBuildNode@Gu@physx@@QEAAXI@Z 000000018004a390 f i GuAABBTreeBuild.obj
 0001:00049500       ?subdivide@AABBTreeBuildNode@Gu@physx@@QEAAXAEBVAABBTreeBuildParams@23@AEAUBuildStats@23@AEAVNodeAllocator@23@QEAI@Z 000000018004a500 f   GuAABBTreeBuild.obj
 0001:000496e0       ??0?$InlineArray@PEBUBVHNode@Gu@physx@@$0BAA@VNamedAllocator@shdfnd@3@@shdfnd@physx@@QEAA@AEBVNamedAllocator@12@@Z 000000018004a6e0 f i GuBVHStructure.obj
 0001:000497a0       ??0BVHStructure@Gu@physx@@QEAA@PEAVGuMeshFactory@2@@Z 000000018004a7a0 f   GuBVHStructure.obj
 0001:00049800       ??0BVHStructure@Gu@physx@@QEAA@PEAVGuMeshFactory@2@AEAUBVHStructureData@12@@Z 000000018004a800 f   GuBVHStructure.obj
 0001:00049870       ??R?$AABBTreeOverlap@UAABBAABBTest@Gu@physx@@UBVHTree@23@UBVHNode@23@IUBVHCallback@23@@Gu@physx@@QEAA_NPEBIPEBVPxBounds3@2@AEBUBVHTree@12@AEBUAABBAABBTest@12@AEAUBVHCallback@12@@Z 000000018004a870 f i GuBVHStructure.obj
 0001:00049b10       ??R?$AABBTreeRaycast@$00UBVHTree@Gu@physx@@UBVHNode@23@IUBVHCallback@23@@Gu@physx@@QEAA_NPEBIPEBVPxBounds3@2@AEBUBVHTree@12@AEBVPxVec3@2@3AEAM3AEAUBVHCallback@12@@Z 000000018004ab10 f i GuBVHStructure.obj
 0001:0004a1b0       ??R?$AABBTreeRaycast@$0A@UBVHTree@Gu@physx@@UBVHNode@23@IUBVHCallback@23@@Gu@physx@@QEAA_NPEBIPEBVPxBounds3@2@AEBUBVHTree@12@AEBVPxVec3@2@3AEAM3AEAUBVHCallback@12@@Z 000000018004b1b0 f i GuBVHStructure.obj
 0001:0004a80c       ??_EBVHStructure@Gu@physx@@WBA@EAAPEAXI@Z 000000018004b80c f i GuBVHStructure.obj
 0001:0004a820       ??_EBVHStructure@Gu@physx@@UEAAPEAXI@Z 000000018004b820 f i GuBVHStructure.obj
 0001:0004a820       ??_GBVHStructure@Gu@physx@@UEAAPEAXI@Z 000000018004b820 f i GuBVHStructure.obj
 0001:0004a880       ??_GRefCountable@Cm@physx@@UEAAPEAXI@Z 000000018004b880 f i GuBVHStructure.obj
 0001:0004a880       ??_ERefCountable@Cm@physx@@UEAAPEAXI@Z 000000018004b880 f i GuBVHStructure.obj
 0001:0004a8b0       ?allocate@?$Array@PEBUBVHNode@Gu@physx@@V?$InlineAllocator@$0IAA@VNamedAllocator@shdfnd@physx@@@shdfnd@3@@shdfnd@physx@@IEAAPEAPEBUBVHNode@Gu@3@I@Z 000000018004b8b0 f i GuBVHStructure.obj
 0001:0004a940       ?createVolumes@BVHStructure@Gu@physx@@AEBAXXZ 000000018004b940 f   GuBVHStructure.obj
 0001:0004a9c0       ?getTriangles@TriangleMesh@Gu@physx@@UEBAPEBXXZ 000000018004b9c0 f i GuTriangleMesh.obj
 0001:0004a9c0       ?getBounds@BVHStructure@Gu@physx@@UEBAPEBVPxBounds3@3@XZ 000000018004b9c0 f i GuBVHStructure.obj
 0001:0004a9d0       ?getConcreteTypeName@PxBVHStructure@physx@@UEBAPEBDXZ 000000018004b9d0 f i GuBVHStructure.obj
 0001:0004a9e0       ?getNbBounds@BVHStructure@Gu@physx@@UEBAIXZ 000000018004b9e0 f i GuBVHStructure.obj
 0001:0004a9f0       ?isKindOf@PxBVHStructure@physx@@MEBA_NPEBD@Z 000000018004b9f0 f i GuBVHStructure.obj
 0001:0004aa40       ?load@BVHStructure@Gu@physx@@QEAA_NAEAVPxInputStream@3@@Z 000000018004ba40 f   GuBVHStructure.obj
 0001:0004ac20       ?onRefCountZero@BVHStructure@Gu@physx@@UEAAXXZ 000000018004bc20 f   GuBVHStructure.obj
 0001:0004ad50       ?onRefCountZero@RefCountable@Cm@physx@@UEAAXXZ 000000018004bd50 f i GuBVHStructure.obj
 0001:0004ad70       ?overlap@BVHStructure@Gu@physx@@UEBAIAEBVPxBounds3@3@IPEIAI@Z 000000018004bd70 f   GuBVHStructure.obj
 0001:0004aeb0       ?raycast@BVHStructure@Gu@physx@@UEBAIAEBVPxVec3@3@0MIPEIAI@Z 000000018004beb0 f   GuBVHStructure.obj
 0001:0004af80       ?recreate@?$Array@PEBUBVHNode@Gu@physx@@V?$InlineAllocator@$0IAA@VNamedAllocator@shdfnd@physx@@@shdfnd@3@@shdfnd@physx@@IEAAXI@Z 000000018004bf80 f i GuBVHStructure.obj
 0001:0004b020       ?release@TriangleMesh@Gu@physx@@UEAAXXZ 000000018004c020 f   GuTriangleMesh.obj
 0001:0004b020       ?release@HeightField@Gu@physx@@UEAAXXZ 000000018004c020 f   GuHeightField.obj
 0001:0004b020       ?release@ConvexMesh@Gu@physx@@UEAAXXZ 000000018004c020 f   GuConvexMesh.obj
 0001:0004b020       ?release@BVHStructure@Gu@physx@@UEAAXXZ 000000018004c020 f   GuBVHStructure.obj
 0001:0004b050       ?resizeUninitialized@?$Array@PEBUBVHNode@Gu@physx@@V?$InlineAllocator@$0IAA@VNamedAllocator@shdfnd@physx@@@shdfnd@3@@shdfnd@physx@@QEAAXI@Z 000000018004c050 f i GuBVHStructure.obj
 0001:0004b0a0       ?sweep@BVHStructure@Gu@physx@@UEBAIAEBVPxBounds3@3@AEBVPxVec3@3@MIPEIAI@Z 000000018004c0a0 f   GuBVHStructure.obj
 0001:0004b200       ??0?$InlineArray@I$0EA@VNamedAllocator@shdfnd@physx@@@shdfnd@physx@@QEAA@AEBVNamedAllocator@12@@Z 000000018004c200 f i GuCCDSweepConvexMesh.obj
 0001:0004b380       ?SweepAnyShapeHeightfield@Gu@physx@@YAMAEBUCCDShape@12@0AEBVPxTransform@2@111MAEAVPxVec3@2@2MAEAIM@Z 000000018004c380 f   GuCCDSweepConvexMesh.obj
 0001:0004c520       ?SweepAnyShapeMesh@Gu@physx@@YAMAEBUCCDShape@12@0AEBVPxTransform@2@111MAEAVPxVec3@2@2MAEAIM@Z 000000018004d520 f   GuCCDSweepConvexMesh.obj
 0001:0004dc20       ?SweepEstimateAnyShapeHeightfield@Gu@physx@@YAMAEBUCCDShape@12@0AEBVPxTransform@2@111MM@Z 000000018004ec20 f   GuCCDSweepConvexMesh.obj
 0001:0004e4a0       ?SweepEstimateAnyShapeMesh@Gu@physx@@YAMAEBUCCDShape@12@0AEBVPxTransform@2@111MM@Z 000000018004f4a0 f   GuCCDSweepConvexMesh.obj
 0001:0004e760       ?allocate@?$Array@IV?$InlineAllocator@$0BAA@VNamedAllocator@shdfnd@physx@@@shdfnd@physx@@@shdfnd@physx@@IEAAPEAII@Z 000000018004f760 f i GuCCDSweepConvexMesh.obj
 0001:0004f380       ?growAndPushBack@?$Array@IV?$InlineAllocator@$0BAA@VNamedAllocator@shdfnd@physx@@@shdfnd@physx@@@shdfnd@physx@@IEAAAEAIAEBI@Z 0000000180050380 f i GuCCDSweepConvexMesh.obj
 0001:0004fa70       ?recreate@?$Array@IV?$InlineAllocator@$0BAA@VNamedAllocator@shdfnd@physx@@@shdfnd@physx@@@shdfnd@physx@@IEAAXI@Z 0000000180050a70 f i GuCCDSweepConvexMesh.obj
 0001:0004fb10       ?resize@?$Array@IV?$InlineAllocator@$0BAA@VNamedAllocator@shdfnd@physx@@@shdfnd@physx@@@shdfnd@physx@@QEAAXIAEBI@Z 0000000180050b10 f i GuCCDSweepConvexMesh.obj
 0001:0004fbe0       ?resize@?$Array@IVNamedAllocator@shdfnd@physx@@@shdfnd@physx@@QEAAXIAEBI@Z 0000000180050be0 f i GuCCDSweepConvexMesh.obj
 0001:0004fca0       ?transformBoxOrthonormal@physx@@YA?AVBox@Gu@1@AEBV231@AEBVPxTransform@1@@Z 0000000180050ca0 f i GuCCDSweepConvexMesh.obj
 0001:00050130       ?UnimplementedSweep@Gu@physx@@YAMAEBUCCDShape@12@0AEBVPxTransform@2@111MAEAVPxVec3@2@2MAEAIM@Z 0000000180051130 f   GuCCDSweepPrimitives.obj
 0001:00050140       ??$SweepGeomGeom@VCapsuleV@Gu@physx@@V123@@Gu@physx@@YAMAEBUCCDShape@01@0AEBVPxTransform@1@111MAEAVPxVec3@1@2MAEAIM@Z 0000000180051140 f i GuCCDSweepPrimitives.obj
 0001:00050270       ??$SweepGeomGeom@VCapsuleV@Gu@physx@@VBoxV@23@@Gu@physx@@YAMAEBUCCDShape@01@0AEBVPxTransform@1@111MAEAVPxVec3@1@2MAEAIM@Z 0000000180051270 f i GuCCDSweepPrimitives.obj
 0001:000503d0       ??$SweepGeomGeom@VCapsuleV@Gu@physx@@VConvexHullV@23@@Gu@physx@@YAMAEBUCCDShape@01@0AEBVPxTransform@1@111MAEAVPxVec3@1@2MAEAIM@Z 00000001800513d0 f i GuCCDSweepPrimitives.obj
 0001:00050930       ??$SweepGeomGeom@VBoxV@Gu@physx@@V123@@Gu@physx@@YAMAEBUCCDShape@01@0AEBVPxTransform@1@111MAEAVPxVec3@1@2MAEAIM@Z 0000000180051930 f i GuCCDSweepPrimitives.obj
 0001:00050ac0       ??$SweepGeomGeom@VBoxV@Gu@physx@@VConvexHullV@23@@Gu@physx@@YAMAEBUCCDShape@01@0AEBVPxTransform@1@111MAEAVPxVec3@1@2MAEAIM@Z 0000000180051ac0 f i GuCCDSweepPrimitives.obj
 0001:00051040       ??$SweepGeomGeom@VConvexHullV@Gu@physx@@V123@@Gu@physx@@YAMAEBUCCDShape@01@0AEBVPxTransform@1@111MAEAVPxVec3@1@2MAEAIM@Z 0000000180052040 f i GuCCDSweepPrimitives.obj
 0001:00051960       ?UnimplementedTriangleSweep@Gu@physx@@YAMAEBVGeometryUnion@12@0AEBVPxTransform@2@111MAEAVPxVec3@2@2AEBVFastVertex2ShapeScaling@Cm@2@AEAVTriangleV@12@M@Z 0000000180052960 f   GuCCDSweepPrimitives.obj
 0001:00051970       ??$SweepGeomTriangles@VCapsuleV@Gu@physx@@@Gu@physx@@YAMAEBVGeometryUnion@01@0AEBVPxTransform@1@111MAEAVPxVec3@1@2AEBVFastVertex2ShapeScaling@Cm@1@AEAVTriangleV@01@M@Z 0000000180052970 f i GuCCDSweepPrimitives.obj
 0001:00051a40       ??$SweepGeomTriangles@VBoxV@Gu@physx@@@Gu@physx@@YAMAEBVGeometryUnion@01@0AEBVPxTransform@1@111MAEAVPxVec3@1@2AEBVFastVertex2ShapeScaling@Cm@1@AEAVTriangleV@01@M@Z 0000000180052a40 f i GuCCDSweepPrimitives.obj
 0001:00051b40       ??$SweepGeomTriangles@VConvexHullV@Gu@physx@@@Gu@physx@@YAMAEBVGeometryUnion@01@0AEBVPxTransform@1@111MAEAVPxVec3@1@2AEBVFastVertex2ShapeScaling@Cm@1@AEAVTriangleV@01@M@Z 0000000180052b40 f i GuCCDSweepPrimitives.obj
 0001:00052050       ?supportPoint@?$RelativeConvex@VCapsuleV@Gu@physx@@@Gu@physx@@UEBA?AT__m128@@H@Z 0000000180053050 f i GuCCDSweepPrimitives.obj
 0001:000520b0       ?support@?$RelativeConvex@VCapsuleV@Gu@physx@@@Gu@physx@@UEBA?AT__m128@@AEBT4@@Z 00000001800530b0 f i GuCCDSweepPrimitives.obj
 0001:00052160       ?support@?$RelativeConvex@VCapsuleV@Gu@physx@@@Gu@physx@@UEBA?AT__m128@@AEBT4@AEAH@Z 0000000180053160 f i GuCCDSweepPrimitives.obj
 0001:00052220       ?supportPoint@?$RelativeConvex@VTriangleV@Gu@physx@@@Gu@physx@@UEBA?AT__m128@@H@Z 0000000180053220 f i GuCCDSweepPrimitives.obj
 0001:00052270       ?support@?$RelativeConvex@VTriangleV@Gu@physx@@@Gu@physx@@UEBA?AT__m128@@AEBT4@@Z 0000000180053270 f i GuCCDSweepPrimitives.obj
 0001:00052370       ?support@?$RelativeConvex@VTriangleV@Gu@physx@@@Gu@physx@@UEBA?AT__m128@@AEBT4@AEAH@Z 0000000180053370 f i GuCCDSweepPrimitives.obj
 0001:00056290       ??$gjkPenetration@U?$RelativeConvex@VCapsuleV@Gu@physx@@@Gu@physx@@U?$LocalConvex@VBoxV@Gu@physx@@@23@@Gu@physx@@YA?AW4GjkStatus@01@AEBU?$RelativeConvex@VCapsuleV@Gu@physx@@@01@AEBU?$LocalConvex@VBoxV@Gu@physx@@@01@AEBT__m128@@2_NPEIAE4AEAEAEAUGjkOutput@01@@Z 0000000180057290 f i GuCCDSweepPrimitives.obj
 0001:00057820       ??$gjkPenetration@U?$RelativeConvex@VCapsuleV@Gu@physx@@@Gu@physx@@U?$LocalConvex@VCapsuleV@Gu@physx@@@23@@Gu@physx@@YA?AW4GjkStatus@01@AEBU?$RelativeConvex@VCapsuleV@Gu@physx@@@01@AEBU?$LocalConvex@VCapsuleV@Gu@physx@@@01@AEBT__m128@@2_NPEIAE4AEAEAEAUGjkOutput@01@@Z 0000000180058820 f i GuCCDSweepPrimitives.obj
 0001:00058db0       ??$gjkPenetration@U?$RelativeConvex@VCapsuleV@Gu@physx@@@Gu@physx@@U?$LocalConvex@VConvexHullV@Gu@physx@@@23@@Gu@physx@@YA?AW4GjkStatus@01@AEBU?$RelativeConvex@VCapsuleV@Gu@physx@@@01@AEBU?$LocalConvex@VConvexHullV@Gu@physx@@@01@AEBT__m128@@2_NPEIAE4AEAEAEAUGjkOutput@01@@Z 0000000180059db0 f i GuCCDSweepPrimitives.obj
 0001:0005a3c0       ??$gjkPenetration@U?$RelativeConvex@VTriangleV@Gu@physx@@@Gu@physx@@U?$LocalConvex@VBoxV@Gu@physx@@@23@@Gu@physx@@YA?AW4GjkStatus@01@AEBU?$RelativeConvex@VTriangleV@Gu@physx@@@01@AEBU?$LocalConvex@VBoxV@Gu@physx@@@01@AEBT__m128@@2_NPEIAE4AEAEAEAUGjkOutput@01@@Z 000000018005b3c0 f i GuCCDSweepPrimitives.obj
 0001:0005b950       ??$gjkPenetration@U?$RelativeConvex@VTriangleV@Gu@physx@@@Gu@physx@@U?$LocalConvex@VCapsuleV@Gu@physx@@@23@@Gu@physx@@YA?AW4GjkStatus@01@AEBU?$RelativeConvex@VTriangleV@Gu@physx@@@01@AEBU?$LocalConvex@VCapsuleV@Gu@physx@@@01@AEBT__m128@@2_NPEIAE4AEAEAEAUGjkOutput@01@@Z 000000018005c950 f i GuCCDSweepPrimitives.obj
 0001:0005cf00       ??$gjkPenetration@U?$RelativeConvex@VTriangleV@Gu@physx@@@Gu@physx@@U?$LocalConvex@VConvexHullV@Gu@physx@@@23@@Gu@physx@@YA?AW4GjkStatus@01@AEBU?$RelativeConvex@VTriangleV@Gu@physx@@@01@AEBU?$LocalConvex@VConvexHullV@Gu@physx@@@01@AEBT__m128@@2_NPEIAE4AEAEAEAUGjkOutput@01@@Z 000000018005df00 f i GuCCDSweepPrimitives.obj
 0001:0005e530       ??$gjkRaycast@U?$RelativeConvex@VCapsuleV@Gu@physx@@@Gu@physx@@U?$LocalConvex@VBoxV@Gu@physx@@@23@@Gu@physx@@YA_NAEBU?$RelativeConvex@VCapsuleV@Gu@physx@@@01@AEBU?$LocalConvex@VBoxV@Gu@physx@@@01@AEBT__m128@@222AEAT4@33M@Z 000000018005f530 f i GuCCDSweepPrimitives.obj
 0001:0005f1c0       ??$gjkRaycast@U?$RelativeConvex@VCapsuleV@Gu@physx@@@Gu@physx@@U?$LocalConvex@VCapsuleV@Gu@physx@@@23@@Gu@physx@@YA_NAEBU?$RelativeConvex@VCapsuleV@Gu@physx@@@01@AEBU?$LocalConvex@VCapsuleV@Gu@physx@@@01@AEBT__m128@@222AEAT4@33M@Z 00000001800601c0 f i GuCCDSweepPrimitives.obj
 0001:0005fe90       ??$gjkRaycast@U?$RelativeConvex@VCapsuleV@Gu@physx@@@Gu@physx@@U?$LocalConvex@VConvexHullV@Gu@physx@@@23@@Gu@physx@@YA_NAEBU?$RelativeConvex@VCapsuleV@Gu@physx@@@01@AEBU?$LocalConvex@VConvexHullV@Gu@physx@@@01@AEBT__m128@@222AEAT4@33M@Z 0000000180060e90 f i GuCCDSweepPrimitives.obj
 0001:00060c80       ??$gjkRaycast@U?$RelativeConvex@VTriangleV@Gu@physx@@@Gu@physx@@U?$LocalConvex@VBoxV@Gu@physx@@@23@@Gu@physx@@YA_NAEBU?$RelativeConvex@VTriangleV@Gu@physx@@@01@AEBU?$LocalConvex@VBoxV@Gu@physx@@@01@AEBT__m128@@222AEAT4@33M@Z 0000000180061c80 f i GuCCDSweepPrimitives.obj
 0001:00061990       ??$gjkRaycast@U?$RelativeConvex@VTriangleV@Gu@physx@@@Gu@physx@@U?$LocalConvex@VCapsuleV@Gu@physx@@@23@@Gu@physx@@YA_NAEBU?$RelativeConvex@VTriangleV@Gu@physx@@@01@AEBU?$LocalConvex@VCapsuleV@Gu@physx@@@01@AEBT__m128@@222AEAT4@33M@Z 0000000180062990 f i GuCCDSweepPrimitives.obj
 0001:000626f0       ??$gjkRaycast@U?$RelativeConvex@VTriangleV@Gu@physx@@@Gu@physx@@U?$LocalConvex@VConvexHullV@Gu@physx@@@23@@Gu@physx@@YA_NAEBU?$RelativeConvex@VTriangleV@Gu@physx@@@01@AEBU?$LocalConvex@VConvexHullV@Gu@physx@@@01@AEBT__m128@@222AEAT4@33M@Z 00000001800636f0 f i GuCCDSweepPrimitives.obj
 0001:00063590       ?SweepShapeShape@Gu@physx@@YAMAEBUCCDShape@12@0AEBVPxTransform@2@111MAEAVPxVec3@2@2MAEAIM@Z 0000000180064590 f   GuCCDSweepPrimitives.obj
 0001:000635b0       ?SweepShapeTriangle@Gu@physx@@YAMAEBVGeometryUnion@12@0AEBVPxTransform@2@111MAEAVPxVec3@2@2AEBVFastVertex2ShapeScaling@Cm@2@AEAVTriangleV@12@M@Z 00000001800645b0 f   GuCCDSweepPrimitives.obj
 0001:000635d0       ?barycentricCoordinates@Gu@physx@@YAXAEBT__m128@@000AEAT3@1@Z 00000001800645d0 f   GuBarycentricCoordinates.obj
 0001:00063720       ?barycentricCoordinates@Gu@physx@@YAXAEBT__m128@@00AEAT3@@Z 0000000180064720 f   GuBarycentricCoordinates.obj
 0001:00063790       ?addAxis@SeparatingAxes@Gu@physx@@QEAA_NAEBVPxVec3@3@@Z 0000000180064790 f   GuSeparatingAxes.obj
 0001:00063850       ?contactBoxBox@Gu@physx@@YA_NAEBVGeometryUnion@12@0AEBVPxTransform@2@1AEBUNarrowPhaseParams@12@AEAUCache@12@AEAVContactBuffer@12@PEAVRenderOutput@Cm@2@@Z 0000000180064850 f   GuContactBoxBox.obj
 0001:00067d30       ?contactCapsuleBox@Gu@physx@@YA_NAEBVGeometryUnion@12@0AEBVPxTransform@2@1AEBUNarrowPhaseParams@12@AEAUCache@12@AEAVContactBuffer@12@PEAVRenderOutput@Cm@2@@Z 0000000180068d30 f   GuContactCapsuleBox.obj
 0001:000682d0       ?contactCapsuleCapsule@Gu@physx@@YA_NAEBVGeometryUnion@12@0AEBVPxTransform@2@1AEBUNarrowPhaseParams@12@AEAUCache@12@AEAVContactBuffer@12@PEAVRenderOutput@Cm@2@@Z 00000001800692d0 f   GuContactCapsuleCapsule.obj
 0001:0006abf0       ?contactCapsuleConvex@Gu@physx@@YA_NAEBVGeometryUnion@12@0AEBVPxTransform@2@1AEBUNarrowPhaseParams@12@AEAUCache@12@AEAVContactBuffer@12@PEAVRenderOutput@Cm@2@@Z 000000018006bbf0 f   GuContactCapsuleConvex.obj
 0001:0006d0e0       ?contactCapsuleHeightfield@Gu@physx@@YA_NAEBVGeometryUnion@12@0AEBVPxTransform@2@1AEBUNarrowPhaseParams@12@AEAUCache@12@AEAVContactBuffer@12@PEAVRenderOutput@Cm@2@@Z 000000018006e0e0 f   GuContactCapsuleMesh.obj
 0001:0006d710       ?contactCapsuleMesh@Gu@physx@@YA_NAEBVGeometryUnion@12@0AEBVPxTransform@2@1AEBUNarrowPhaseParams@12@AEAUCache@12@AEAVContactBuffer@12@PEAVRenderOutput@Cm@2@@Z 000000018006e710 f   GuContactCapsuleMesh.obj
 0001:0006e820       ?transformFast@PxBounds3@physx@@SA?AV12@AEBVPxTransform@2@AEBV12@@Z 000000018006f820 f i GuContactCapsuleMesh.obj
 0001:0006ec00       ?transformQueryBounds@FastVertex2ShapeScaling@Cm@physx@@QEBAXAEAVPxVec3@3@0AEAVPxMat33@3@@Z 000000018006fc00 f i GuContactCapsuleMesh.obj
 0001:00072f40       ?contactBoxConvex@Gu@physx@@YA_NAEBVGeometryUnion@12@0AEBVPxTransform@2@1AEBUNarrowPhaseParams@12@AEAUCache@12@AEAVContactBuffer@12@PEAVRenderOutput@Cm@2@@Z 0000000180073f40 f   GuContactConvexConvex.obj
 0001:000730d0       ?contactConvexConvex@Gu@physx@@YA_NAEBVGeometryUnion@12@0AEBVPxTransform@2@1AEBUNarrowPhaseParams@12@AEAUCache@12@AEAVContactBuffer@12@PEAVRenderOutput@Cm@2@@Z 00000001800740d0 f   GuContactConvexConvex.obj
 0001:00073520       ?transformPlaneToShapeSpace@FastVertex2ShapeScaling@Cm@physx@@QEBAXAEBVPxVec3@3@MAEAV43@AEAM@Z 0000000180074520 f i GuContactConvexConvex.obj
 0001:00073610       ??0?$CacheMap@UCachedEdge@Gu@physx@@$0IA@@Gu@physx@@QEAA@XZ 0000000180074610 f i GuContactConvexMesh.obj
 0001:000736d0       ??0?$CacheMap@UCachedVertex@Gu@physx@@$0IA@@Gu@physx@@QEAA@XZ 00000001800746d0 f i GuContactConvexMesh.obj
 0001:00073790       ??0?$InlineArray@I$0EEA@VNamedAllocator@shdfnd@physx@@@shdfnd@physx@@QEAA@AEBVNamedAllocator@12@@Z 0000000180074790 f i GuContactConvexMesh.obj
 0001:00073d70       ??_EConvexMeshContactGenerationCallback@@UEAAPEAXI@Z 0000000180074d70 f i GuContactConvexMesh.obj
 0001:00073d70       ??_GConvexMeshContactGenerationCallback@@UEAAPEAXI@Z 0000000180074d70 f i GuContactConvexMesh.obj
 0001:00073dd0       ?addData@?$CacheMap@UCachedEdge@Gu@physx@@$0IA@@Gu@physx@@QEAA_NAEBUCachedEdge@23@@Z 0000000180074dd0 f i GuContactConvexMesh.obj
 0001:00073eb0       ?addData@?$CacheMap@UCachedVertex@Gu@physx@@$0IA@@Gu@physx@@QEAA_NAEBUCachedVertex@23@@Z 0000000180074eb0 f i GuContactConvexMesh.obj
 0001:00073f40       ?allocate@?$Array@IV?$InlineAllocator@$0BBAA@VNamedAllocator@shdfnd@physx@@@shdfnd@physx@@@shdfnd@physx@@IEAAPEAII@Z 0000000180074f40 f i GuContactConvexMesh.obj
 0001:00074310       ?contactBoxHeightfield@Gu@physx@@YA_NAEBVGeometryUnion@12@0AEBVPxTransform@2@1AEBUNarrowPhaseParams@12@AEAUCache@12@AEAVContactBuffer@12@PEAVRenderOutput@Cm@2@@Z 0000000180075310 f   GuContactConvexMesh.obj
 0001:00074470       ?contactBoxMesh@Gu@physx@@YA_NAEBVGeometryUnion@12@0AEBVPxTransform@2@1AEBUNarrowPhaseParams@12@AEAUCache@12@AEAVContactBuffer@12@PEAVRenderOutput@Cm@2@@Z 0000000180075470 f   GuContactConvexMesh.obj
 0001:00074620       ?contactConvexHeightfield@Gu@physx@@YA_NAEBVGeometryUnion@12@0AEBVPxTransform@2@1AEBUNarrowPhaseParams@12@AEAUCache@12@AEAVContactBuffer@12@PEAVRenderOutput@Cm@2@@Z 0000000180075620 f   GuContactConvexMesh.obj
 0001:00074750       ?contactConvexMesh@Gu@physx@@YA_NAEBVGeometryUnion@12@0AEBVPxTransform@2@1AEBUNarrowPhaseParams@12@AEAUCache@12@AEAVContactBuffer@12@PEAVRenderOutput@Cm@2@@Z 0000000180075750 f   GuContactConvexMesh.obj
 0001:00077e90       ?processHit@ConvexMeshContactGenerationCallback@@UEAA_NAEBUPxRaycastHit@physx@@AEBVPxVec3@3@11AEAMPEBI@Z 0000000180078e90 f i GuContactConvexMesh.obj
 0001:00078760       ?recreate@?$Array@IV?$InlineAllocator@$0BBAA@VNamedAllocator@shdfnd@physx@@@shdfnd@physx@@@shdfnd@physx@@IEAAXI@Z 0000000180079760 f i GuContactConvexMesh.obj
 0001:00079750       ?contactPlaneBox@Gu@physx@@YA_NAEBVGeometryUnion@12@0AEBVPxTransform@2@1AEBUNarrowPhaseParams@12@AEAUCache@12@AEAVContactBuffer@12@PEAVRenderOutput@Cm@2@@Z 000000018007a750 f   GuContactPlaneBox.obj
 0001:0007a350       ?contactPlaneCapsule@Gu@physx@@YA_NAEBVGeometryUnion@12@0AEBVPxTransform@2@1AEBUNarrowPhaseParams@12@AEAUCache@12@AEAVContactBuffer@12@PEAVRenderOutput@Cm@2@@Z 000000018007b350 f   GuContactPlaneCapsule.obj
 0001:0007a960       ?contactPlaneConvex@Gu@physx@@YA_NAEBVGeometryUnion@12@0AEBVPxTransform@2@1AEBUNarrowPhaseParams@12@AEAUCache@12@AEAVContactBuffer@12@PEAVRenderOutput@Cm@2@@Z 000000018007b960 f   GuContactPlaneConvex.obj
 0001:0007c770       ?contactPolygonPolygonExt@Gu@physx@@YA_NIPEBVPxVec3@2@PEBEAEBVMatrix34@Cm@2@AEBVPxPlane@2@AEBVPxMat33@2@I01234AEBV32@22IIAEAVContactBuffer@12@_N5M@Z 000000018007d770 f   GuContactPolygonPolygon.obj
 0001:0007deb0       ?findRotationMatrixFromZ@Gu@physx@@YA?AVPxMat33@2@AEBVPxVec3@2@@Z 000000018007eeb0 f   GuContactPolygonPolygon.obj
 0001:0007e8e0       ?contactSphereBox@Gu@physx@@YA_NAEBVGeometryUnion@12@0AEBVPxTransform@2@1AEBUNarrowPhaseParams@12@AEAUCache@12@AEAVContactBuffer@12@PEAVRenderOutput@Cm@2@@Z 000000018007f8e0 f   GuContactSphereBox.obj
 0001:0007eec0       ?contactSphereCapsule@Gu@physx@@YA_NAEBVGeometryUnion@12@0AEBVPxTransform@2@1AEBUNarrowPhaseParams@12@AEAUCache@12@AEAVContactBuffer@12@PEAVRenderOutput@Cm@2@@Z 000000018007fec0 f   GuContactSphereCapsule.obj
 0001:0007fc90       ?contactSphereHeightfield@Gu@physx@@YA_NAEBVGeometryUnion@12@0AEBVPxTransform@2@1AEBUNarrowPhaseParams@12@AEAUCache@12@AEAVContactBuffer@12@PEAVRenderOutput@Cm@2@@Z 0000000180080c90 f   GuContactSphereMesh.obj
 0001:000806a0       ?contactSphereMesh@Gu@physx@@YA_NAEBVGeometryUnion@12@0AEBVPxTransform@2@1AEBUNarrowPhaseParams@12@AEAUCache@12@AEAVContactBuffer@12@PEAVRenderOutput@Cm@2@@Z 00000001800816a0 f   GuContactSphereMesh.obj
 0001:00082a30       ?contactSpherePlane@Gu@physx@@YA_NAEBVGeometryUnion@12@0AEBVPxTransform@2@1AEBUNarrowPhaseParams@12@AEAUCache@12@AEAVContactBuffer@12@PEAVRenderOutput@Cm@2@@Z 0000000180083a30 f   GuContactSpherePlane.obj
 0001:00082c30       ?contactSphereSphere@Gu@physx@@YA_NAEBVGeometryUnion@12@0AEBVPxTransform@2@1AEBUNarrowPhaseParams@12@AEAUCache@12@AEAVContactBuffer@12@PEAVRenderOutput@Cm@2@@Z 0000000180083c30 f   GuContactSphereSphere.obj
 0001:00082da0       ?selectNormal@Gu@physx@@YA_NEMM@Z 0000000180083da0 f   GuFeatureCode.obj
 0001:00082e20       ??0BigConvexData@physx@@QEAA@XZ 0000000180083e20 f   GuBigConvexData.obj
 0001:00082e40       ??1BigConvexData@physx@@QEAA@XZ 0000000180083e40 f   GuBigConvexData.obj
 0001:00082ec0       ?ComputeNearestOffset@BigConvexData@physx@@QEBAIAEBVPxVec3@2@@Z 0000000180083ec0 f   GuBigConvexData.obj
 0001:00082fc0       ?ComputeOffset@BigConvexData@physx@@QEBAIAEBVPxVec3@2@@Z 0000000180083fc0 f   GuBigConvexData.obj
 0001:000830c0       ?CreateOffsets@BigConvexData@physx@@IEAAXXZ 00000001800840c0 f   GuBigConvexData.obj
 0001:00083110       ?Load@BigConvexData@physx@@QEAA_NAEAVPxInputStream@2@@Z 0000000180084110 f   GuBigConvexData.obj
 0001:00083230       ?VLoad@BigConvexData@physx@@IEAA_NAEAVPxInputStream@2@@Z 0000000180084230 f   GuBigConvexData.obj
 0001:000833d0       ?exportExtraData@BigConvexData@physx@@QEAAXAEAVPxSerializationContext@2@@Z 00000001800843d0 f   GuBigConvexData.obj
 0001:00083450       ?importExtraData@BigConvexData@physx@@QEAAXAEAVPxDeserializationContext@2@@Z 0000000180084450 f   GuBigConvexData.obj
 0001:000834c0       ?findUniqueConvexEdges@Gu@physx@@YAIIPEIAUConvexEdge@12@IPEIBUHullPolygonData@12@PEIBE@Z 00000001800844c0 f   GuConvexHelper.obj
 0001:00083600       ?getConvexData@Gu@physx@@YA_NAEBVGeometryUnion@12@AEAVFastVertex2ShapeScaling@Cm@2@AEAVPxBounds3@2@AEAUPolygonalData@12@@Z 0000000180084600 f   GuConvexHelper.obj
 0001:00083880       ?getScaledConvex@Gu@physx@@YAXAEAPEAVPxVec3@2@AEAPEAEPEAV32@PEAE_NPEBV32@PEBEIAEBVFastVertex2ShapeScaling@Cm@2@@Z 0000000180084880 f   GuConvexHelper.obj
 0001:000839b0       ??0ConvexMesh@Gu@physx@@QEAA@AEAVGuMeshFactory@2@AEAUConvexHullInitData@12@@Z 00000001800849b0 f   GuConvexMesh.obj
 0001:00083ae0       ??0ConvexMesh@Gu@physx@@QEAA@XZ 0000000180084ae0 f   GuConvexMesh.obj
 0001:00083b80       ??1ConvexMesh@Gu@physx@@UEAA@XZ 0000000180084b80 f   GuConvexMesh.obj
 0001:00083c20       ??_EConvexMesh@Gu@physx@@UEAAPEAXI@Z 0000000180084c20 f i GuConvexMesh.obj
 0001:00083d30       ??_EConvexMesh@Gu@physx@@WBA@EAAPEAXI@Z 0000000180084d30 f i GuConvexMesh.obj
 0001:00083d40       ??_EPxHeightField@physx@@MEAAPEAXI@Z 0000000180084d40 f i GuHeightField.obj
 0001:00083d40       ??_EPxConvexMesh@physx@@MEAAPEAXI@Z 0000000180084d40 f i GuConvexMesh.obj
 0001:00083dd0       ?acquireReference@ConvexMesh@Gu@physx@@UEAAXXZ 0000000180084dd0 f   GuConvexMesh.obj
 0001:00083dd0       ?acquireReference@HeightField@Gu@physx@@UEAAXXZ 0000000180084dd0 f   GuHeightField.obj
 0001:00083dd0       ?acquireReference@TriangleMesh@Gu@physx@@UEAAXXZ 0000000180084dd0 f   GuTriangleMesh.obj
 0001:00084260       ?createObject@ConvexMesh@Gu@physx@@SAPEAV123@AEAPEAEAEAVPxDeserializationContext@3@@Z 0000000180085260 f   GuConvexMesh.obj
 0001:000842c0       ?exportExtraData@ConvexMesh@Gu@physx@@UEAAXAEAVPxSerializationContext@3@@Z 00000001800852c0 f   GuConvexMesh.obj
 0001:00084390       ?getLocalBounds@ConvexMesh@Gu@physx@@UEBA?AVPxBounds3@3@XZ 0000000180085390 f   GuConvexMesh.obj
 0001:00084420       ?getMassInformation@ConvexMesh@Gu@physx@@UEBAXAEAMAEAVPxMat33@3@AEAVPxVec3@3@@Z 0000000180085420 f   GuConvexMesh.obj
 0001:00084490       ?getPolygonData@ConvexMesh@Gu@physx@@UEBA_NIAEAUPxHullPolygon@3@@Z 0000000180085490 f   GuConvexMesh.obj
 0001:000844e0       ?getReferenceCount@TriangleMesh@Gu@physx@@UEBAIXZ 00000001800854e0 f   GuTriangleMesh.obj
 0001:000844e0       ?getReferenceCount@ConvexMesh@Gu@physx@@UEBAIXZ 00000001800854e0 f   GuConvexMesh.obj
 0001:000844e0       ?getReferenceCount@HeightField@Gu@physx@@UEBAIXZ 00000001800854e0 f   GuHeightField.obj
 0001:000844e0       ?raw_length@pairNode@@UEBAHXZ 00000001800854e0 f   libvcruntime:undname.obj
 0001:000844f0       ?importExtraData@ConvexMesh@Gu@physx@@QEAAXAEAVPxDeserializationContext@3@@Z 00000001800854f0 f   GuConvexMesh.obj
 0001:000845b0       ?isGpuCompatible@ConvexMesh@Gu@physx@@UEBA_NXZ 00000001800855b0 f   GuConvexMesh.obj
 0001:000845d0       ?load@ConvexMesh@Gu@physx@@QEAA_NAEAVPxInputStream@3@@Z 00000001800855d0 f   GuConvexMesh.obj
 0001:00084890       ?onRefCountZero@ConvexMesh@Gu@physx@@UEAAXXZ 0000000180085890 f   GuConvexMesh.obj
 0001:00084980       ??Dphysx@@YA?AVMatrix34@Cm@0@AEBVPxMeshScale@0@AEBV120@@Z 0000000180085980 f i GuConvexUtilsInternal.obj
 0001:00084f50       ?computeHullOBB@Gu@physx@@YAXAEAVBox@12@AEBVPxBounds3@2@MAEBVMatrix34@Cm@2@2AEBVFastVertex2ShapeScaling@62@_N@Z 0000000180085f50 f   GuConvexUtilsInternal.obj
 0001:00085400       ?computeOBBAroundConvex@Gu@physx@@YAXAEAVBox@12@AEBVPxConvexMeshGeometry@2@PEBVPxConvexMesh@2@AEBVPxTransform@2@@Z 0000000180086400 f   GuConvexUtilsInternal.obj
 0001:00085d10       ?computeVertexSpaceOBB@Gu@physx@@YAXAEAVBox@12@AEBV312@AEBVPxTransform@2@AEBVPxMeshScale@2@@Z 0000000180086d10 f   GuConvexUtilsInternal.obj
 0001:000860c0       ?transform@physx@@YA?AVBox@Gu@1@AEBVMatrix34@Cm@1@AEBV231@@Z 00000001800870c0 f i GuConvexUtilsInternal.obj
 0001:00086310       ?localSearch@physx@@YAXAEAIAEBVPxVec3@1@PEBV21@PEBUBigConvexRawData@Gu@1@@Z 0000000180087310 f   GuHillClimbing.obj
 0001:00086440       ??0PCMPolygonalBox@Gu@physx@@QEAA@AEBVPxVec3@2@@Z 0000000180087440 f   GuPCMShapeConvex.obj
 0001:00086440       ??0PolygonalBox@Gu@physx@@QEAA@AEBVPxVec3@2@@Z 0000000180087440 f   GuShapeConvex.obj
 0001:00087900       ?getPolygonalData@PolygonalBox@Gu@physx@@QEBAXPEIAUPolygonalData@23@@Z 0000000180088900 f   GuShapeConvex.obj
 0001:00087960       ?getPolygonalData_Convex@Gu@physx@@YAXPEIAUPolygonalData@12@PEIBUConvexHullData@12@AEBVFastVertex2ShapeScaling@Cm@2@@Z 0000000180088960 f   GuShapeConvex.obj
 0001:00087ac0       ?distancePointBoxSquared@Gu@physx@@YAMAEBVPxVec3@2@00AEBVPxMat33@2@PEAV32@@Z 0000000180088ac0 f   GuDistancePointBox.obj
 0001:00087c10       ?closestPtPointTriangle@Gu@physx@@YA?AVPxVec3@2@AEBV32@000AEAM1@Z 0000000180088c10 f   GuDistancePointTriangle.obj
 0001:00088130       ?distancePointTriangleSquared@Gu@physx@@YA?AT__m128@@AEBT3@000AEAT3@11@Z 0000000180089130 f   GuDistancePointTriangle.obj
 0001:00088e80       ?distanceSegmentBoxSquared@Gu@physx@@YAMAEBVPxVec3@2@000AEBVPxMat33@2@PEAMPEAV32@@Z 0000000180089e80 f   GuDistanceSegmentBox.obj
 0001:000896f0       ?distanceSegmentSegmentSquared4@Gu@physx@@YA?AT__m128@@AEBT3@000000000AEAT3@1@Z 000000018008a6f0 f   GuDistanceSegmentSegment.obj
 0001:00089a10       ?distanceSegmentSegmentSquared@Gu@physx@@YA?AT__m128@@AEBT3@000AEAT3@1@Z 000000018008aa10 f   GuDistanceSegmentSegment.obj
 0001:00089bd0       ?distanceSegmentSegmentSquared@Gu@physx@@YAMAEBVPxVec3@2@000PEAM1@Z 000000018008abd0 f   GuDistanceSegmentSegment.obj
 0001:00089e60       ?distanceSegmentSegmentSquared@Gu@physx@@YAMAEBVPxVec3@2@0M00MPEAM1@Z 000000018008ae60 f   GuDistanceSegmentSegment.obj
 0001:0008a5b0       ?distanceSegmentTriangleSquared@Gu@physx@@YA?AT__m128@@AEBT3@0000AEAT3@1@Z 000000018008b5b0 f   GuDistanceSegmentTriangle.obj
 0001:0008acf0       ?distanceSegmentTriangleSquared@Gu@physx@@YAMAEBVPxVec3@2@0000PEAM11@Z 000000018008bcf0 f   GuDistanceSegmentTriangle.obj
 0001:0008c380       ?PenetrationDepth@EPA@Gu@physx@@QEAA?AW4GjkStatus@23@AEBUGjkConvex@23@0PEIBT__m128@@1E_NT6@AEAUGjkOutput@23@@Z 000000018008d380 f   GuEPA.obj
 0001:0008ce90       ?addFacet@EPA@Gu@physx@@QEAAPEAVFacet@23@IIIAEBT__m128@@@Z 000000018008de90 f   GuEPA.obj
 0001:0008d2e0       ?epaPenetration@Gu@physx@@YA?AW4GjkStatus@12@AEBUGjkConvex@12@0PEIBE1E_NT__m128@@AEAUGjkOutput@12@@Z 000000018008e2e0 f   GuEPA.obj
 0001:0008d450       ?silhouette@Facet@Gu@physx@@QEAAXAEBT__m128@@PEIBT4@1AEAVEdgeBuffer@23@AEAV?$InlineDeferredIDPool@$0EA@@Cm@3@@Z 000000018008e450 f   GuEPA.obj
 0001:0008d620       ?closestPtPointTetrahedron@Gu@physx@@YA?AT__m128@@PEIAT3@00AEAI@Z 000000018008e620 f   GuGJKSimplex.obj
 0001:0008dda0       ?closestPtPointTetrahedron@Gu@physx@@YA?AT__m128@@PEIAT3@00PEIAH1AEAI@Z 000000018008eda0 f   GuGJKSimplex.obj
 0001:0008f850       ??$gjk@UGjkConvex@Gu@physx@@U123@@Gu@physx@@YA?AW4GjkStatus@01@AEBUGjkConvex@01@0AEBT__m128@@1AEAT4@222@Z 0000000180090850 f i GuGJKTest.obj
 0001:00090480       ??$gjkPenetration@UGjkConvex@Gu@physx@@U123@@Gu@physx@@YA?AW4GjkStatus@01@AEBUGjkConvex@01@0AEBT__m128@@1_NPEIAE3AEAEAEAUGjkOutput@01@@Z 0000000180091480 f i GuGJKTest.obj
 0001:000918c0       ?testEpaPenetration@Gu@physx@@YA?AW4GjkStatus@12@AEAUGjkConvex@12@0PEBE1EAEAUGjkOutput@12@@Z 00000001800928c0 f   GuGJKTest.obj
 0001:00091910       ?testGjk@Gu@physx@@YA?AW4GjkStatus@12@AEAUGjkConvex@12@0AEBT__m128@@1AEAT5@222@Z 0000000180092910 f   GuGJKTest.obj
 0001:00091920       ?testGjkPenetration@Gu@physx@@YA?AW4GjkStatus@12@AEAUGjkConvex@12@0AEBT__m128@@1PEAE2AEAEAEAUGjkOutput@12@@Z 0000000180092920 f   GuGJKTest.obj
 0001:00091970       ??0HeightField@Gu@physx@@QEAA@AEAVGuMeshFactory@2@AEAUHeightFieldData@12@@Z 0000000180092970 f   GuHeightField.obj
 0001:00091a40       ??0HeightField@Gu@physx@@QEAA@PEAVGuMeshFactory@2@@Z 0000000180092a40 f   GuHeightField.obj
 0001:00091ab0       ??1HeightField@Gu@physx@@UEAA@XZ 0000000180092ab0 f   GuHeightField.obj
 0001:00091b20       ??_EHeightField@Gu@physx@@UEAAPEAXI@Z 0000000180092b20 f i GuHeightField.obj
 0001:00091c9c       ??_EHeightField@Gu@physx@@WBA@EAAPEAXI@Z 0000000180092c9c f i GuHeightField.obj
 0001:00091cb0       ?computeCellCoordinates@HeightField@Gu@physx@@QEBAIMMAEAM0@Z 0000000180092cb0 f   GuHeightField.obj
 0001:00091db0       ?createObject@HeightField@Gu@physx@@SAPEAV123@AEAPEAEAEAVPxDeserializationContext@3@@Z 0000000180092db0 f   GuHeightField.obj
 0001:00091e20       ?exportExtraData@HeightField@Gu@physx@@UEAAXAEAVPxSerializationContext@3@@Z 0000000180092e20 f   GuHeightField.obj
 0001:00091e70       ?getEdgeTriangleIndices@physx@@YAIAEBVHeightField@Gu@1@AEBUEdgeData@1@PEIAI@Z 0000000180092e70 f   GuHeightField.obj
 0001:00091fa0       ?getVertexEdgeIndices@physx@@YAIAEBVHeightField@Gu@1@IIIQEAUEdgeData@1@@Z 0000000180092fa0 f   GuHeightField.obj
 0001:00092180       ?importExtraData@HeightField@Gu@physx@@QEAAXAEAVPxDeserializationContext@3@@Z 0000000180093180 f   GuHeightField.obj
 0001:000921a0       ?isCollisionVertexPreca@HeightField@Gu@physx@@QEBA_NIIIG@Z 00000001800931a0 f   GuHeightField.obj
 0001:00092240       ?isConvexVertex@HeightField@Gu@physx@@QEBA_NIII@Z 0000000180093240 f i GuHeightField.obj
 0001:00092310       ?isSolidVertex@HeightField@Gu@physx@@QEBA_NIIIGAEA_N@Z 0000000180093310 f   GuHeightField.obj
 0001:00092490       ?load@HeightField@Gu@physx@@QEAA_NAEAVPxInputStream@3@@Z 0000000180093490 f   GuHeightField.obj
 0001:000927c0       ?loadFromDesc@HeightField@Gu@physx@@QEAA_NAEBVPxHeightFieldDesc@3@@Z 00000001800937c0 f   GuHeightField.obj
 0001:00092a60       ?modifySamples@HeightField@Gu@physx@@UEAA_NHHAEBVPxHeightFieldDesc@3@_N@Z 0000000180093a60 f   GuHeightField.obj
 0001:00092e00       ?onRefCountZero@HeightField@Gu@physx@@UEAAXXZ 0000000180093e00 f   GuHeightField.obj
 0001:00092e90       ?parseTrianglesForCollisionVertices@HeightField@Gu@physx@@QEAAXG@Z 0000000180093e90 f   GuHeightField.obj
 0001:00093370       ?releaseMemory@HeightField@Gu@physx@@QEAAXXZ 0000000180094370 f   GuHeightField.obj
 0001:000933c0       ?resizeAndClear@?$BitMapBase@VNonTrackingAllocator@shdfnd@physx@@@Cm@physx@@QEAAXI@Z 00000001800943c0 f i GuHeightField.obj
 0001:00093480       ?saveCells@HeightField@Gu@physx@@UEBAIPEAXI@Z 0000000180094480 f   GuHeightField.obj
 0001:000934c0       ?computeLocalBounds@HeightFieldUtil@Gu@physx@@QEBAXAEAVPxBounds3@3@@Z 00000001800944c0 f   GuHeightFieldUtil.obj
 0001:00093590       ?findClosestPointOnEdge@HeightFieldUtil@Gu@physx@@QEBAMIIIIAEBVPxVec3@3@AEAV43@@Z 0000000180094590 f   GuHeightFieldUtil.obj
 0001:00093880       ?findClosestPointsOnCell@HeightFieldUtil@Gu@physx@@QEBAIIIVPxVec3@3@PEIAV43@PEIAI_N33@Z 0000000180094880 f   GuHeightFieldUtil.obj
 0001:00094000       ?findProjectionOnTriangle@HeightFieldUtil@Gu@physx@@QEBA_NIIIAEBVPxVec3@3@AEAV43@@Z 0000000180095000 f   GuHeightFieldUtil.obj
 0001:000942a0       ?getEdge@HeightFieldUtil@Gu@physx@@QEBAXIIIIAEAVPxVec3@3@0@Z 00000001800952a0 f   GuHeightFieldUtil.obj
 0001:000944d0       ?getEdgeFaceIndex@HeightFieldUtil@Gu@physx@@QEBAII@Z 00000001800954d0 f   GuHeightFieldUtil.obj
 0001:000946c0       ?getEdgeFaceIndex@HeightFieldUtil@Gu@physx@@QEBAIIIII@Z 00000001800956c0 f   GuHeightFieldUtil.obj
 0001:00094870       ?getEdgeFaceIndex@HeightFieldUtil@Gu@physx@@QEBAIIIPEIBI@Z 0000000180095870 f   GuHeightFieldUtil.obj
 0001:000948f0       ?getFaceIndexAtShapePoint@HeightFieldUtil@Gu@physx@@QEBAIMM@Z 00000001800958f0 f   GuHeightFieldUtil.obj
 0001:00094a00       ?getTriangle@HeightFieldUtil@Gu@physx@@QEBAIAEBVPxTransform@3@AEAVPxTriangle@3@PEAI2I_N3@Z 0000000180095a00 f   GuHeightFieldUtil.obj
 0001:00095200       ?getTriangleAdjacencyIndices@HeightField@Gu@physx@@QEBAXIIIIAEAI00@Z 0000000180096200 f i GuHeightFieldUtil.obj
 0001:000953e0       ?getTriangleVertexIndices@HeightField@Gu@physx@@QEBAXIAEAI00@Z 00000001800963e0 f i GuHeightFieldUtil.obj
 0001:000954a0       ?getVertexFaceIndex@HeightFieldUtil@Gu@physx@@QEBAIIII@Z 00000001800964a0 f   GuHeightFieldUtil.obj
 0001:000956e0       ?getVertexNormal@HeightFieldUtil@Gu@physx@@QEBA?AVPxVec3@3@III@Z 00000001800966e0 f   GuHeightFieldUtil.obj
 0001:00095a30       ?overlapAABBTriangles@HeightFieldUtil@Gu@physx@@QEBA_NAEBVPxTransform@3@AEBVPxBounds3@3@IPEAV?$EntityReport@I@23@@Z 0000000180096a30 f   GuHeightFieldUtil.obj
 0001:00096060       ??$traceSegment@UTriggerTraceSegmentCallback@Gu@physx@@$0A@$0A@@HeightFieldTraceUtil@Gu@physx@@QEBAXAEBVPxVec3@2@0MPEAUTriggerTraceSegmentCallback@12@AEBVPxBounds3@2@_NPEBV32@@Z 0000000180097060 f i GuOverlapTestsHF.obj
 0001:00097040       ?GeomOverlapCallback_BoxHeightfield@@YA_NAEBVPxGeometry@physx@@AEBVPxTransform@2@01PEAUTriggerCache@Gu@2@@Z 0000000180098040 f   GuOverlapTestsHF.obj
 0001:00097360       ?GeomOverlapCallback_CapsuleHeightfield@@YA_NAEBVPxGeometry@physx@@AEBVPxTransform@2@01PEAUTriggerCache@Gu@2@@Z 0000000180098360 f   GuOverlapTestsHF.obj
 0001:000975a0       ?GeomOverlapCallback_ConvexHeightfield@@YA_NAEBVPxGeometry@physx@@AEBVPxTransform@2@01PEAUTriggerCache@Gu@2@@Z 00000001800985a0 f   GuOverlapTestsHF.obj
 0001:00097610       ?GeomOverlapCallback_SphereHeightfield@@YA_NAEBVPxGeometry@physx@@AEBVPxTransform@2@01PEAUTriggerCache@Gu@2@@Z 0000000180098610 f   GuOverlapTestsHF.obj
 0001:000977e0       ?checkOverlapAABB_heightFieldGeom@Gu@physx@@YA_NAEBVPxGeometry@2@AEBVPxTransform@2@AEBVPxBounds3@2@@Z 00000001800987e0 f   GuOverlapTestsHF.obj
 0001:0009aa80       ??$gjkRaycast@U?$LocalConvex@VTriangleV@Gu@physx@@@Gu@physx@@U?$LocalConvex@VConvexHullV@Gu@physx@@@23@@Gu@physx@@YA_NAEBU?$LocalConvex@VTriangleV@Gu@physx@@@01@AEBU?$LocalConvex@VConvexHullV@Gu@physx@@@01@AEBT__m128@@222AEAT4@33M@Z 000000018009ba80 f i GuSweepsHF.obj
 0001:0009b850       ??$traceSegment@VBoxTraceSegmentReport@@$0A@$00@HeightFieldTraceUtil@Gu@physx@@QEBAXAEBVPxVec3@2@0MPEAVBoxTraceSegmentReport@@AEBVPxBounds3@2@_NPEBV32@@Z 000000018009c850 f i GuSweepsHF.obj
 0001:0009b850       ??$traceSegment@VConvexTraceSegmentReport@@$0A@$00@HeightFieldTraceUtil@Gu@physx@@QEBAXAEBVPxVec3@2@0MPEAVConvexTraceSegmentReport@@AEBVPxBounds3@2@_NPEBV32@@Z 000000018009c850 f i GuSweepsHF.obj
 0001:0009b850       ??$traceSegment@VCapsuleTraceSegmentReport@@$0A@$00@HeightFieldTraceUtil@Gu@physx@@QEBAXAEBVPxVec3@2@0MPEAVCapsuleTraceSegmentReport@@AEBVPxBounds3@2@_NPEBV32@@Z 000000018009c850 f i GuSweepsHF.obj
 0001:0009c270       ??0ConvexTraceSegmentReport@@QEAA@AEBVHeightFieldUtil@Gu@physx@@AEBUConvexHullData@23@AEBVPxMeshScale@3@AEBVPxTransform@3@3AEBVPxVec3@3@MV?$PxFlags@W4Enum@PxHitFlag@physx@@G@3@M@Z 000000018009d270 f i GuSweepsHF.obj
 0001:0009cc10       ??_EBoxTraceSegmentReport@@UEAAPEAXI@Z 000000018009dc10 f i GuSweepsHF.obj
 0001:0009cc10       ??_GBoxTraceSegmentReport@@UEAAPEAXI@Z 000000018009dc10 f i GuSweepsHF.obj
 0001:0009cc40       ??_GCapsuleTraceSegmentReport@@UEAAPEAXI@Z 000000018009dc40 f i GuSweepsHF.obj
 0001:0009cc40       ??_ECapsuleTraceSegmentReport@@UEAAPEAXI@Z 000000018009dc40 f i GuSweepsHF.obj
 0001:0009cc70       ??_GConvexTraceSegmentReport@@UEAAPEAXI@Z 000000018009dc70 f i GuSweepsHF.obj
 0001:0009cc70       ??_EConvexTraceSegmentReport@@UEAAPEAXI@Z 000000018009dc70 f i GuSweepsHF.obj
 0001:0009cca0       ??_EHeightFieldTraceSegmentReport@@UEAAPEAXI@Z 000000018009dca0 f i GuSweepsHF.obj
 0001:0009cca0       ??_GHeightFieldTraceSegmentReport@@UEAAPEAXI@Z 000000018009dca0 f i GuSweepsHF.obj
 0001:0009ccd0       ?finalizeHit@ConvexTraceSegmentReport@@QEAA_NAEAUPxSweepHit@physx@@AEBVPxHeightFieldGeometry@3@AEBVPxTransform@3@AEBVPxConvexMeshGeometry@3@2AEBVPxVec3@3@M@Z 000000018009dcd0 f i GuSweepsHF.obj
 0001:0009cf20       ?onEvent@BoxTraceSegmentReport@@UEAA_NIPEAI@Z 000000018009df20 f i GuSweepsHF.obj
 0001:0009d390       ?onEvent@CapsuleTraceSegmentReport@@UEAA_NIPEAI@Z 000000018009e390 f i GuSweepsHF.obj
 0001:0009d5c0       ?onEvent@ConvexTraceSegmentReport@@UEAA_NIPEAI@Z 000000018009e5c0 f i GuSweepsHF.obj
 0001:0009db80       ?prepare@?$OverlapTraceSegment@VCapsuleTraceSegmentReport@@@HeightFieldTraceUtil@Gu@physx@@QEAAXAEBVPxVec3@4@00AEAM1@Z 000000018009eb80 f i GuSweepsHF.obj
 0001:0009db80       ?prepare@?$OverlapTraceSegment@VBoxTraceSegmentReport@@@HeightFieldTraceUtil@Gu@physx@@QEAAXAEBVPxVec3@4@00AEAM1@Z 000000018009eb80 f i GuSweepsHF.obj
 0001:0009db80       ?prepare@?$OverlapTraceSegment@VConvexTraceSegmentReport@@@HeightFieldTraceUtil@Gu@physx@@QEAAXAEBVPxVec3@4@00AEAM1@Z 000000018009eb80 f i GuSweepsHF.obj
 0001:0009de20       ?sweepBox_HeightFieldGeom@@YA_NAEBVPxGeometry@physx@@AEBVPxTransform@2@AEBVPxBoxGeometry@2@1AEBVBox@Gu@2@AEBVPxVec3@2@MAEAUPxSweepHit@2@V?$PxFlags@W4Enum@PxHitFlag@physx@@G@2@M@Z 000000018009ee20 f   GuSweepsHF.obj
 0001:0009ec70       ?sweepCapsule_HeightFieldGeom@@YA_NAEBVPxGeometry@physx@@AEBVPxTransform@2@AEBVPxCapsuleGeometry@2@1AEBVCapsule@Gu@2@AEBVPxVec3@2@MAEAUPxSweepHit@2@V?$PxFlags@W4Enum@PxHitFlag@physx@@G@2@M@Z 000000018009fc70 f   GuSweepsHF.obj
 0001:0009f5d0       ?sweepConvex_HeightFieldGeom@@YA_NAEBVPxGeometry@physx@@AEBVPxTransform@2@AEBVPxConvexMeshGeometry@2@1AEBVPxVec3@2@MAEAUPxSweepHit@2@V?$PxFlags@W4Enum@PxHitFlag@physx@@G@2@M@Z 00000001800a05d0 f   GuSweepsHF.obj
 0001:0009ffa0       ?testVertexIndex@?$OverlapTraceSegment@VBoxTraceSegmentReport@@@HeightFieldTraceUtil@Gu@physx@@QEAA_NI@Z 00000001800a0fa0 f i GuSweepsHF.obj
 0001:0009ffa0       ?testVertexIndex@?$OverlapTraceSegment@VCapsuleTraceSegmentReport@@@HeightFieldTraceUtil@Gu@physx@@QEAA_NI@Z 00000001800a0fa0 f i GuSweepsHF.obj
 0001:0009ffa0       ?testVertexIndex@?$OverlapTraceSegment@VConvexTraceSegmentReport@@@HeightFieldTraceUtil@Gu@physx@@QEAA_NI@Z 00000001800a0fa0 f i GuSweepsHF.obj
 0001:000a00f0       ?intersectOBBOBB@Gu@physx@@YA_NAEBVPxVec3@2@0AEBVPxMat33@2@001_N@Z 00000001800a10f0 f   GuIntersectionBoxBox.obj
 0001:000a0750       ?intersectCapsuleTriangle@Gu@physx@@YA_NAEBVPxVec3@2@000AEBVCapsule@12@AEBUCapsuleTriangleOverlapData@12@@Z 00000001800a1750 f   GuIntersectionCapsuleTriangle.obj
 0001:000a12e0       ?intersectEdgeEdge@Gu@physx@@YA_NAEBVPxVec3@2@0000AEAMAEAV32@@Z 00000001800a22e0 f   GuIntersectionEdgeEdge.obj
 0001:000a1610       ?intersectRayAABB2@Gu@physx@@YA_NAEBT__m128@@0000AEAT3@1@Z 00000001800a2610 f   GuIntersectionRayBox.obj
 0001:000a16d0       ?intersectRayAABB2@Gu@physx@@YA_NAEBVPxVec3@2@000MAEAM1@Z 00000001800a26d0 f   GuIntersectionRayBox.obj
 0001:000a1880       ?intersectRayAABB@Gu@physx@@YAHAEBVPxVec3@2@000AEAM1@Z 00000001800a2880 f   GuIntersectionRayBox.obj
 0001:000a19a0       ?rayAABBIntersect2@Gu@physx@@YAIAEBVPxVec3@2@000AEAV32@AEAM@Z 00000001800a29a0 f   GuIntersectionRayBox.obj
 0001:000a1bb0       ?intersectRayCapsuleInternal@Gu@physx@@YAIAEBVPxVec3@2@000MQEAM@Z 00000001800a2bb0 f   GuIntersectionRayCapsule.obj
 0001:000a2440       ?intersectRaySphere@Gu@physx@@YA_NAEBVPxVec3@2@0M0MAEAMPEAV32@@Z 00000001800a3440 f   GuIntersectionRaySphere.obj
 0001:000a2530       ?intersectRaySphereBasic@Gu@physx@@YA_NAEBVPxVec3@2@0M0MAEAMPEAV32@@Z 00000001800a3530 f   GuIntersectionRaySphere.obj
 0001:000a2690       ?intersectSphereBox@Gu@physx@@YA_NAEBVSphere@12@AEBVBox@12@@Z 00000001800a3690 f   GuIntersectionSphereBox.obj
 0001:000a28c0       ?intersectTriangleBox@Gu@physx@@YAHAEBVBoxPadded@12@AEBVPxVec3@2@11@Z 00000001800a38c0 f   GuIntersectionTriangleBox.obj
 0001:000a2e90       ?intersectTriangleBoxBV4@@YAHAEBVPxVec3@physx@@00AEBVPxMat33@2@00@Z 00000001800a3e90 f   GuIntersectionTriangleBox.obj
 0001:000a32d0       ?intersectTriangleBox_ReferenceCode@Gu@physx@@YAHAEBVPxVec3@2@0000@Z 00000001800a42d0 f   GuIntersectionTriangleBox.obj
 0001:000a3b40       ?intersectTriangleBox_Unsafe@Gu@physx@@YAHAEBVPxVec3@2@0000@Z 00000001800a4b40 f   GuIntersectionTriangleBox.obj
 0001:000a3f10       ??0BV4Tree@Gu@physx@@QEAA@PEAVSourceMesh@12@AEBVPxBounds3@2@@Z 00000001800a4f10 f   GuBV4.obj
 0001:000a3fd0       ??0BV4Tree@Gu@physx@@QEAA@W4PxEMPTY@2@@Z 00000001800a4fd0 f   GuBV4.obj
 0001:000a3fe0       ??0BV4Tree@Gu@physx@@QEAA@XZ 00000001800a4fe0 f   GuBV4.obj
 0001:000a4010       ??0SourceMesh@Gu@physx@@QEAA@XZ 00000001800a5010 f   GuBV4.obj
 0001:000a4030       ??0SourceMeshBase@Gu@physx@@QEAA@XZ 00000001800a5030 f   GuBV4.obj
 0001:000a4040       ??1BV4Tree@Gu@physx@@QEAA@XZ 00000001800a5040 f   GuBV4.obj
 0001:000a40a0       ??1SourceMesh@Gu@physx@@QEAA@XZ 00000001800a50a0 f   GuBV4.obj
 0001:000a40a0       ??1SourceMeshBase@Gu@physx@@QEAA@XZ 00000001800a50a0 f   GuBV4.obj
 0001:000a40f0       ??4BV4Tree@Gu@physx@@QEAAXAEAV012@@Z 00000001800a50f0 f   GuBV4.obj
 0001:000a4180       ??4SourceMesh@Gu@physx@@QEAAXAEAV012@@Z 00000001800a5180 f   GuBV4.obj
 0001:000a41d0       ?exportExtraData@BV4Tree@Gu@physx@@QEAAXAEAVPxSerializationContext@3@@Z 00000001800a51d0 f   GuBV4.obj
 0001:000a4220       ?importExtraData@BV4Tree@Gu@physx@@QEAAXAEAVPxDeserializationContext@3@@Z 00000001800a5220 f   GuBV4.obj
 0001:000a4250       ?init@BV4Tree@Gu@physx@@QEAA_NPEAVSourceMesh@23@AEBVPxBounds3@3@@Z 00000001800a5250 f   GuBV4.obj
 0001:000a4250       ?init@BV32Tree@Gu@physx@@QEAA_NPEAVSourceMesh@23@AEBVPxBounds3@3@@Z 00000001800a5250 f   GuBV32.obj
 0001:000a42f0       ?load@BV4Tree@Gu@physx@@QEAA_NAEAVPxInputStream@3@_N@Z 00000001800a52f0 f   GuBV4.obj
 0001:000a4510       ?remapTopology@SourceMesh@Gu@physx@@QEAAXPEBI@Z 00000001800a5510 f   GuBV4.obj
 0001:000a4810       ??0AABBTree@Gu@physx@@QEAA@XZ 00000001800a5810 f   GuBV4Build.obj
 0001:000a4820       ??0BVData@@QEAA@XZ         00000001800a5820 f   GuBV4Build.obj
 0001:000a4850       ??1AABBTree@Gu@physx@@QEAA@XZ 00000001800a5850 f   GuBV4Build.obj
 0001:000a4860       ?BuildBV4Ex@Gu@physx@@YA_NAEAVBV4Tree@12@AEAVSourceMesh@12@MI@Z 00000001800a5860 f   GuBV4Build.obj
 0001:000a5d30       ?allocateNode@BV4BuildParams@@QEAAPEAUBV4Node@@XZ 00000001800a6d30 f   GuBV4Build.obj
 0001:000a5e50       ?buildFromMesh@AABBTree@Gu@physx@@QEAA_NAEAVSourceMesh@23@I@Z 00000001800a6e50 f   GuBV4Build.obj
 0001:000a6a30       ?release@AABBTree@Gu@physx@@QEAAXXZ 00000001800a7a30 f   GuBV4Build.obj
 0001:000a6ad0       ?releaseNodes@BV4BuildParams@@QEAAXXZ 00000001800a7ad0 f   GuBV4Build.obj
 0001:000a6da0       ?walk@AABBTree@Gu@physx@@QEBAIP6A_NPEBVAABBTreeNode@23@IPEAX@Z1@Z 00000001800a7da0 f   GuBV4Build.obj
 0001:000a8fc0       ?GenericSweep_AABB_CB@@YAXAEBVBox@Gu@physx@@AEBVPxVec3@3@MAEBVBV4Tree@23@P6A_NPEAX111IAEAM@Z3I@Z 00000001800a9fc0 f   GuBV4_AABBSweep.obj
 0001:000a90f0       ?Sweep_AABB_BV4@@YAHAEBVBox@Gu@physx@@AEBVPxVec3@3@MAEBVBV4Tree@23@PEIAVSweepHit@23@I@Z 00000001800aa0f0 f   GuBV4_AABBSweep.obj
 0001:000ad330       ?BV4_OverlapBoxAll@@YAIAEBVBox@Gu@physx@@AEBVBV4Tree@23@PEIBVPxMat44@3@PEAIIAEA_N@Z 00000001800ae330 f   GuBV4_BoxOverlap.obj
 0001:000adb40       ?BV4_OverlapBoxAny@@YAHAEBVBox@Gu@physx@@AEBVBV4Tree@23@PEIBVPxMat44@3@@Z 00000001800aeb40 f   GuBV4_BoxOverlap.obj
 0001:000ae300       ?BV4_OverlapBoxCB@@YAXAEBVBox@Gu@physx@@AEBVBV4Tree@23@P6A_NPEAXAEBVPxVec3@3@33IPEBI@Z2@Z 00000001800af300 f   GuBV4_BoxOverlap.obj
 0001:000ae7c0       ?BV4_OverlapCapsuleAll@@YAIAEBVCapsule@Gu@physx@@AEBVBV4Tree@23@PEIBVPxMat44@3@PEAIIAEA_N@Z 00000001800af7c0 f   GuBV4_BoxOverlap.obj
 0001:000aeed0       ?BV4_OverlapCapsuleAny@@YAHAEBVCapsule@Gu@physx@@AEBVBV4Tree@23@PEIBVPxMat44@3@@Z 00000001800afed0 f   GuBV4_BoxOverlap.obj
 0001:000b1000       ?BV4_CapsuleSweepSingle@@YAHAEBVCapsule@Gu@physx@@AEBVPxVec3@3@MAEBVBV4Tree@23@PEIAVSweepHit@23@I@Z 00000001800b2000 f   GuBV4_CapsuleSweep.obj
 0001:000b44f0       ?BV4_CapsuleSweepSingleAA@@YAHAEBVCapsule@Gu@physx@@AEBVPxVec3@3@MAEBVBV4Tree@23@PEIAVSweepHit@23@I@Z 00000001800b54f0 f   GuBV4_CapsuleSweepAA.obj
 0001:000b8d00       ?BV4_BoxSweepSingle@@YAHAEBVBox@Gu@physx@@AEBVPxVec3@3@MAEBVBV4Tree@23@PEIBVPxMat44@3@PEIAVSweepHit@23@I@Z 00000001800b9d00 f   GuBV4_OBBSweep.obj
 0001:000b9430       ?BV4_GenericSweepCB@@YAXAEBVBox@Gu@physx@@AEBVPxVec3@3@MAEBVBV4Tree@23@P6A_NPEAX111IAEAM@Z3_N@Z 00000001800ba430 f   GuBV4_OBBSweep.obj
 0001:000b9600       ?Sweep_OBB_BV4@@YAHAEBVBox@Gu@physx@@AEBVPxVec3@3@MAEBVBV4Tree@23@PEIAVSweepHit@23@I@Z 00000001800ba600 f   GuBV4_OBBSweep.obj
 0001:000bb5d0       ?BV4_RaycastCB@@YAXAEBVPxVec3@physx@@0AEBVBV4Tree@Gu@2@PEIBVPxMat44@2@MMIP6A?AW4HitCode@42@PEAX000IMMM@Z3@Z 00000001800bc5d0 f   GuBV4_Raycast.obj
 0001:000bb9f0       ?BV4_RaycastSingle@@YAHAEBVPxVec3@physx@@0AEBVBV4Tree@Gu@2@PEIBVPxMat44@2@PEIAUPxRaycastHit@2@MMIV?$PxFlags@W4Enum@PxHitFlag@physx@@G@2@@Z 00000001800bc9f0 f   GuBV4_Raycast.obj
 0001:000bd750       ?BV4_OverlapSphereAll@@YAIAEBVSphere@Gu@physx@@AEBVBV4Tree@23@PEIBVPxMat44@3@PEAIIAEA_N@Z 00000001800be750 f   GuBV4_SphereOverlap.obj
 0001:000bda70       ?BV4_OverlapSphereAny@@YAHAEBVSphere@Gu@physx@@AEBVBV4Tree@23@PEIBVPxMat44@3@@Z 00000001800bea70 f   GuBV4_SphereOverlap.obj
 0001:000bf880       ?BV4_GenericSweepCB_Old@@YAXAEBVPxVec3@physx@@00MAEBVBV4Tree@Gu@2@PEIBVPxMat44@2@P6A_NPEAX000IAEAM@Z3@Z 00000001800c0880 f   GuBV4_SphereSweep.obj
 0001:000bfc80       ?BV4_SphereSweepSingle@@YAHAEBVSphere@Gu@physx@@AEBVPxVec3@3@MAEBVBV4Tree@23@PEIBVPxMat44@3@PEIAVSweepHit@23@I@Z 00000001800c0c80 f   GuBV4_SphereSweep.obj
 0001:000c0f40       ?computeSweepData@physx@@YAMAEBVPxTriangleMeshGeometry@1@AEAVPxVec3@1@11M@Z 00000001800c1f40 f i GuMidphaseBV4.obj
 0001:000c23e0       ?intersectBoxVsMesh_BV4@Gu@physx@@YA_NAEBVBox@12@AEBVTriangleMesh@12@AEBVPxTransform@2@AEBVPxMeshScale@2@PEAULimitedResults@12@@Z 00000001800c33e0 f   GuMidphaseBV4.obj
 0001:000c2f00       ?intersectCapsuleVsMesh_BV4@Gu@physx@@YA_NAEBVCapsule@12@AEBVTriangleMesh@12@AEBVPxTransform@2@AEBVPxMeshScale@2@PEAULimitedResults@12@@Z 00000001800c3f00 f   GuMidphaseBV4.obj
 0001:000c3740       ?intersectOBB_BV4@Gu@physx@@YAXPEBVTriangleMesh@12@AEBVBox@12@AEAU?$MeshHitCallback@UPxRaycastHit@physx@@@12@_N3@Z 00000001800c4740 f   GuMidphaseBV4.obj
 0001:000c3760       ?intersectSphereVsMesh_BV4@Gu@physx@@YA_NAEBVSphere@12@AEBVTriangleMesh@12@AEBVPxTransform@2@AEBVPxMeshScale@2@PEAULimitedResults@12@@Z 00000001800c4760 f   GuMidphaseBV4.obj
 0001:000c3ea0       ?raycast_triangleMesh_BV4@Gu@physx@@YAIPEBVTriangleMesh@12@AEBVPxTriangleMeshGeometry@2@AEBVPxTransform@2@AEBVPxVec3@2@3MV?$PxFlags@W4Enum@PxHitFlag@physx@@G@2@IPEIAUPxRaycastHit@2@@Z 00000001800c4ea0 f   GuMidphaseBV4.obj
 0001:000c4cb0       ?sweepBox_MeshGeom_BV4@Gu@physx@@YA_NPEBVTriangleMesh@12@AEBVPxTriangleMeshGeometry@2@AEBVPxTransform@2@AEBVBox@12@AEBVPxVec3@2@MAEAUPxSweepHit@2@V?$PxFlags@W4Enum@PxHitFlag@physx@@G@2@M@Z 00000001800c5cb0 f   GuMidphaseBV4.obj
 0001:000c63d0       ?sweepCapsule_MeshGeom_BV4@Gu@physx@@YA_NPEBVTriangleMesh@12@AEBVPxTriangleMeshGeometry@2@AEBVPxTransform@2@AEBVCapsule@12@AEBVPxVec3@2@MAEAUPxSweepHit@2@V?$PxFlags@W4Enum@PxHitFlag@physx@@G@2@M@Z 00000001800c73d0 f   GuMidphaseBV4.obj
 0001:000c6ec0       ?sweepConvex_MeshGeom_BV4@Gu@physx@@YAXPEBVTriangleMesh@12@AEBVBox@12@AEBVPxVec3@2@MAEAUSweepConvexMeshHitCallback@12@_N@Z 00000001800c7ec0 f   GuMidphaseBV4.obj
 0001:000c6f00       ?transform@PxMeshScale@physx@@QEBA?AVPxVec3@2@AEBV32@@Z 00000001800c7f00 f i GuMidphaseBV4.obj
 0001:000c7140       ?findOverlapHeightField@PxMeshQuery@physx@@SAIAEBVPxGeometry@2@AEBVPxTransform@2@AEBVPxHeightFieldGeometry@2@1PEAIIIAEA_N@Z 00000001800c8140 f   GuMeshQuery.obj
 0001:000c7860       ?findOverlapTriangleMesh@PxMeshQuery@physx@@SAIAEBVPxGeometry@2@AEBVPxTransform@2@AEBVPxTriangleMeshGeometry@2@1PEAIIIAEA_N@Z 00000001800c8860 f   GuMeshQuery.obj
 0001:000c7bc0       ?getTriangle@PxMeshQuery@physx@@SAXAEBVPxHeightFieldGeometry@2@AEBVPxTransform@2@IAEAVPxTriangle@2@PEAI3@Z 00000001800c8bc0 f   GuMeshQuery.obj
 0001:000c7c40       ?getTriangle@PxMeshQuery@physx@@SAXAEBVPxTriangleMeshGeometry@2@AEBVPxTransform@2@IAEAVPxTriangle@2@PEAI3@Z 00000001800c8c40 f   GuMeshQuery.obj
 0001:000c81c0       ?sweep@PxMeshQuery@physx@@SA_NAEBVPxVec3@2@MAEBVPxGeometry@2@AEBVPxTransform@2@IPEBVPxTriangle@2@AEAUPxSweepHit@2@V?$PxFlags@W4Enum@PxHitFlag@physx@@G@2@PEBIM_N@Z 00000001800c91c0 f   GuMeshQuery.obj
 0001:000c85a0       ??$collide@$00$00@MeshRayCollider@@SAXAEBVPxVec3@physx@@0M_NPEBVRTreeTriangleMesh@Gu@2@AEAU?$MeshHitCallback@UPxRaycastHit@physx@@@42@PEBV12@@Z 00000001800c95a0 f i GuMidphaseRTree.obj
 0001:000c8920       ??$collide@$00$0A@@MeshRayCollider@@SAXAEBVPxVec3@physx@@0M_NPEBVRTreeTriangleMesh@Gu@2@AEAU?$MeshHitCallback@UPxRaycastHit@physx@@@42@PEBV12@@Z 00000001800c9920 f i GuMidphaseRTree.obj
 0001:000c8b60       ??$collide@$0A@$00@MeshRayCollider@@SAXAEBVPxVec3@physx@@0M_NPEBVRTreeTriangleMesh@Gu@2@AEAU?$MeshHitCallback@UPxRaycastHit@physx@@@42@PEBV12@@Z 00000001800c9b60 f i GuMidphaseRTree.obj
 0001:000caf20       ??0?$RayRTreeCallback@$00$0A@@@QEAA@MAEAU?$MeshHitCallback@UPxRaycastHit@physx@@@Gu@physx@@HPEBXPEBVPxVec3@3@AEBV43@3M_N2@Z 00000001800cbf20 f i GuMidphaseRTree.obj
 0001:000cb050       ??1?$RayRTreeCallback@$00$00@@UEAA@XZ 00000001800cc050 f i GuMidphaseRTree.obj
 0001:000cb0e0       ??1?$RayRTreeCallback@$0A@$0A@@@UEAA@XZ 00000001800cc0e0 f i GuMidphaseRTree.obj
 0001:000cb0e0       ??1?$RayRTreeCallback@$00$0A@@@UEAA@XZ 00000001800cc0e0 f i GuMidphaseRTree.obj
 0001:000cb170       ??1?$RayRTreeCallback@$0A@$00@@UEAA@XZ 00000001800cc170 f i GuMidphaseRTree.obj
 0001:000cb1f8       ??_E?$RayRTreeCallback@$00$00@@W7EAAPEAXI@Z 00000001800cc1f8 f i GuMidphaseRTree.obj
 0001:000cb204       ??_E?$RayRTreeCallback@$00$0A@@@W7EAAPEAXI@Z 00000001800cc204 f i GuMidphaseRTree.obj
 0001:000cb204       ??_E?$RayRTreeCallback@$0A@$0A@@@W7EAAPEAXI@Z 00000001800cc204 f i GuMidphaseRTree.obj
 0001:000cb210       ??_E?$RayRTreeCallback@$0A@$00@@W7EAAPEAXI@Z 00000001800cc210 f i GuMidphaseRTree.obj
 0001:000cb280       ??_G?$RayRTreeCallback@$00$00@@UEAAPEAXI@Z 00000001800cc280 f i GuMidphaseRTree.obj
 0001:000cb280       ??_E?$RayRTreeCallback@$00$00@@UEAAPEAXI@Z 00000001800cc280 f i GuMidphaseRTree.obj
 0001:000cb2c0       ??_E?$RayRTreeCallback@$0A@$0A@@@UEAAPEAXI@Z 00000001800cc2c0 f i GuMidphaseRTree.obj
 0001:000cb2c0       ??_G?$RayRTreeCallback@$00$0A@@@UEAAPEAXI@Z 00000001800cc2c0 f i GuMidphaseRTree.obj
 0001:000cb2c0       ??_E?$RayRTreeCallback@$00$0A@@@UEAAPEAXI@Z 00000001800cc2c0 f i GuMidphaseRTree.obj
 0001:000cb2c0       ??_G?$RayRTreeCallback@$0A@$0A@@@UEAAPEAXI@Z 00000001800cc2c0 f i GuMidphaseRTree.obj
 0001:000cb300       ??_E?$RayRTreeCallback@$0A@$00@@UEAAPEAXI@Z 00000001800cc300 f i GuMidphaseRTree.obj
 0001:000cb300       ??_G?$RayRTreeCallback@$0A@$00@@UEAAPEAXI@Z 00000001800cc300 f i GuMidphaseRTree.obj
 0001:000cb340       ??_GCallback@RTree@Gu@physx@@UEAAPEAXI@Z 00000001800cc340 f i GuMidphaseRTree.obj
 0001:000cb340       ??_ECallback@RTree@Gu@physx@@UEAAPEAXI@Z 00000001800cc340 f i GuMidphaseRTree.obj
 0001:000cb370       ??_ECallbackRaycast@RTree@Gu@physx@@UEAAPEAXI@Z 00000001800cc370 f i GuMidphaseRTree.obj
 0001:000cb370       ??_ECallbackRefit@RTree@Gu@physx@@UEAAPEAXI@Z 00000001800cc370 f i GuTriangleMeshRTree.obj
 0001:000cb370       ??_GCallbackRefit@RTree@Gu@physx@@UEAAPEAXI@Z 00000001800cc370 f i GuTriangleMeshRTree.obj
 0001:000cb370       ??_GCallbackRaycast@RTree@Gu@physx@@UEAAPEAXI@Z 00000001800cc370 f i GuMidphaseRTree.obj
 0001:000cb3a0       ??_GRayMeshColliderCallback@@UEAAPEAXI@Z 00000001800cc3a0 f i GuMidphaseRTree.obj
 0001:000cb3a0       ??_ERayMeshColliderCallback@@UEAAPEAXI@Z 00000001800cc3a0 f i GuMidphaseRTree.obj
 0001:000cb3d0       ?collideOBB@MeshRayCollider@@SAXAEBVBox@Gu@physx@@_NPEBVRTreeTriangleMesh@34@AEAU?$MeshHitCallback@UPxRaycastHit@physx@@@34@1@Z 00000001800cc3d0 f   GuMidphaseRTree.obj
 0001:000cb8a0       ?intersectBoxVsMesh_RTREE@Gu@physx@@YA_NAEBVBox@12@AEBVTriangleMesh@12@AEBVPxTransform@2@AEBVPxMeshScale@2@PEAULimitedResults@12@@Z 00000001800cc8a0 f   GuMidphaseRTree.obj
 0001:000cb910       ?intersectCapsuleVsMesh_RTREE@Gu@physx@@YA_NAEBVCapsule@12@AEBVTriangleMesh@12@AEBVPxTransform@2@AEBVPxMeshScale@2@PEAULimitedResults@12@@Z 00000001800cc910 f   GuMidphaseRTree.obj
 0001:000cb990       ?intersectOBB_RTREE@Gu@physx@@YAXPEBVTriangleMesh@12@AEBVBox@12@AEAU?$MeshHitCallback@UPxRaycastHit@physx@@@12@_N3@Z 00000001800cc990 f   GuMidphaseRTree.obj
 0001:000cb9c0       ?intersectSphereVsMesh_RTREE@Gu@physx@@YA_NAEBVSphere@12@AEBVTriangleMesh@12@AEBVPxTransform@2@AEBVPxMeshScale@2@PEAULimitedResults@12@@Z 00000001800cc9c0 f   GuMidphaseRTree.obj
 0001:000cc7f0       ?processHit@RayMeshColliderCallback@@UEAA_NAEBUPxRaycastHit@physx@@AEBVPxVec3@3@11AEAMPEBI@Z 00000001800cd7f0 f i GuMidphaseRTree.obj
 0001:000ccf80       ?processResults@?$RayRTreeCallback@$00$00@@UEAA_NIPEAI@Z 00000001800cdf80 f i GuMidphaseRTree.obj
 0001:000cd330       ?processResults@?$RayRTreeCallback@$00$00@@UEAA_NIPEAIAEAM@Z 00000001800ce330 f i GuMidphaseRTree.obj
 0001:000cd6c0       ?processResults@?$RayRTreeCallback@$00$0A@@@UEAA_NIPEAI@Z 00000001800ce6c0 f i GuMidphaseRTree.obj
 0001:000cd6c0       ?processResults@?$RayRTreeCallback@$0A@$0A@@@UEAA_NIPEAI@Z 00000001800ce6c0 f i GuMidphaseRTree.obj
 0001:000cd950       ?processResults@?$RayRTreeCallback@$00$0A@@@UEAA_NIPEAIAEAM@Z 00000001800ce950 f i GuMidphaseRTree.obj
 0001:000cd950       ?processResults@?$RayRTreeCallback@$0A@$0A@@@UEAA_NIPEAIAEAM@Z 00000001800ce950 f i GuMidphaseRTree.obj
 0001:000cdbf0       ?processResults@?$RayRTreeCallback@$0A@$00@@UEAA_NIPEAI@Z 00000001800cebf0 f i GuMidphaseRTree.obj
 0001:000ce250       ?processResults@?$RayRTreeCallback@$0A@$00@@UEAA_NIPEAIAEAM@Z 00000001800cf250 f i GuMidphaseRTree.obj
 0001:000ce8c0       ?raycast_triangleMesh_RTREE@Gu@physx@@YAIPEBVTriangleMesh@12@AEBVPxTriangleMeshGeometry@2@AEBVPxTransform@2@AEBVPxVec3@2@3MV?$PxFlags@W4Enum@PxHitFlag@physx@@G@2@IPEIAUPxRaycastHit@2@@Z 00000001800cf8c0 f   GuMidphaseRTree.obj
 0001:000cf060       ?sweepBox_MeshGeom_RTREE@Gu@physx@@YA_NPEBVTriangleMesh@12@AEBVPxTriangleMeshGeometry@2@AEBVPxTransform@2@AEBVBox@12@AEBVPxVec3@2@MAEAUPxSweepHit@2@V?$PxFlags@W4Enum@PxHitFlag@physx@@G@2@M@Z 00000001800d0060 f   GuMidphaseRTree.obj
 0001:000d05c0       ?sweepCapsule_MeshGeom_RTREE@Gu@physx@@YA_NPEBVTriangleMesh@12@AEBVPxTriangleMeshGeometry@2@AEBVPxTransform@2@AEBVCapsule@12@AEBVPxVec3@2@MAEAUPxSweepHit@2@V?$PxFlags@W4Enum@PxHitFlag@physx@@G@2@M@Z 00000001800d15c0 f   GuMidphaseRTree.obj
 0001:000d0dc0       ?sweepConvex_MeshGeom_RTREE@Gu@physx@@YAXPEBVTriangleMesh@12@AEBVBox@12@AEBVPxVec3@2@MAEAUSweepConvexMeshHitCallback@12@_N@Z 00000001800d1dc0 f   GuMidphaseRTree.obj
 0001:000d0e10       ??$gjk@U?$RelativeConvex@VTriangleV@Gu@physx@@@Gu@physx@@U?$LocalConvex@VConvexHullV@Gu@physx@@@23@@Gu@physx@@YA?AW4GjkStatus@01@AEBU?$RelativeConvex@VTriangleV@Gu@physx@@@01@AEBU?$LocalConvex@VConvexHullV@Gu@physx@@@01@AEBT__m128@@2AEAT5@333@Z 00000001800d1e10 f i GuOverlapTestsMesh.obj
 0001:000d1ca0       ??0ConvexVsMeshOverlapCallback@@QEAA@AEBVConvexMesh@Gu@physx@@AEBVPxMeshScale@3@AEBVFastVertex2ShapeScaling@Cm@3@AEBVPxTransform@3@3_NAEBVBox@23@@Z 00000001800d2ca0 f i GuOverlapTestsMesh.obj
 0001:000d2530       ??_GConvexVsMeshOverlapCallback@@UEAAPEAXI@Z 00000001800d3530 f i GuOverlapTestsMesh.obj
 0001:000d2530       ??_EConvexVsMeshOverlapCallback@@UEAAPEAXI@Z 00000001800d3530 f i GuOverlapTestsMesh.obj
 0001:000d2560       ?GeomOverlapCallback_BoxMesh@@YA_NAEBVPxGeometry@physx@@AEBVPxTransform@2@01PEAUTriggerCache@Gu@2@@Z 00000001800d3560 f   GuOverlapTestsMesh.obj
 0001:000d2670       ?GeomOverlapCallback_CapsuleMesh@@YA_NAEBVPxGeometry@physx@@AEBVPxTransform@2@01PEAUTriggerCache@Gu@2@@Z 00000001800d3670 f   GuOverlapTestsMesh.obj
 0001:000d2780       ?GeomOverlapCallback_ConvexMesh@@YA_NAEBVPxGeometry@physx@@AEBVPxTransform@2@01PEAUTriggerCache@Gu@2@@Z 00000001800d3780 f   GuOverlapTestsMesh.obj
 0001:000d2d70       ?GeomOverlapCallback_SphereMesh@@YA_NAEBVPxGeometry@physx@@AEBVPxTransform@2@01PEAUTriggerCache@Gu@2@@Z 00000001800d3d70 f   GuOverlapTestsMesh.obj
 0001:000d2de0       ?checkOverlapAABB_triangleGeom@Gu@physx@@YA_NAEBVPxGeometry@2@AEBVPxTransform@2@AEBVPxBounds3@2@@Z 00000001800d3de0 f   GuOverlapTestsMesh.obj
 0001:000d2ee0       ?processHit@ConvexVsMeshOverlapCallback@@UEAA_NAEBUPxRaycastHit@physx@@AEBVPxVec3@3@11AEAMPEBI@Z 00000001800d3ee0 f i GuOverlapTestsMesh.obj
 0001:000d3260       ??0RTree@Gu@physx@@QEAA@W4PxEMPTY@2@@Z 00000001800d4260 f   GuRTree.obj
 0001:000d3270       ?exportExtraData@RTree@Gu@physx@@QEAAXAEAVPxSerializationContext@3@@Z 00000001800d4270 f   GuRTree.obj
 0001:000d32b0       ?importExtraData@RTree@Gu@physx@@QEAAXAEAVPxDeserializationContext@3@@Z 00000001800d42b0 f   GuRTree.obj
 0001:000d32e0       ?load@RTree@Gu@physx@@QEAA_NAEAVPxInputStream@3@I_N@Z 00000001800d42e0 f   GuRTree.obj
 0001:000d35f0       ?refitAllStaticTree@RTree@Gu@physx@@QEAAXAEAUCallbackRefit@123@PEAVPxBounds3@3@@Z 00000001800d45f0 f   GuRTree.obj
 0001:000d3b50       ?validate@RTree@Gu@physx@@QEAAXPEAUCallbackRefit@123@@Z 00000001800d4b50 f   GuRTree.obj
 0001:000d3cb0       ?validateRecursive@RTree@Gu@physx@@IEAAXIURTreeNodeQ@23@PEAURTreePage@23@PEAUCallbackRefit@123@@Z 00000001800d4cb0 f   GuRTree.obj
 0001:000d3de0       ??$traverseRay@$00@RTree@Gu@physx@@QEBAXAEBVPxVec3@2@0IPEAIPEAUCallbackRaycast@012@PEBV32@M@Z 00000001800d4de0 f i GuRTreeQueries.obj
 0001:000d4180       ??$traverseRay@$0A@@RTree@Gu@physx@@QEBAXAEBVPxVec3@2@0IPEAIPEAUCallbackRaycast@012@PEBV32@M@Z 00000001800d5180 f i GuRTreeQueries.obj
 0001:000d44d0       ?traverseAABB@RTree@Gu@physx@@QEBAXAEBVPxVec3@3@0IPEAIPEAUCallback@123@@Z 00000001800d54d0 f   GuRTreeQueries.obj
 0001:000d4690       ?traverseOBB@RTree@Gu@physx@@QEBAXAEBVBox@23@IPEAIPEAUCallback@123@@Z 00000001800d5690 f   GuRTreeQueries.obj
 0001:000d4f70       ??0SweepBoxMeshHitCallback@Gu@physx@@QEAA@W4Enum@CallbackMode@12@AEBVMatrix34Padded@12@M_NAEBVBox@12@AEBVPxVec3@2@44AEBV?$PxFlags@W4Enum@PxHitFlag@physx@@G@2@M2M@Z 00000001800d5f70 f   GuSweepsMesh.obj
 0001:000d5080       ??0SweepCapsuleMeshHitCallback@Gu@physx@@QEAA@AEAUPxSweepHit@2@AEBVMatrix34@Cm@2@M_NAEBVCapsule@12@AEBVPxVec3@2@AEBV?$PxFlags@W4Enum@PxHitFlag@physx@@G@2@2M@Z 00000001800d6080 f   GuSweepsMesh.obj
 0001:000d5150       ??0SweepConvexMeshHitCallback@Gu@physx@@QEAA@AEBUConvexHullData@12@AEBVPxMeshScale@2@AEBVFastVertex2ShapeScaling@Cm@2@AEBVPxTransform@2@3AEBVPxVec3@2@MV?$PxFlags@W4Enum@PxHitFlag@physx@@G@2@_NM6M@Z 00000001800d6150 f   GuSweepsMesh.obj
 0001:000d5ad0       ??_GSweepBoxMeshHitCallback@Gu@physx@@UEAAPEAXI@Z 00000001800d6ad0 f i GuSweepsMesh.obj
 0001:000d5ad0       ??_ESweepBoxMeshHitCallback@Gu@physx@@UEAAPEAXI@Z 00000001800d6ad0 f i GuSweepsMesh.obj
 0001:000d5b00       ??_GSweepCapsuleMeshHitCallback@Gu@physx@@UEAAPEAXI@Z 00000001800d6b00 f i GuSweepsMesh.obj
 0001:000d5b00       ??_ESweepCapsuleMeshHitCallback@Gu@physx@@UEAAPEAXI@Z 00000001800d6b00 f i GuSweepsMesh.obj
 0001:000d5b30       ??_ESweepConvexMeshHitCallback@Gu@physx@@UEAAPEAXI@Z 00000001800d6b30 f i GuSweepsMesh.obj
 0001:000d5b30       ??_GSweepConvexMeshHitCallback@Gu@physx@@UEAAPEAXI@Z 00000001800d6b30 f i GuSweepsMesh.obj
 0001:000d5b60       ??_GSweepShapeMeshHitCallback@Gu@physx@@UEAAPEAXI@Z 00000001800d6b60 f i GuSweepsMesh.obj
 0001:000d5b60       ??_ESweepShapeMeshHitCallback@Gu@physx@@UEAAPEAXI@Z 00000001800d6b60 f i GuSweepsMesh.obj
 0001:000d5b90       ?finalizeHit@SweepBoxMeshHitCallback@Gu@physx@@QEBA_NAEAUPxSweepHit@3@AEBVPxTriangleMeshGeometry@3@AEBVPxTransform@3@2AEBVPxVec3@3@_N4@Z 00000001800d6b90 f   GuSweepsMesh.obj
 0001:000d6260       ?finalizeHit@SweepCapsuleMeshHitCallback@Gu@physx@@QEBA_NAEAUPxSweepHit@3@AEBVCapsule@23@AEBVPxTriangleMeshGeometry@3@AEBVPxTransform@3@_N@Z 00000001800d7260 f   GuSweepsMesh.obj
 0001:000d63f0       ?finalizeHit@SweepConvexMeshHitCallback@Gu@physx@@QEAA_NAEAUPxSweepHit@3@AEBVPxTriangleMeshGeometry@3@AEBVPxTransform@3@AEBVPxConvexMeshGeometry@3@2AEBVPxVec3@3@M_N555@Z 00000001800d73f0 f   GuSweepsMesh.obj
 0001:000d68e0       ?processHit@SweepBoxMeshHitCallback@Gu@physx@@UEAA_NAEBUPxRaycastHit@3@AEBVPxVec3@3@11AEAMPEBI@Z 00000001800d78e0 f   GuSweepsMesh.obj
 0001:000d70f0       ?processHit@SweepCapsuleMeshHitCallback@Gu@physx@@UEAA_NAEBUPxRaycastHit@3@AEBVPxVec3@3@11AEAMPEBI@Z 00000001800d80f0 f   GuSweepsMesh.obj
 0001:000d7620       ?processHit@SweepConvexMeshHitCallback@Gu@physx@@UEAA_NAEBUPxRaycastHit@3@AEBVPxVec3@3@11AEAMPEBI@Z 00000001800d8620 f   GuSweepsMesh.obj
 0001:000d7d70       ?sweepBox_MeshGeom@@YA_NAEBVPxGeometry@physx@@AEBVPxTransform@2@AEBVPxBoxGeometry@2@1AEBVBox@Gu@2@AEBVPxVec3@2@MAEAUPxSweepHit@2@V?$PxFlags@W4Enum@PxHitFlag@physx@@G@2@M@Z 00000001800d8d70 f   GuSweepsMesh.obj
 0001:000d7e00       ?sweepCapsule_MeshGeom@@YA_NAEBVPxGeometry@physx@@AEBVPxTransform@2@AEBVPxCapsuleGeometry@2@1AEBVCapsule@Gu@2@AEBVPxVec3@2@MAEAUPxSweepHit@2@V?$PxFlags@W4Enum@PxHitFlag@physx@@G@2@M@Z 00000001800d8e00 f   GuSweepsMesh.obj
 0001:000d7e90       ?sweepConvex_MeshGeom@@YA_NAEBVPxGeometry@physx@@AEBVPxTransform@2@AEBVPxConvexMeshGeometry@2@1AEBVPxVec3@2@MAEAUPxSweepHit@2@V?$PxFlags@W4Enum@PxHitFlag@physx@@G@2@M@Z 00000001800d8e90 f   GuSweepsMesh.obj
 0001:000d8ad0       ??0TriangleMesh@Gu@physx@@QEAA@AEAVGuMeshFactory@2@AEAVTriangleMeshData@12@@Z 00000001800d9ad0 f   GuTriangleMesh.obj
 0001:000d8c60       ??1TriangleMesh@Gu@physx@@UEAA@XZ 00000001800d9c60 f   GuTriangleMesh.obj
 0001:000d8e14       ??_ETriangleMesh@Gu@physx@@WBA@EAAPEAXI@Z 00000001800d9e14 f i GuTriangleMesh.obj
 0001:000d8e20       ??_GTriangleMesh@Gu@physx@@UEAAPEAXI@Z 00000001800d9e20 f i GuTriangleMesh.obj
 0001:000d8e20       ??_ETriangleMesh@Gu@physx@@UEAAPEAXI@Z 00000001800d9e20 f i GuTriangleMesh.obj
 0001:000d8e90       ?exportExtraData@TriangleMesh@Gu@physx@@UEAAXAEAVPxSerializationContext@3@@Z 00000001800d9e90 f   GuTriangleMesh.obj
 0001:000d8fd0       ?getLocalBounds@TriangleMesh@Gu@physx@@UEBA?AVPxBounds3@3@XZ 00000001800d9fd0 f i GuTriangleMesh.obj
 0001:000d9060       ?getNbVertices@TriangleMesh@Gu@physx@@UEBAIXZ 00000001800da060 f i GuTriangleMesh.obj
 0001:000d9070       ?getTriangleMaterialIndex@TriangleMesh@Gu@physx@@UEBAGI@Z 00000001800da070 f i GuTriangleMesh.obj
 0001:000d9090       ?getTriangleMeshFlags@TriangleMesh@Gu@physx@@UEBA?AV?$PxFlags@W4Enum@PxTriangleMeshFlag@physx@@E@3@XZ 00000001800da090 f i GuTriangleMesh.obj
 0001:000d90a0       ?getTrianglesRemap@TriangleMesh@Gu@physx@@UEBAPEBIXZ 00000001800da0a0 f i GuTriangleMesh.obj
 0001:000d90b0       ?getVertices@TriangleMesh@Gu@physx@@UEBAPEBVPxVec3@3@XZ 00000001800da0b0 f i GuTriangleMesh.obj
 0001:000d90c0       ?getVerticesForModification@TriangleMesh@Gu@physx@@UEAAPEAVPxVec3@3@XZ 00000001800da0c0 f   GuTriangleMesh.obj
 0001:000d9100       ?importExtraData@TriangleMesh@Gu@physx@@QEAAXAEAVPxDeserializationContext@3@@Z 00000001800da100 f   GuTriangleMesh.obj
 0001:000d9210       ?isKindOf@PxTriangleMesh@physx@@MEBA_NPEBD@Z 00000001800da210 f i GuTriangleMesh.obj
 0001:000d9260       ?onRefCountZero@TriangleMesh@Gu@physx@@UEAAXXZ 00000001800da260 f   GuTriangleMesh.obj
 0001:000d9300       ?refitBVH@TriangleMesh@Gu@physx@@UEAA?AVPxBounds3@3@XZ 00000001800da300 f   GuTriangleMesh.obj
 0001:000d93d0       ??0BV4TriangleMesh@Gu@physx@@QEAA@AEAVGuMeshFactory@2@AEAVTriangleMeshData@12@@Z 00000001800da3d0 f   GuTriangleMeshBV4.obj
 0001:000d9464       ??_EBV4TriangleMesh@Gu@physx@@WBA@EAAPEAXI@Z 00000001800da464 f i GuTriangleMeshBV4.obj
 0001:000d9470       ??_EBV4TriangleMesh@Gu@physx@@UEAAPEAXI@Z 00000001800da470 f i GuTriangleMeshBV4.obj
 0001:000d9470       ??_GBV4TriangleMesh@Gu@physx@@UEAAPEAXI@Z 00000001800da470 f i GuTriangleMeshBV4.obj
 0001:000d9500       ?createObject@BV4TriangleMesh@Gu@physx@@SAPEAVTriangleMesh@23@AEAPEAEAEAVPxDeserializationContext@3@@Z 00000001800da500 f   GuTriangleMeshBV4.obj
 0001:000d95f0       ?exportExtraData@BV4TriangleMesh@Gu@physx@@UEAAXAEAVPxSerializationContext@3@@Z 00000001800da5f0 f   GuTriangleMeshBV4.obj
 0001:000d9630       ?getConcreteTypeName@BV4TriangleMesh@Gu@physx@@UEBAPEBDXZ 00000001800da630 f i GuTriangleMeshBV4.obj
 0001:000d9640       ?length@charNode@@UEBAHXZ  00000001800da640 f i libvcruntime:undname.obj
 0001:000d9640       DllMain                    00000001800da640 f i LIBCMT:dll_dllmain_stub.obj
 0001:000d9640       ?raw_length@charNode@@UEBAHXZ 00000001800da640 f i libvcruntime:undname.obj
 0001:000d9640       _get_startup_argv_mode     00000001800da640 f i LIBCMT:argv_mode.obj
 0001:000d9640       ?getMidphaseID@BV4TriangleMesh@Gu@physx@@UEBA?AW4Enum@PxMeshMidPhase@3@XZ 00000001800da640 f i GuTriangleMeshBV4.obj
 0001:000d9650       ??0RTreeTriangleMesh@Gu@physx@@QEAA@AEAVGuMeshFactory@2@AEAVTriangleMeshData@12@@Z 00000001800da650 f   GuTriangleMeshRTree.obj
 0001:000d97c8       ??_ERTreeTriangleMesh@Gu@physx@@WBA@EAAPEAXI@Z 00000001800da7c8 f i GuTriangleMeshRTree.obj
 0001:000d97e0       ??_E?$RefitCallback@I@physx@@UEAAPEAXI@Z 00000001800da7e0 f i GuTriangleMeshRTree.obj
 0001:000d97e0       ??_G?$RefitCallback@I@physx@@UEAAPEAXI@Z 00000001800da7e0 f i GuTriangleMeshRTree.obj
 0001:000d97e0       ??_E?$RefitCallback@G@physx@@UEAAPEAXI@Z 00000001800da7e0 f i GuTriangleMeshRTree.obj
 0001:000d97e0       ??_G?$RefitCallback@G@physx@@UEAAPEAXI@Z 00000001800da7e0 f i GuTriangleMeshRTree.obj
 0001:000d9810       ??_ERTreeTriangleMesh@Gu@physx@@UEAAPEAXI@Z 00000001800da810 f i GuTriangleMeshRTree.obj
 0001:000d9810       ??_GRTreeTriangleMesh@Gu@physx@@UEAAPEAXI@Z 00000001800da810 f i GuTriangleMeshRTree.obj
 0001:000d98d0       ?createObject@RTreeTriangleMesh@Gu@physx@@SAPEAVTriangleMesh@23@AEAPEAEAEAVPxDeserializationContext@3@@Z 00000001800da8d0 f   GuTriangleMeshRTree.obj
 0001:000d9970       ?exportExtraData@RTreeTriangleMesh@Gu@physx@@UEAAXAEAVPxSerializationContext@3@@Z 00000001800da970 f   GuTriangleMeshRTree.obj
 0001:000d99b0       ?getConcreteTypeName@RTreeTriangleMesh@Gu@physx@@UEBAPEBDXZ 00000001800da9b0 f i GuTriangleMeshRTree.obj
 0001:000d99c0       ?getMidphaseID@RTreeTriangleMesh@Gu@physx@@UEBA?AW4Enum@PxMeshMidPhase@3@XZ 00000001800da9c0 f i GuTriangleMeshRTree.obj
 0001:000d99d0       ?getVerticesForModification@RTreeTriangleMesh@Gu@physx@@UEAAPEAVPxVec3@3@XZ 00000001800da9d0 f   GuTriangleMeshRTree.obj
 0001:000d99e0       ?recomputeBounds@?$RefitCallback@G@physx@@UEAAXIAEAT__m128@@0@Z 00000001800da9e0 f i GuTriangleMeshRTree.obj
 0001:000d9d10       ?recomputeBounds@?$RefitCallback@I@physx@@UEAAXIAEAT__m128@@0@Z 00000001800dad10 f i GuTriangleMeshRTree.obj
 0001:000da030       ?refitBVH@RTreeTriangleMesh@Gu@physx@@UEAA?AVPxBounds3@3@XZ 00000001800db030 f   GuTriangleMeshRTree.obj
 0001:000da250       ??0BV32Tree@Gu@physx@@QEAA@PEAVSourceMesh@12@AEBVPxBounds3@2@@Z 00000001800db250 f   GuBV32.obj
 0001:000da310       ??0BV32Tree@Gu@physx@@QEAA@XZ 00000001800db310 f   GuBV32.obj
 0001:000da340       ??1BV32Tree@Gu@physx@@QEAA@XZ 00000001800db340 f   GuBV32.obj
 0001:000da350       ?calculateLeafNode@BV32Tree@Gu@physx@@QEAAXAEAUBV32Data@23@@Z 00000001800db350 f   GuBV32.obj
 0001:000da590       ?createSOAformatNode@BV32Tree@Gu@physx@@QEAAXAEAUBV32DataPacked@23@AEBUBV32Data@23@IAEAI2@Z 00000001800db590 f   GuBV32.obj
 0001:000da9e0       ?load@BV32Tree@Gu@physx@@QEAA_NAEAVPxInputStream@3@_N@Z 00000001800db9e0 f   GuBV32.obj
 0001:000dac20       ?release@BV32Tree@Gu@physx@@QEAAXXZ 00000001800dbc20 f   GuBV32.obj
 0001:000dacb0       ??0BV32Node@@QEAA@XZ       00000001800dbcb0 f i GuBV32Build.obj
 0001:000dafd0       ?BuildBV32Ex@Gu@physx@@YA_NAEAVBV32Tree@12@AEAVSourceMesh@12@MI@Z 00000001800dbfd0 f   GuBV32Build.obj
 0001:000de7a0       ?pcmContactBoxBox@Gu@physx@@YA_NAEBVGeometryUnion@12@0AEBVPxTransform@2@1AEBUNarrowPhaseParams@12@AEAUCache@12@AEAVContactBuffer@12@PEAVRenderOutput@Cm@2@@Z 00000001800df7a0 f   GuPCMContactBoxBox.obj
 0001:000df5b0       ??$gjkPenetration@U?$RelativeConvex@VBoxV@Gu@physx@@@Gu@physx@@U?$LocalConvex@VConvexHullNoScaleV@Gu@physx@@@23@@Gu@physx@@YA?AW4GjkStatus@01@AEBU?$RelativeConvex@VBoxV@Gu@physx@@@01@AEBU?$LocalConvex@VConvexHullNoScaleV@Gu@physx@@@01@AEBT__m128@@2_NPEIAE4AEAEAEAUGjkOutput@01@@Z 00000001800e05b0 f i GuPCMContactBoxConvex.obj
 0001:000e11a0       ?pcmContactBoxConvex@Gu@physx@@YA_NAEBVGeometryUnion@12@0AEBVPxTransform@2@1AEBUNarrowPhaseParams@12@AEAUCache@12@AEAVContactBuffer@12@PEAVRenderOutput@Cm@2@@Z 00000001800e21a0 f   GuPCMContactBoxConvex.obj
 0001:000e2030       ?support@?$LocalConvex@VConvexHullNoScaleV@Gu@physx@@@Gu@physx@@UEBA?AT__m128@@AEBT4@@Z 00000001800e3030 f i GuPCMContactBoxConvex.obj
 0001:000e2080       ?support@?$LocalConvex@VConvexHullNoScaleV@Gu@physx@@@Gu@physx@@UEBA?AT__m128@@AEBT4@AEAH@Z 00000001800e3080 f i GuPCMContactBoxConvex.obj
 0001:000e20e0       ?supportPoint@?$LocalConvex@VConvexHullNoScaleV@Gu@physx@@@Gu@physx@@UEBA?AT__m128@@H@Z 00000001800e30e0 f i GuPCMContactBoxConvex.obj
 0001:000e2110       ?pcmContactCapsuleBox@Gu@physx@@YA_NAEBVGeometryUnion@12@0AEBVPxTransform@2@1AEBUNarrowPhaseParams@12@AEAUCache@12@AEAVContactBuffer@12@PEAVRenderOutput@Cm@2@@Z 00000001800e3110 f   GuPCMContactCapsuleBox.obj
 0001:000e3070       ?pcmContactCapsuleCapsule@Gu@physx@@YA_NAEBVGeometryUnion@12@0AEBVPxTransform@2@1AEBUNarrowPhaseParams@12@AEAUCache@12@AEAVContactBuffer@12@PEAVRenderOutput@Cm@2@@Z 00000001800e4070 f   GuPCMContactCapsuleCapsule.obj
 0001:000e38f0       ??$gjkPenetration@U?$LocalConvex@VCapsuleV@Gu@physx@@@Gu@physx@@U?$LocalConvex@VConvexHullNoScaleV@Gu@physx@@@23@@Gu@physx@@YA?AW4GjkStatus@01@AEBU?$LocalConvex@VCapsuleV@Gu@physx@@@01@AEBU?$LocalConvex@VConvexHullNoScaleV@Gu@physx@@@01@AEBT__m128@@2_NPEIAE4AEAEAEAUGjkOutput@01@@Z 00000001800e48f0 f i GuPCMContactCapsuleConvex.obj
 0001:000e5050       ?pcmContactCapsuleConvex@Gu@physx@@YA_NAEBVGeometryUnion@12@0AEBVPxTransform@2@1AEBUNarrowPhaseParams@12@AEAUCache@12@AEAVContactBuffer@12@PEAVRenderOutput@Cm@2@@Z 00000001800e6050 f   GuPCMContactCapsuleConvex.obj
 0001:000e6260       ??0PCMMeshContactGeneration@Gu@physx@@QEAA@AEBT__m128@@0AEBVPsTransformV@aos@shdfnd@2@1AEAVMultiplePersistentContactManifold@12@AEAVContactBuffer@12@PEAV?$InlineArray@I$0EEA@VNamedAllocator@shdfnd@physx@@@62@PEAVRenderOutput@Cm@2@@Z 00000001800e7260 f i GuPCMContactCapsuleHeightField.obj
 0001:000e6b70       ??_GPCMCapsuleVsHeightfieldContactGenerationCallback@physx@@UEAAPEAXI@Z 00000001800e7b70 f i GuPCMContactCapsuleHeightField.obj
 0001:000e6b70       ??_EPCMCapsuleVsHeightfieldContactGenerationCallback@physx@@UEAAPEAXI@Z 00000001800e7b70 f i GuPCMContactCapsuleHeightField.obj
 0001:000e6ba0       ?onEvent@?$PCMHeightfieldContactGenerationCallback@UPCMCapsuleVsHeightfieldContactGenerationCallback@physx@@@Gu@physx@@UEAA_NIPEAI@Z 00000001800e7ba0 f i GuPCMContactCapsuleHeightField.obj
 0001:000e7160       ?pcmContactCapsuleHeightField@Gu@physx@@YA_NAEBVGeometryUnion@12@0AEBVPxTransform@2@1AEBUNarrowPhaseParams@12@AEAUCache@12@AEAVContactBuffer@12@PEAVRenderOutput@Cm@2@@Z 00000001800e8160 f   GuPCMContactCapsuleHeightField.obj
 0001:000e7e80       ??$processTriangleCache@$0BA@@PCMCapsuleVsMeshContactGenerationCallback@physx@@QEAAXAEAU?$TriangleCache@$0BA@@Gu@1@@Z 00000001800e8e80 f i GuPCMContactCapsuleMesh.obj
 0001:000e7f10       ??_EPCMCapsuleVsMeshContactGenerationCallback@physx@@UEAAPEAXI@Z 00000001800e8f10 f i GuPCMContactCapsuleMesh.obj
 0001:000e7f10       ??_GPCMCapsuleVsMeshContactGenerationCallback@physx@@UEAAPEAXI@Z 00000001800e8f10 f i GuPCMContactCapsuleMesh.obj
 0001:000e7f40       ?pcmContactCapsuleMesh@Gu@physx@@YA_NAEBVGeometryUnion@12@0AEBVPxTransform@2@1AEBUNarrowPhaseParams@12@AEAUCache@12@AEAVContactBuffer@12@PEAVRenderOutput@Cm@2@@Z 00000001800e8f40 f   GuPCMContactCapsuleMesh.obj
 0001:000e8e50       ?processHit@?$PCMMeshContactGenerationCallback@UPCMCapsuleVsMeshContactGenerationCallback@physx@@@Gu@physx@@UEAA_NAEBUPxRaycastHit@3@AEBVPxVec3@3@11AEAMPEBI@Z 00000001800e9e50 f i GuPCMContactCapsuleMesh.obj
 0001:000e9210       ??$sort@USortedTriangle@Gu@physx@@U?$Less@USortedTriangle@Gu@physx@@@shdfnd@3@VNamedAllocator@53@@shdfnd@physx@@YAXPEAUSortedTriangle@Gu@1@IAEBU?$Less@USortedTriangle@Gu@physx@@@01@AEBVNamedAllocator@01@I@Z 00000001800ea210 f i GuPCMContactConvexCommon.obj
 0001:000e96c0       ?addContactsToPatch@PCMConvexVsMeshContactGeneration@Gu@physx@@QEAAXAEBT__m128@@I@Z 00000001800ea6c0 f   GuPCMContactConvexCommon.obj
 0001:000e9fe0       ?addToPatch@PCMSphereVsMeshContactGeneration@Gu@physx@@QEAAXAEBT__m128@@0T4@I@Z 00000001800eafe0 f   GuPCMContactConvexCommon.obj
 0001:000ea680       ?allocate@?$Array@USortedTriangle@Gu@physx@@V?$InlineAllocator@$0IAA@VNamedAllocator@shdfnd@physx@@@shdfnd@3@@shdfnd@physx@@IEAAPEAUSortedTriangle@Gu@3@I@Z 00000001800eb680 f i GuPCMContactConvexCommon.obj
 0001:000ea710       ?doSupport@?$SupportLocalImpl@VTriangleV@Gu@physx@@@Gu@physx@@UEBA?AT__m128@@AEBT4@@Z 00000001800eb710 f i GuPCMContactConvexCommon.obj
 0001:000ea7a0       ?doSupport@?$SupportLocalImpl@VTriangleV@Gu@physx@@@Gu@physx@@UEBAXAEBT__m128@@AEAT4@1@Z 00000001800eb7a0 f i GuPCMContactConvexCommon.obj
 0001:000ea810       ?generateContacts@PCMCapsuleVsMeshContactGeneration@Gu@physx@@SA_NAEBT__m128@@0000I000PEAVMeshPersistentContact@23@AEAI@Z 00000001800eb810 f   GuPCMContactConvexCommon.obj
 0001:000eac90       ?generateEE@PCMCapsuleVsMeshContactGeneration@Gu@physx@@QEAAXAEBT__m128@@000I00PEAVMeshPersistentContact@23@AEAI@Z 00000001800ebc90 f   GuPCMContactConvexCommon.obj
 0001:000eaf10       ?generateEEMTD@PCMCapsuleVsMeshContactGeneration@Gu@physx@@SAXAEBT__m128@@000I00PEAVMeshPersistentContact@23@AEAI@Z 00000001800ebf10 f   GuPCMContactConvexCommon.obj
 0001:000eb160       ?generateLastContacts@PCMConvexVsMeshContactGeneration@Gu@physx@@QEAAXXZ 00000001800ec160 f   GuPCMContactConvexCommon.obj
 0001:000eb6a0       ?generateLastContacts@PCMSphereVsMeshContactGeneration@Gu@physx@@QEAAXXZ 00000001800ec6a0 f   GuPCMContactConvexCommon.obj
 0001:000ebb20       ?growAndPushBack@?$Array@USortedTriangle@Gu@physx@@V?$InlineAllocator@$0IAA@VNamedAllocator@shdfnd@physx@@@shdfnd@3@@shdfnd@physx@@IEAAAEAUSortedTriangle@Gu@3@AEBU453@@Z 00000001800ecb20 f i GuPCMContactConvexCommon.obj
 0001:000ec160       ?pcmDistanceSegmentTriangleSquared@Gu@physx@@YA?AT__m128@@AEBT3@0000AEAT3@11@Z 00000001800ed160 f   GuPCMContactConvexCommon.obj
 0001:000ecaa0       ?populateVerts@?$SupportLocalImpl@VTriangleV@Gu@physx@@@Gu@physx@@UEBAXPEBEIPEBVPxVec3@3@PEAT__m128@@@Z 00000001800edaa0 f i GuPCMContactConvexCommon.obj
 0001:000ecbe0       ?processTriangle@PCMCapsuleVsMeshContactGeneration@Gu@physx@@QEAA_NPEBVPxVec3@3@IEPEBI@Z 00000001800edbe0 f   GuPCMContactConvexCommon.obj
 0001:000ed780       ?processTriangle@PCMCapsuleVsMeshContactGeneration@Gu@physx@@SA_NAEBVTriangleV@23@IAEBVCapsuleV@23@AEBT__m128@@EPEAVMeshPersistentContact@23@AEAI@Z 00000001800ee780 f   GuPCMContactConvexCommon.obj
 0001:000edac0       ?processTriangle@PCMConvexVsMeshContactGeneration@Gu@physx@@QEAA_NPEBVPxVec3@3@IEPEBI@Z 00000001800eeac0 f   GuPCMContactConvexCommon.obj
 0001:000ee030       ?processTriangle@PCMConvexVsMeshContactGeneration@Gu@physx@@SA_NAEBUPolygonalData@23@PEAVSupportLocal@23@PEBVPxVec3@3@IEAEBT__m128@@_NAEBVPsTransformV@aos@shdfnd@3@AEBVPsMatTransformV@9shdfnd@3@PEAVMeshPersistentContact@23@AEAI@Z 00000001800ef030 f   GuPCMContactConvexCommon.obj
 0001:000ee2b0       ?processTriangle@PCMSphereVsMeshContactGeneration@Gu@physx@@QEAA_NPEBVPxVec3@3@IEPEBI@Z 00000001800ef2b0 f   GuPCMContactConvexCommon.obj
 0001:000ee6c0       ??$gjkPenetration@U?$RelativeConvex@VConvexHullNoScaleV@Gu@physx@@@Gu@physx@@U?$LocalConvex@VConvexHullNoScaleV@Gu@physx@@@23@@Gu@physx@@YA?AW4GjkStatus@01@AEBU?$RelativeConvex@VConvexHullNoScaleV@Gu@physx@@@01@AEBU?$LocalConvex@VConvexHullNoScaleV@Gu@physx@@@01@AEBT__m128@@2_NPEIAE4AEAEAEAUGjkOutput@01@@Z 00000001800ef6c0 f i GuPCMContactConvexConvex.obj
 0001:000efc30       ??$gjkPenetration@U?$RelativeConvex@VConvexHullNoScaleV@Gu@physx@@@Gu@physx@@U?$LocalConvex@VConvexHullV@Gu@physx@@@23@@Gu@physx@@YA?AW4GjkStatus@01@AEBU?$RelativeConvex@VConvexHullNoScaleV@Gu@physx@@@01@AEBU?$LocalConvex@VConvexHullV@Gu@physx@@@01@AEBT__m128@@2_NPEIAE4AEAEAEAUGjkOutput@01@@Z 00000001800f0c30 f i GuPCMContactConvexConvex.obj
 0001:000f1210       ??$gjkPenetration@U?$RelativeConvex@VConvexHullV@Gu@physx@@@Gu@physx@@U?$LocalConvex@VConvexHullNoScaleV@Gu@physx@@@23@@Gu@physx@@YA?AW4GjkStatus@01@AEBU?$RelativeConvex@VConvexHullV@Gu@physx@@@01@AEBU?$LocalConvex@VConvexHullNoScaleV@Gu@physx@@@01@AEBT__m128@@2_NPEIAE4AEAEAEAUGjkOutput@01@@Z 00000001800f2210 f i GuPCMContactConvexConvex.obj
 0001:000f31e0       ?pcmContactConvexConvex@Gu@physx@@YA_NAEBVGeometryUnion@12@0AEBVPxTransform@2@1AEBUNarrowPhaseParams@12@AEAUCache@12@AEAVContactBuffer@12@PEAVRenderOutput@Cm@2@@Z 00000001800f41e0 f   GuPCMContactConvexConvex.obj
 0001:000f4350       ?support@?$RelativeConvex@VConvexHullNoScaleV@Gu@physx@@@Gu@physx@@UEBA?AT__m128@@AEBT4@@Z 00000001800f5350 f i GuPCMContactConvexConvex.obj
 0001:000f4400       ?support@?$RelativeConvex@VConvexHullNoScaleV@Gu@physx@@@Gu@physx@@UEBA?AT__m128@@AEBT4@AEAH@Z 00000001800f5400 f i GuPCMContactConvexConvex.obj
 0001:000f44c0       ?supportPoint@?$RelativeConvex@VConvexHullNoScaleV@Gu@physx@@@Gu@physx@@UEBA?AT__m128@@H@Z 00000001800f54c0 f i GuPCMContactConvexConvex.obj
 0001:000f4520       ??_EPCMConvexVsHeightfieldContactGenerationCallback@physx@@UEAAPEAXI@Z 00000001800f5520 f i GuPCMContactConvexHeightField.obj
 0001:000f4520       ??_GPCMConvexVsHeightfieldContactGenerationCallback@physx@@UEAAPEAXI@Z 00000001800f5520 f i GuPCMContactConvexHeightField.obj
 0001:000f4550       ?PCMContactConvexHeightfield@Gu@physx@@YA_NAEBUPolygonalData@12@PEAVSupportLocal@12@AEBT__m128@@AEBVPxBounds3@2@AEBVPxHeightFieldGeometry@2@AEBVPxTransform@2@5MAEAVContactBuffer@12@AEBVFastVertex2ShapeScaling@Cm@2@_NAEAVMultiplePersistentContactManifold@12@PEAVRenderOutput@Cm@2@@Z 00000001800f5550 f   GuPCMContactConvexHeightField.obj
 0001:000f50c0       ?onEvent@?$PCMHeightfieldContactGenerationCallback@UPCMConvexVsHeightfieldContactGenerationCallback@physx@@@Gu@physx@@UEAA_NIPEAI@Z 00000001800f60c0 f i GuPCMContactConvexHeightField.obj
 0001:000f5680       ?pcmContactBoxHeightField@Gu@physx@@YA_NAEBVGeometryUnion@12@0AEBVPxTransform@2@1AEBUNarrowPhaseParams@12@AEAUCache@12@AEAVContactBuffer@12@PEAVRenderOutput@Cm@2@@Z 00000001800f6680 f   GuPCMContactConvexHeightField.obj
 0001:000f5900       ?pcmContactConvexHeightField@Gu@physx@@YA_NAEBVGeometryUnion@12@0AEBVPxTransform@2@1AEBUNarrowPhaseParams@12@AEAUCache@12@AEAVContactBuffer@12@PEAVRenderOutput@Cm@2@@Z 00000001800f6900 f   GuPCMContactConvexHeightField.obj
 0001:000f5fa0       ??$processTriangleCache@$0BA@@PCMConvexVsMeshContactGenerationCallback@physx@@QEAAXAEAU?$TriangleCache@$0BA@@Gu@1@@Z 00000001800f6fa0 f i GuPCMContactConvexMesh.obj
 0001:000f6030       ??_EPCMConvexVsMeshContactGenerationCallback@physx@@UEAAPEAXI@Z 00000001800f7030 f i GuPCMContactConvexMesh.obj
 0001:000f6030       ??_GPCMConvexVsMeshContactGenerationCallback@physx@@UEAAPEAXI@Z 00000001800f7030 f i GuPCMContactConvexMesh.obj
 0001:000f6060       ?PCMContactConvexMesh@Gu@physx@@YA_NAEBUPolygonalData@12@PEAVSupportLocal@12@AEBT__m128@@AEBVPxBounds3@2@AEBUPxTriangleMeshGeometryLL@2@AEBVPxTransform@2@5MAEAVContactBuffer@12@AEBVFastVertex2ShapeScaling@Cm@2@7_N8AEAVMultiplePersistentContactManifold@12@PEAVRenderOutput@Cm@2@@Z 00000001800f7060 f   GuPCMContactConvexMesh.obj
 0001:000f6cc0       ?pcmContactBoxMesh@Gu@physx@@YA_NAEBVGeometryUnion@12@0AEBVPxTransform@2@1AEBUNarrowPhaseParams@12@AEAUCache@12@AEAVContactBuffer@12@PEAVRenderOutput@Cm@2@@Z 00000001800f7cc0 f   GuPCMContactConvexMesh.obj
 0001:000f6fe0       ?pcmContactConvexMesh@Gu@physx@@YA_NAEBVGeometryUnion@12@0AEBVPxTransform@2@1AEBUNarrowPhaseParams@12@AEAUCache@12@AEAVContactBuffer@12@PEAVRenderOutput@Cm@2@@Z 00000001800f7fe0 f   GuPCMContactConvexMesh.obj
 0001:000f77a0       ?processHit@?$PCMMeshContactGenerationCallback@UPCMConvexVsMeshContactGenerationCallback@physx@@@Gu@physx@@UEAA_NAEBUPxRaycastHit@3@AEBVPxVec3@3@11AEAMPEBI@Z 00000001800f87a0 f i GuPCMContactConvexMesh.obj
 0001:000f7bd0       ?addGJKEPAContacts@Gu@physx@@YA_NPEBUGjkConvex@12@0AEBVPsMatTransformV@aos@shdfnd@2@W4GjkStatus@12@PEAVPersistentContact@12@T__m128@@4AEAUGjkOutput@12@AEAVPersistentContactManifold@12@@Z 00000001800f8bd0 f   GuPCMContactGenBoxConvex.obj
 0001:000f7dd0       ?buildPartialHull@Gu@physx@@YAXAEBUPolygonalData@12@PEAVSupportLocal@12@AEAVSeparatingAxes@12@AEBT__m128@@3@Z 00000001800f8dd0 f   GuPCMContactGenBoxConvex.obj
 0001:000f8090       ?computeMTD@Gu@physx@@YA_NAEAUPolygonalData@12@0PEAVSupportLocal@12@1AEAT__m128@@2@Z 00000001800f9090 f   GuPCMContactGenBoxConvex.obj
 0001:000f86f0       ?generateFullContactManifold@Gu@physx@@YA_NAEAUPolygonalData@12@0PEAVSupportLocal@12@1PEAVPersistentContact@12@AEAIAEBT__m128@@444MM_NPEAVRenderOutput@Cm@2@M@Z 00000001800f96f0 f   GuPCMContactGenBoxConvex.obj
 0001:000f9f20       ?generatedContacts@Gu@physx@@YAXAEAUPolygonalData@12@0AEBUHullPolygonData@12@1PEAVSupportLocal@12@2AEBVPsMatTransformV@aos@shdfnd@2@PEAVPersistentContact@12@AEAIAEBT__m128@@PEAVRenderOutput@Cm@2@@Z 00000001800faf20 f   GuPCMContactGenBoxConvex.obj
 0001:000fb640       ?computeMTD@Gu@physx@@YA_NAEBVCapsuleV@12@AEAUPolygonalData@12@PEAVSupportLocal@12@AEAT__m128@@3@Z 00000001800fc640 f   GuPCMContactGenSphereCapsule.obj
 0001:000fb730       ?generateCapsuleBoxFullContactManifold@Gu@physx@@YA_NAEBVCapsuleV@12@AEAUPolygonalData@12@PEAVSupportLocal@12@AEBVPsMatTransformV@aos@shdfnd@2@PEAVPersistentContact@12@AEAIAEBT__m128@@AEAT__m128@@6M_NMPEAVRenderOutput@Cm@2@@Z 00000001800fc730 f   GuPCMContactGenSphereCapsule.obj
 0001:000fbfb0       ?generateFullContactManifold@Gu@physx@@YA_NAEBVCapsuleV@12@AEAUPolygonalData@12@PEAVSupportLocal@12@AEBVPsMatTransformV@aos@shdfnd@2@PEAVPersistentContact@12@AEAIAEBT__m128@@AEAT__m128@@6M_NM@Z 00000001800fcfb0 f   GuPCMContactGenSphereCapsule.obj
 0001:000fc8b0       ?generateSphereFullContactManifold@Gu@physx@@YA_NAEBVCapsuleV@12@AEAUPolygonalData@12@PEAVSupportLocal@12@PEAVPersistentContact@12@AEAIAEBT__m128@@AEAT7@_N@Z 00000001800fd8b0 f   GuPCMContactGenSphereCapsule.obj
 0001:000fcd00       ?generatedCapsuleBoxFaceContacts@Gu@physx@@YAXAEBVCapsuleV@12@AEAUPolygonalData@12@AEBUHullPolygonData@12@PEAVSupportLocal@12@AEBVPsMatTransformV@aos@shdfnd@2@PEAVPersistentContact@12@AEAIAEBT__m128@@7@Z 00000001800fdd00 f   GuPCMContactGenSphereCapsule.obj
 0001:000fd4a0       ?generatedContactsEEContacts@Gu@physx@@YAXAEBVCapsuleV@12@AEAUPolygonalData@12@AEBUHullPolygonData@12@PEAVSupportLocal@12@AEBVPsMatTransformV@aos@shdfnd@2@PEAVPersistentContact@12@AEAIAEBT__m128@@7@Z 00000001800fe4a0 f   GuPCMContactGenSphereCapsule.obj
 0001:000fe110       ?pcmContactPlaneBox@Gu@physx@@YA_NAEBVGeometryUnion@12@0AEBVPxTransform@2@1AEBUNarrowPhaseParams@12@AEAUCache@12@AEAVContactBuffer@12@PEAVRenderOutput@Cm@2@@Z 00000001800ff110 f   GuPCMContactPlaneBox.obj
 0001:000fecc0       ?pcmContactPlaneCapsule@Gu@physx@@YA_NAEBVGeometryUnion@12@0AEBVPxTransform@2@1AEBUNarrowPhaseParams@12@AEAUCache@12@AEAVContactBuffer@12@PEAVRenderOutput@Cm@2@@Z 00000001800ffcc0 f   GuPCMContactPlaneCapsule.obj
 0001:000ff460       ?pcmContactPlaneConvex@Gu@physx@@YA_NAEBVGeometryUnion@12@0AEBVPxTransform@2@1AEBUNarrowPhaseParams@12@AEAUCache@12@AEAVContactBuffer@12@PEAVRenderOutput@Cm@2@@Z 0000000180100460 f   GuPCMContactPlaneConvex.obj
 0001:000ffdc0       ?pcmContactSphereBox@Gu@physx@@YA_NAEBVGeometryUnion@12@0AEBVPxTransform@2@1AEBUNarrowPhaseParams@12@AEAUCache@12@AEAVContactBuffer@12@PEAVRenderOutput@Cm@2@@Z 0000000180100dc0 f   GuPCMContactSphereBox.obj
 0001:00100230       ?pcmContactSphereCapsule@Gu@physx@@YA_NAEBVGeometryUnion@12@0AEBVPxTransform@2@1AEBUNarrowPhaseParams@12@AEAUCache@12@AEAVContactBuffer@12@PEAVRenderOutput@Cm@2@@Z 0000000180101230 f   GuPCMContactSphereCapsule.obj
 0001:00100690       ?pcmContactSphereConvex@Gu@physx@@YA_NAEBVGeometryUnion@12@0AEBVPxTransform@2@1AEBUNarrowPhaseParams@12@AEAUCache@12@AEAVContactBuffer@12@PEAVRenderOutput@Cm@2@@Z 0000000180101690 f   GuPCMContactSphereConvex.obj
 0001:00101370       ??1PCMSphereVsHeightfieldContactGenerationCallback@physx@@UEAA@XZ 0000000180102370 f i GuPCMContactSphereHeightField.obj
 0001:001013e0       ??_EPCMSphereVsHeightfieldContactGenerationCallback@physx@@UEAAPEAXI@Z 00000001801023e0 f i GuPCMContactSphereHeightField.obj
 0001:001013e0       ??_GPCMSphereVsHeightfieldContactGenerationCallback@physx@@UEAAPEAXI@Z 00000001801023e0 f i GuPCMContactSphereHeightField.obj
 0001:00101420       ?onEvent@?$PCMHeightfieldContactGenerationCallback@UPCMSphereVsHeightfieldContactGenerationCallback@physx@@@Gu@physx@@UEAA_NIPEAI@Z 0000000180102420 f i GuPCMContactSphereHeightField.obj
 0001:001019e0       ?pcmContactSphereHeightField@Gu@physx@@YA_NAEBVGeometryUnion@12@0AEBVPxTransform@2@1AEBUNarrowPhaseParams@12@AEAUCache@12@AEAVContactBuffer@12@PEAVRenderOutput@Cm@2@@Z 00000001801029e0 f   GuPCMContactSphereHeightField.obj
 0001:001025e0       ??$processTriangleCache@$0BA@@PCMSphereVsMeshContactGenerationCallback@physx@@QEAAXAEAU?$TriangleCache@$0BA@@Gu@1@@Z 00000001801035e0 f i GuPCMContactSphereMesh.obj
 0001:00102670       ??1PCMSphereVsMeshContactGenerationCallback@physx@@UEAA@XZ 0000000180103670 f i GuPCMContactSphereMesh.obj
 0001:001026e0       ??_GPCMSphereVsMeshContactGenerationCallback@physx@@UEAAPEAXI@Z 00000001801036e0 f i GuPCMContactSphereMesh.obj
 0001:001026e0       ??_EPCMSphereVsMeshContactGenerationCallback@physx@@UEAAPEAXI@Z 00000001801036e0 f i GuPCMContactSphereMesh.obj
 0001:00102720       ?pcmContactSphereMesh@Gu@physx@@YA_NAEBVGeometryUnion@12@0AEBVPxTransform@2@1AEBUNarrowPhaseParams@12@AEAUCache@12@AEAVContactBuffer@12@PEAVRenderOutput@Cm@2@@Z 0000000180103720 f   GuPCMContactSphereMesh.obj
 0001:00103470       ?processHit@?$PCMMeshContactGenerationCallback@UPCMSphereVsMeshContactGenerationCallback@physx@@@Gu@physx@@UEAA_NAEBUPxRaycastHit@3@AEBVPxVec3@3@11AEAMPEBI@Z 0000000180104470 f i GuPCMContactSphereMesh.obj
 0001:00103830       ?pcmContactSpherePlane@Gu@physx@@YA_NAEBVGeometryUnion@12@0AEBVPxTransform@2@1AEBUNarrowPhaseParams@12@AEAUCache@12@AEAVContactBuffer@12@PEAVRenderOutput@Cm@2@@Z 0000000180104830 f   GuPCMContactSpherePlane.obj
 0001:001039c0       ?pcmContactSphereSphere@Gu@physx@@YA_NAEBVGeometryUnion@12@0AEBVPxTransform@2@1AEBUNarrowPhaseParams@12@AEAUCache@12@AEAVContactBuffer@12@PEAVRenderOutput@Cm@2@@Z 00000001801049c0 f   GuPCMContactSphereSphere.obj
 0001:00103aa0       ?getPCMConvexData@Gu@physx@@YAXAEBVConvexHullV@12@_NAEAUPolygonalData@12@@Z 0000000180104aa0 f   GuPCMShapeConvex.obj
 0001:00103c00       ?getPCMConvexData@Gu@physx@@YA_NAEBVGeometryUnion@12@AEAVFastVertex2ShapeScaling@Cm@2@AEAVPxBounds3@2@AEAUPolygonalData@12@@Z 0000000180104c00 f   GuPCMShapeConvex.obj
 0001:00103fc0       ?getPolygonalData@PCMPolygonalBox@Gu@physx@@QEBAXPEIAUPolygonalData@23@@Z 0000000180104fc0 f   GuPCMShapeConvex.obj
 0001:00104010       ?generatePolyDataContactManifold@PCMConvexVsMeshContactGeneration@Gu@physx@@QEAA_NAEAVTriangleV@23@IIEPEAVMeshPersistentContact@23@AEAIAEBT__m128@@AEAT6@@Z 0000000180105010 f   GuPCMTriangleContactGen.obj
 0001:00104130       ?generateTriangleFullContactManifold@PCMConvexVsMeshContactGeneration@Gu@physx@@QEAA_NAEAVTriangleV@23@IPEBIEAEBUPolygonalData@23@PEAV?$SupportLocalImpl@VTriangleV@Gu@physx@@@23@PEAVSupportLocal@23@PEAVMeshPersistentContact@23@AEAIAEBT__m128@@AEAT9@@Z 0000000180105130 f   GuPCMTriangleContactGen.obj
 0001:00104a30       ?generateTriangleFullContactManifold@PCMConvexVsMeshContactGeneration@Gu@physx@@SA_NAEAVTriangleV@23@IEAEBUPolygonalData@23@PEAV?$SupportLocalImpl@VTriangleV@Gu@physx@@@23@PEAVSupportLocal@23@PEAVMeshPersistentContact@23@AEAIAEBT__m128@@AEAT9@PEAVRenderOutput@Cm@3@@Z 0000000180105a30 f   GuPCMTriangleContactGen.obj
 0001:00107150       ?addBatchManifoldContacts2@PersistentContactManifold@Gu@physx@@QEAAXPEBVPersistentContact@23@I@Z 0000000180108150 f   GuPersistentContactManifold.obj
 0001:001071c0       ?addBatchManifoldContacts@PersistentContactManifold@Gu@physx@@QEAAXPEBVPersistentContact@23@IM@Z 00000001801081c0 f   GuPersistentContactManifold.obj
 0001:00107240       ?addBatchManifoldContactsCluster@PersistentContactManifold@Gu@physx@@QEAAXPEBVPersistentContact@23@I@Z 0000000180108240 f   GuPersistentContactManifold.obj
 0001:001074c0       ?addManifoldContactPoints@MultiplePersistentContactManifold@Gu@physx@@QEAAXPEAVMeshPersistentContact@23@IPEAPEAUPCMContactPatch@23@IAEBT__m128@@2E@Z 00000001801084c0 f   GuPersistentContactManifold.obj
 0001:001078d0       ?addManifoldContactsToContactBuffer@MultiplePersistentContactManifold@Gu@physx@@QEAA_NAEAVContactBuffer@23@AEBVPsTransformV@aos@shdfnd@3@1AEBT__m128@@@Z 00000001801088d0 f   GuPersistentContactManifold.obj
 0001:00107b80       ?addManifoldContactsToContactBuffer@MultiplePersistentContactManifold@Gu@physx@@QEAA_NAEAVContactBuffer@23@AEBVPsTransformV@aos@shdfnd@3@@Z 0000000180108b80 f   GuPersistentContactManifold.obj
 0001:00107df0       ?addManifoldContactsToContactBuffer@PersistentContactManifold@Gu@physx@@QEAAXAEAVContactBuffer@23@AEBT__m128@@1AEBVPsTransformV@aos@shdfnd@3@11@Z 0000000180108df0 f   GuPersistentContactManifold.obj
 0001:00107f80       ?addManifoldContactsToContactBuffer@PersistentContactManifold@Gu@physx@@QEAAXAEAVContactBuffer@23@AEBT__m128@@AEBVPsMatTransformV@aos@shdfnd@3@@Z 0000000180108f80 f   GuPersistentContactManifold.obj
 0001:00108020       ?addManifoldContactsToContactBuffer@PersistentContactManifold@Gu@physx@@QEAAXAEAVContactBuffer@23@AEBT__m128@@AEBVPsTransformV@aos@shdfnd@3@1@Z 0000000180109020 f   GuPersistentContactManifold.obj
 0001:00108180       ?addManifoldPoint2@PersistentContactManifold@Gu@physx@@QEAAIAEBT__m128@@000@Z 0000000180109180 f   GuPersistentContactManifold.obj
 0001:001082b0       ?addManifoldPoint@Gu@physx@@YAXPEAVPersistentContact@12@AEAVPersistentContactManifold@12@AEAUGjkOutput@12@AEBVPsMatTransformV@aos@shdfnd@2@T__m128@@@Z 00000001801092b0 f   GuPersistentContactManifold.obj
 0001:00108460       ?addManifoldPoint@PersistentContactManifold@Gu@physx@@QEAAIAEBT__m128@@000@Z 0000000180109460 f   GuPersistentContactManifold.obj
 0001:001088b0       ?drawLine@MultiplePersistentContactManifold@Gu@physx@@SAXAEAVRenderOutput@Cm@3@AEBT__m128@@1I@Z 00000001801098b0 f   GuPersistentContactManifold.obj
 0001:00108970       ?drawLine@MultiplePersistentContactManifold@Gu@physx@@SAXAEAVRenderOutput@Cm@3@VPxVec3@3@1I@Z 0000000180109970 f   GuPersistentContactManifold.obj
 0001:00108a30       ?drawManifold@MultiplePersistentContactManifold@Gu@physx@@QEAAXAEAVRenderOutput@Cm@3@AEBVPsTransformV@aos@shdfnd@3@1@Z 0000000180109a30 f   GuPersistentContactManifold.obj
 0001:001091e0       ?drawPoint@MultiplePersistentContactManifold@Gu@physx@@SAXAEAVRenderOutput@Cm@3@AEBT__m128@@MI@Z 000000018010a1e0 f   GuPersistentContactManifold.obj
 0001:001093c0       ?drawPolygon@MultiplePersistentContactManifold@Gu@physx@@SAXAEAVRenderOutput@Cm@3@AEBVPsTransformV@aos@shdfnd@3@PEAT__m128@@II@Z 000000018010a3c0 f   GuPersistentContactManifold.obj
 0001:00109630       ?findRotationMatrixFromZAxis@Gu@physx@@YA?AUMat33V@aos@shdfnd@2@AEBT__m128@@@Z 000000018010a630 f   GuPersistentContactManifold.obj
 0001:001098b0       ?fromBuffer@MultiplePersistentContactManifold@Gu@physx@@QEAAXPEIAE@Z 000000018010a8b0 f   GuPersistentContactManifold.obj
 0001:00109a00       ?reduceBatchContacts2@PersistentContactManifold@Gu@physx@@QEAAXPEBVPersistentContact@23@I@Z 000000018010aa00 f   GuPersistentContactManifold.obj
 0001:00109c00       ?reduceBatchContacts@PersistentContactManifold@Gu@physx@@QEAAXPEBVPersistentContact@23@IM@Z 000000018010ac00 f   GuPersistentContactManifold.obj
 0001:0010a0c0       ?reduceBatchContactsCapsule@SinglePersistentContactManifold@Gu@physx@@QEAA?AT__m128@@PEBVMeshPersistentContact@23@IAEAUPCMContactPatch@23@@Z 000000018010b0c0 f   GuPersistentContactManifold.obj
 0001:0010a350       ?reduceBatchContactsCluster@PersistentContactManifold@Gu@physx@@QEAAXPEBVPersistentContact@23@I@Z 000000018010b350 f   GuPersistentContactManifold.obj
 0001:0010a7f0       ?reduceBatchContactsConvex@SinglePersistentContactManifold@Gu@physx@@QEAA?AT__m128@@PEBVMeshPersistentContact@23@IAEAUPCMContactPatch@23@@Z 000000018010b7f0 f   GuPersistentContactManifold.obj
 0001:0010adf0       ?reduceContacts@SinglePersistentContactManifold@Gu@physx@@SAIPEAVMeshPersistentContact@23@I@Z 000000018010bdf0 f   GuPersistentContactManifold.obj
 0001:0010b300       ?reduceContactsForPCM@PersistentContactManifold@Gu@physx@@QEAAIAEBT__m128@@00@Z 000000018010c300 f   GuPersistentContactManifold.obj
 0001:0010b8a0       ?refreshContactPoints@SinglePersistentContactManifold@Gu@physx@@QEAA?AT__m128@@AEBVPsMatTransformV@aos@shdfnd@3@AEBT4@1@Z 000000018010c8a0 f   GuPersistentContactManifold.obj
 0001:0010b9f0       ?replaceManifoldPoint@PersistentContactManifold@Gu@physx@@QEAA_NAEBT__m128@@000@Z 000000018010c9f0 f   GuPersistentContactManifold.obj
 0001:0010bac0       ?sweepBoxBox@Gu@physx@@YA_NAEBVBox@12@0AEBVPxVec3@2@MV?$PxFlags@W4Enum@PxHitFlag@physx@@G@2@AEAUPxSweepHit@2@@Z 000000018010cac0 f   GuSweepBoxBox.obj
 0001:0010d0c0       ?sweepBoxSphere@Gu@physx@@YA_NAEBVBox@12@MAEBVPxVec3@2@1MAEAMAEAV42@V?$PxFlags@W4Enum@PxHitFlag@physx@@G@2@@Z 000000018010e0c0 f   GuSweepBoxSphere.obj
 0001:0010dd00       ?sweepBoxTriangle@Gu@physx@@YA_NAEBVPxTriangle@2@AEBVPxBounds3@2@AEBVPxVec3@2@2AEAV52@3AEAM_N@Z 000000018010ed00 f   GuSweepBoxTriangle_FeatureBased.obj
 0001:0010f3a0       ?triBoxSweepTestBoxSpace@Gu@physx@@YAHAEBVPxTriangle@2@AEBVPxVec3@2@11MAEAM_N@Z 00000001801103a0 f   GuSweepBoxTriangle_SAT.obj
 0001:00110cb0       ?sweepCapsuleBox@Gu@physx@@YA_NAEBVCapsule@12@AEBVPxTransform@2@AEBVPxVec3@2@2MAEAV52@AEAM3V?$PxFlags@W4Enum@PxHitFlag@physx@@G@2@@Z 0000000180111cb0 f   GuSweepCapsuleBox.obj
 0001:00111020       ?distancePointSegmentSquared@Gu@physx@@YAMAEBVSegment@12@AEBVPxVec3@2@PEAM@Z 0000000180112020 f i GuSweepCapsuleCapsule.obj
 0001:001113a0       ?sweepCapsuleCapsule@Gu@physx@@YA_NAEBVCapsule@12@0AEBVPxVec3@2@MAEAMAEAV42@3IAEAG@Z 00000001801123a0 f   GuSweepCapsuleCapsule.obj
 0001:00112170       ?sweepCapsuleTriangles_Precise@Gu@physx@@YA_NIPEIBVPxTriangle@2@AEBVCapsule@12@AEBVPxVec3@2@MPEIBIAEAUPxSweepHit@2@AEAV52@V?$PxFlags@W4Enum@PxHitFlag@physx@@G@2@_NPEBVBoxPadded@12@@Z 0000000180113170 f   GuSweepCapsuleTriangle.obj
 0001:00114200       ?sweepSphereCapsule@Gu@physx@@YA_NAEBVSphere@12@AEBVCapsule@12@AEBVPxVec3@2@MAEAMAEAV52@4V?$PxFlags@W4Enum@PxHitFlag@physx@@G@2@@Z 0000000180115200 f   GuSweepSphereCapsule.obj
 0001:001148a0       ?sweepSphereSphere@Gu@physx@@YA_NAEBVPxVec3@2@M0M0AEAMAEAV32@@Z 00000001801158a0 f   GuSweepSphereSphere.obj
 0001:00114b30       ?sweepSphereTriangles@Gu@physx@@YA_NIPEIBVPxTriangle@2@AEBVPxVec3@2@M1MPEIBIAEAUPxSweepHit@2@AEAV42@_N555@Z 0000000180115b30 f   GuSweepSphereTriangle.obj
 0001:001153e0       ?sweepSphereVSQuad@Gu@physx@@YA_NPEIBVPxVec3@2@AEBV32@1M1AEAM@Z 00000001801163e0 f   GuSweepSphereTriangle.obj
 0001:00116870       ?sweepSphereVSTri@Gu@physx@@YA_NPEIBVPxVec3@2@AEBV32@1M1AEAMAEA_N_N@Z 0000000180117870 f   GuSweepSphereTriangle.obj
 0001:00117760       ??$gjk@U?$LocalConvex@VTriangleV@Gu@physx@@@Gu@physx@@U?$LocalConvex@VBoxV@Gu@physx@@@23@@Gu@physx@@YA?AW4GjkStatus@01@AEBU?$LocalConvex@VTriangleV@Gu@physx@@@01@AEBU?$LocalConvex@VBoxV@Gu@physx@@@01@AEBT__m128@@2AEAT5@333@Z 0000000180118760 f i GuSweepTriangleUtils.obj
 0001:00118450       ?computeBoxTriImpactData@Gu@physx@@YAXAEAVPxVec3@2@0AEBV32@1AEBVPxTriangle@2@M@Z 0000000180119450 f   GuSweepTriangleUtils.obj
 0001:001186e0       ?computeEdgeEdgeNormal@Gu@physx@@YAXAEAVPxVec3@2@AEBV32@1111M@Z 00000001801196e0 f   GuSweepTriangleUtils.obj
 0001:001189a0       ?computeSphereTriImpactData@Gu@physx@@YAXAEAVPxVec3@2@0AEBV32@1MAEBVPxTriangle@2@@Z 00000001801199a0 f   GuSweepTriangleUtils.obj
 0001:00118e7c       __imp_load_PxGetFoundation 0000000180119e7c f   PhysXFoundation_64:PhysXFoundation_64.dll
 0001:00118e88       __tailMerge_physxfoundation_64_dll 0000000180119e88     PhysXFoundation_64:PhysXFoundation_64.dll
 0001:00118f01       __imp_load_?getAllocator@shdfnd@physx@@YAAEAVPxAllocatorCallback@2@XZ 0000000180119f01 f   PhysXFoundation_64:PhysXFoundation_64.dll
 0001:00118f0d       __imp_load_?getInstance@Foundation@shdfnd@physx@@SAAEAV123@XZ 0000000180119f0d f   PhysXFoundation_64:PhysXFoundation_64.dll
 0001:00118f19       __imp_load_?error@Foundation@shdfnd@physx@@QEAAXW4Enum@PxErrorCode@3@PEBDH1ZZ 0000000180119f19 f   PhysXFoundation_64:PhysXFoundation_64.dll
 0001:00118f25       __imp_load_??0NamedAllocator@shdfnd@physx@@QEAA@PEBD@Z 0000000180119f25 f   PhysXFoundation_64:PhysXFoundation_64.dll
 0001:00118f31       __imp_load_??1NamedAllocator@shdfnd@physx@@QEAA@XZ 0000000180119f31 f   PhysXFoundation_64:PhysXFoundation_64.dll
 0001:00118f3d       __imp_load_?allocate@NamedAllocator@shdfnd@physx@@QEAAPEAX_KPEBDH@Z 0000000180119f3d f   PhysXFoundation_64:PhysXFoundation_64.dll
 0001:00118f49       __imp_load_?deallocate@NamedAllocator@shdfnd@physx@@QEAAXPEAX@Z 0000000180119f49 f   PhysXFoundation_64:PhysXFoundation_64.dll
 0001:00118f55       __imp_load_?vsnprintf@shdfnd@physx@@YAHPEAD_KPEBD0@Z 0000000180119f55 f   PhysXFoundation_64:PhysXFoundation_64.dll
 0001:00118f61       __imp_load_??0NamedAllocator@shdfnd@physx@@QEAA@AEBV012@@Z 0000000180119f61 f   PhysXFoundation_64:PhysXFoundation_64.dll
 0001:00118f6d       __imp_load_??0MutexImpl@shdfnd@physx@@QEAA@XZ 0000000180119f6d f   PhysXFoundation_64:PhysXFoundation_64.dll
 0001:00118f79       __imp_load_??1MutexImpl@shdfnd@physx@@QEAA@XZ 0000000180119f79 f   PhysXFoundation_64:PhysXFoundation_64.dll
 0001:00118f85       __imp_load_?lock@MutexImpl@shdfnd@physx@@QEAAXXZ 0000000180119f85 f   PhysXFoundation_64:PhysXFoundation_64.dll
 0001:00118f91       __imp_load_?unlock@MutexImpl@shdfnd@physx@@QEAAXXZ 0000000180119f91 f   PhysXFoundation_64:PhysXFoundation_64.dll
 0001:00118f9d       __imp_load_?getSize@MutexImpl@shdfnd@physx@@SAIXZ 0000000180119f9d f   PhysXFoundation_64:PhysXFoundation_64.dll
 0001:00118fa9       __imp_load_?atomicDecrement@shdfnd@physx@@YAHPECH@Z 0000000180119fa9 f   PhysXFoundation_64:PhysXFoundation_64.dll
 0001:00118fb5       __imp_load_?PxTransformFromSegment@physx@@YA?AVPxTransform@1@AEBVPxVec3@1@0PEAM@Z 0000000180119fb5 f   PhysXFoundation_64:PhysXFoundation_64.dll
 0001:00118fc1       __imp_load_?optimizeBoundingBox@shdfnd@physx@@YA?AVPxVec3@2@AEAVPxMat33@2@@Z 0000000180119fc1 f   PhysXFoundation_64:PhysXFoundation_64.dll
 0001:00118fcd       __imp_load_?allocate@TempAllocator@shdfnd@physx@@QEAAPEAX_KPEBDH@Z 0000000180119fcd f   PhysXFoundation_64:PhysXFoundation_64.dll
 0001:00118fd9       __imp_load_?deallocate@TempAllocator@shdfnd@physx@@QEAAXPEAX@Z 0000000180119fd9 f   PhysXFoundation_64:PhysXFoundation_64.dll
 0001:00118fe5       __imp_load_?atomicIncrement@shdfnd@physx@@YAHPECH@Z 0000000180119fe5 f   PhysXFoundation_64:PhysXFoundation_64.dll
 0001:00118ff1       __imp_load_PxGetProfilerCallback 0000000180119ff1 f   PhysXFoundation_64:PhysXFoundation_64.dll
 0001:00119000       ?DloadAcquireSectionWriteAccess@@YAXXZ 000000018011a000 f i Delayimp:delayhlp.obj
 0001:001190ac       ?DloadGetSRWLockFunctionPointers@@YAEXZ 000000018011a0ac f i Delayimp:delayhlp.obj
 0001:00119148       ?DloadMakePermanentImageCommit@@YAXPEAX_K@Z 000000018011a148 f i Delayimp:delayhlp.obj
 0001:001191e0       ?DloadObtainSection@@YAPEAXPEAK0@Z 000000018011a1e0 f i Delayimp:delayhlp.obj
 0001:0011927c       ?DloadProtectSection@@YAXKPEAK@Z 000000018011a27c f i Delayimp:delayhlp.obj
 0001:0011930c       ?DloadReleaseSectionWriteAccess@@YAXXZ 000000018011a30c f i Delayimp:delayhlp.obj
 0001:001193a0       __delayLoadHelper2         000000018011a3a0 f   Delayimp:delayhlp.obj
 0001:00119674       ??_V@YAXPEAX@Z             000000018011a674 f   LIBCMT:delete_array.obj
 0001:00119674       ??3@YAXPEAX_K@Z            000000018011a674 f   LIBCMT:delete_scalar_size.obj
 0001:0011967c       ??_Etype_info@@UEAAPEAXI@Z 000000018011a67c f i LIBCMT:std_type_info_static.obj
 0001:0011967c       ??_Gtype_info@@UEAAPEAXI@Z 000000018011a67c f i LIBCMT:std_type_info_static.obj
 0001:001196a8       ?__scrt_initialize_type_info@@YAXXZ 000000018011a6a8 f   LIBCMT:tncleanup.obj
 0001:001196b8       ?__scrt_uninitialize_type_info@@YAXXZ 000000018011a6b8 f   LIBCMT:tncleanup.obj
 0001:001196e0       __chkstk                   000000018011a6e0 f   LIBCMT:chkstk.obj
 0001:001196e0       _alloca_probe              000000018011a6e0 f   LIBCMT:chkstk.obj
 0001:00119730       __vdecl_sinf4              000000018011a730 f   LIBCMT:svml_ssinf4_dispatch.obj
 0001:00119750       __libm_sse2_sincosf_       000000018011a750 f   LIBCMT:svml_ssinf4_dispatch.obj
 0001:00119793       __libm_sse2_sincosf4_      000000018011a793 f   LIBCMT:svml_ssinf4_dispatch.obj
 0001:001197a0       ??3@YAXPEAX@Z              000000018011a7a0 f   LIBCMT:delete_scalar.obj
 0001:00119ac8       _DllMainCRTStartup         000000018011aac8 f   LIBCMT:dll_dllmain.obj
 0001:00119b08       __isa_available_init       000000018011ab08 f   LIBCMT:cpu_disp.obj
 0001:00119cb0       __sse2_sinf4@@16           000000018011acb0 f   LIBCMT:svml_ssinf4_sse2.obj
 0001:0011a5f0       __sse4_sinf4@@16           000000018011b5f0 f   LIBCMT:svml_ssinf4_sse4.obj
 0001:0011ad64       __security_init_cookie     000000018011bd64 f   LIBCMT:gs_support.obj
 0001:0011ae10       __local_stdio_printf_options 000000018011be10 f i LIBCMT:default_local_stdio_options.obj
 0001:0011ae18       __local_stdio_scanf_options 000000018011be18 f i LIBCMT:default_local_stdio_options.obj
 0001:0011ae20       __scrt_initialize_default_local_stdio_options 000000018011be20 f   LIBCMT:default_local_stdio_options.obj
 0001:0011ae3c       __scrt_acquire_startup_lock 000000018011be3c f   LIBCMT:utility.obj
 0001:0011ae78       __scrt_dllmain_after_initialize_c 000000018011be78 f   LIBCMT:utility.obj
 0001:0011aeac       __scrt_dllmain_before_initialize_c 000000018011beac f   LIBCMT:utility.obj
 0001:0011aec4       __scrt_dllmain_crt_thread_attach 000000018011bec4 f   LIBCMT:utility.obj
 0001:0011aeec       __scrt_dllmain_crt_thread_detach 000000018011beec f   LIBCMT:utility.obj
 0001:0011af04       __scrt_dllmain_exception_filter 000000018011bf04 f   LIBCMT:utility.obj
 0001:0011af64       __scrt_dllmain_uninitialize_c 000000018011bf64 f   LIBCMT:utility.obj
 0001:0011af94       __scrt_dllmain_uninitialize_critical 000000018011bf94 f   LIBCMT:utility.obj
 0001:0011afa8       __scrt_initialize_crt      000000018011bfa8 f   LIBCMT:utility.obj
 0001:0011aff4       __scrt_initialize_onexit_tables 000000018011bff4 f   LIBCMT:utility.obj
 0001:0011b080       __scrt_is_nonwritable_in_current_image 000000018011c080 f   LIBCMT:utility.obj
 0001:0011b118       __scrt_release_startup_lock 000000018011c118 f   LIBCMT:utility.obj
 0001:0011b13c       __scrt_uninitialize_crt    000000018011c13c f   LIBCMT:utility.obj
 0001:0011b168       __scrt_get_dyn_tls_init_callback 000000018011c168 f   LIBCMT:dyn_tls_init.obj
 0001:0011b170       __crt_debugger_hook        000000018011c170 f   LIBCMT:utility_desktop.obj
 0001:0011b178       __scrt_fastfail            000000018011c178 f   LIBCMT:utility_desktop.obj
 0001:0011b2c4       _RTC_Initialize            000000018011c2c4 f   LIBCMT:initsect.obj
 0001:0011b300       _RTC_Terminate             000000018011c300 f   LIBCMT:initsect.obj
 0001:0011b340       __common_ssin_cout_rare    000000018011c340 f   LIBCMT:svml_s_sin_cout.obj
 0001:0011b3b0       __scrt_is_ucrt_dll_in_use  000000018011c3b0 f   LIBCMT:ucrt_detection.obj
 0001:0011b3bc       _get_purecall_handler      000000018011c3bc f   libvcruntime:purevirt.obj
 0001:0011b3c8       _purecall                  000000018011c3c8 f   libvcruntime:purevirt.obj
 0001:0011b3ec       __std_type_info_compare    000000018011c3ec f   libvcruntime:std_type_info.obj
 0001:0011b414       __std_type_info_destroy_list 000000018011c414 f   libvcruntime:std_type_info.obj
 0001:0011b440       __std_type_info_name       000000018011c440 f   libvcruntime:std_type_info.obj
 0001:0011b570       memcpy_repmovs             000000018011c570 f   libvcruntime:memcpy.obj
 0001:0011b590       memmove                    000000018011c590 f   libvcruntime:memcpy.obj
 0001:0011b590       memcpy                     000000018011c590 f   libvcruntime:memcpy.obj
 0001:0011bc20       memset_repmovs             000000018011cc20 f   libvcruntime:memset.obj
 0001:0011bc40       memset                     000000018011cc40 f   libvcruntime:memset.obj
 0001:0011bdd0       strstr                     000000018011cdd0 f   libvcruntime:strstr.obj
 0001:0011bfcc       __C_specific_handler       000000018011cfcc f   libvcruntime:riscchandler.obj
 0001:0011c1d8       __vcrt_initialize          000000018011d1d8 f   libvcruntime:initialization.obj
 0001:0011c200       __vcrt_thread_attach       000000018011d200 f   libvcruntime:initialization.obj
 0001:0011c214       __vcrt_thread_detach       000000018011d214 f   libvcruntime:initialization.obj
 0001:0011c228       __vcrt_uninitialize        000000018011d228 f   libvcruntime:initialization.obj
 0001:0011c244       __vcrt_uninitialize_critical 000000018011d244 f   libvcruntime:initialization.obj
 0001:0011c254       __DestructExceptionObject  000000018011d254 f   libvcruntime:ehhelpers.obj
 0001:0011c2c4       ?_CallMemberFunction0@@YAXQEAX0@Z 000000018011d2c4 f i libvcruntime:ehhelpers.obj
 0001:0011c2c8       _IsExceptionObjectToBeDestroyed 000000018011d2c8 f   libvcruntime:ehhelpers.obj
 0001:0011c2f8       __AdjustPointer            000000018011d2f8 f   libvcruntime:ehhelpers.obj
 0001:0011c31c       __FrameUnwindFilter        000000018011d31c f   libvcruntime:ehhelpers.obj
 0001:0011c384       __std_terminate            000000018011d384 f   libvcruntime:ehhelpers.obj
 0001:0011c390       ??$?0$00@DName@@QEAA@PEBDU?$StringLifeSelector@$00@@@Z 000000018011d390 f i libvcruntime:undname.obj
 0001:0011c3d0       ??$?0$01@DName@@QEAA@PEBDU?$StringLifeSelector@$01@@@Z 000000018011d3d0 f i libvcruntime:undname.obj
 0001:0011c3d0       ??$?0$0A@@DName@@QEAA@PEBDU?$StringLifeSelector@$0A@@@@Z 000000018011d3d0 f i libvcruntime:undname.obj
 0001:0011c410       ??$?0$0A@@pcharNode@@QEAA@PEBDHU?$StringLifeSelector@$0A@@@@Z 000000018011d410 f i libvcruntime:undname.obj
 0001:0011c410       ??$?0$01@pcharNode@@QEAA@PEBDHU?$StringLifeSelector@$01@@@Z 000000018011d410 f i libvcruntime:undname.obj
 0001:0011c484       ??$append@VpcharNode@@@DName@@AEAAXPEBVpcharNode@@@Z 000000018011d484 f i libvcruntime:undname.obj
 0001:0011c484       ??$append@VcharNode@@@DName@@AEAAXPEBVcharNode@@@Z 000000018011d484 f i libvcruntime:undname.obj
 0001:0011c484       ??$append@VDNameStatusNode@@@DName@@AEAAXPEBVDNameStatusNode@@@Z 000000018011d484 f i libvcruntime:undname.obj
 0001:0011c484       ??$append@VDNameNode@@@DName@@AEAAXPEBVDNameNode@@@Z 000000018011d484 f i libvcruntime:undname.obj
 0001:0011c4e8       ??$doPchar@$00@DName@@AEAAXPEBDH@Z 000000018011d4e8 f i libvcruntime:undname.obj
 0001:0011c58c       ??$doPchar@$01@DName@@AEAAXPEBDH@Z 000000018011d58c f i libvcruntime:undname.obj
 0001:0011c58c       ??$doPchar@$0A@@DName@@AEAAXPEBDH@Z 000000018011d58c f i libvcruntime:undname.obj
 0001:0011c624       ??0DName@@QEAA@AEAPEBDD@Z  000000018011d624 f   libvcruntime:undname.obj
 0001:0011c6d4       ??0DName@@QEAA@AEBUStringLiteral@@@Z 000000018011d6d4 f   libvcruntime:undname.obj
 0001:0011c700       ??0DName@@QEAA@PEAV0@@Z    000000018011d700 f   libvcruntime:undname.obj
 0001:0011c784       ??0DName@@QEAA@_J@Z        000000018011d784 f   libvcruntime:undname.obj
 0001:0011c82c       ??0DName@@QEAA@_K@Z        000000018011d82c f   libvcruntime:undname.obj
 0001:0011c8bc       ??2@YAPEAX_KAEAV_HeapManager@@H@Z 000000018011d8bc f   libvcruntime:undname.obj
 0001:0011c8e8       ??AReplicator@@QEBA?AVDName@@H@Z 000000018011d8e8 f   libvcruntime:undname.obj
 0001:0011c928       ??HDName@@QEBA?AV0@AEBUStringLiteral@@@Z 000000018011d928 f   libvcruntime:undname.obj
 0001:0011c954       ??HDName@@QEBA?AV0@AEBV0@@Z 000000018011d954 f   libvcruntime:undname.obj
 0001:0011c980       ??HDName@@QEBA?AV0@D@Z     000000018011d980 f   libvcruntime:undname.obj
 0001:0011c9ac       ??HDName@@QEBA?AV0@W4DNameStatus@@@Z 000000018011d9ac f   libvcruntime:undname.obj
 0001:0011c9d8       ??YDName@@QEAAAEAV0@AEBUStringLiteral@@@Z 000000018011d9d8 f   libvcruntime:undname.obj
 0001:0011ca58       ??YDName@@QEAAAEAV0@AEBV0@@Z 000000018011da58 f   libvcruntime:undname.obj
 0001:0011cb0c       ??YDName@@QEAAAEAV0@D@Z    000000018011db0c f   libvcruntime:undname.obj
 0001:0011cb78       ??YDName@@QEAAAEAV0@W4DNameStatus@@@Z 000000018011db78 f   libvcruntime:undname.obj
 0001:0011cbe4       ??YReplicator@@QEAAAEAV0@AEBVDName@@@Z 000000018011dbe4 f   libvcruntime:undname.obj
 0001:0011cc3c       ?UScore@UnDecorator@@SA?AUStringLiteral@@W4Tokens@@@Z 000000018011dc3c f   libvcruntime:undname.obj
 0001:0011cc88       ?composeDeclaration@UnDecorator@@CA?AVDName@@AEBV2@@Z 000000018011dc88 f i libvcruntime:undname.obj
 0001:0011db30       ?doPchar@DName@@AEAAXD@Z   000000018011eb30 f   libvcruntime:undname.obj
 0001:0011db80       ?getAddressOf@UnDecorator@@CA?AVDName@@XZ 000000018011eb80 f   libvcruntime:undname.obj
 0001:0011dc10       ?getArgumentList@UnDecorator@@CA?AVDName@@XZ 000000018011ec10 f   libvcruntime:undname.obj
 0001:0011dda4       ?getArgumentTypes@UnDecorator@@CA?AVDName@@XZ 000000018011eda4 f   libvcruntime:undname.obj
 0001:0011def0       ?getArrayAccess@UnDecorator@@CA?AVDName@@XZ 000000018011eef0 f   libvcruntime:undname.obj
 0001:0011df8c       ?getArrayObject@UnDecorator@@CA?AVDName@@XZ 000000018011ef8c f   libvcruntime:undname.obj
 0001:0011e060       ?getArrayType@UnDecorator@@CA?AVDName@@AEBV2@@Z 000000018011f060 f i libvcruntime:undname.obj
 0001:0011e2a8       ?getBasedType@UnDecorator@@CA?AVDName@@XZ 000000018011f2a8 f   libvcruntime:undname.obj
 0001:0011e3a0       ?getBasicDataType@UnDecorator@@CA?AVDName@@AEBV2@@Z 000000018011f3a0 f   libvcruntime:undname.obj
 0001:0011e944       ?getCallingConvention@UnDecorator@@CA?AVDName@@XZ 000000018011f944 f   libvcruntime:undname.obj
 0001:0011ea84       ?getDataIndirectType@UnDecorator@@CA?AVDName@@AEBV2@W4IndirectionKind@@0H@Z 000000018011fa84 f   libvcruntime:undname.obj
 0001:0011f31c       ?getDataType@UnDecorator@@CA?AVDName@@PEAV2@@Z 000000018012031c f   libvcruntime:undname.obj
 0001:0011f430       ?getDecoratedName@UnDecorator@@CA?AVDName@@XZ 0000000180120430 f   libvcruntime:undname.obj
 0001:0011f714       ?getDimension@UnDecorator@@CA?AVDName@@_N@Z 0000000180120714 f   libvcruntime:undname.obj
 0001:0011f85c       ?getDispatchTarget@UnDecorator@@CA?AVDName@@XZ 000000018012085c f   libvcruntime:undname.obj
 0001:0011f8c0       ?getECSUDataType@UnDecorator@@CA?AVDName@@XZ 00000001801208c0 f   libvcruntime:undname.obj
 0001:0011fab8       ?getEnumType@UnDecorator@@CA?AVDName@@XZ 0000000180120ab8 f i libvcruntime:undname.obj
 0001:0011fbe8       ?getExtendedDataIndirectType@UnDecorator@@CA?AVDName@@AEAW4IndirectionKind@@AEA_NH@Z 0000000180120be8 f   libvcruntime:undname.obj
 0001:0011fdf0       ?getExternalDataType@UnDecorator@@CA?AVDName@@AEBV2@@Z 0000000180120df0 f i libvcruntime:undname.obj
 0001:0011feb0       ?getFloatingPoint@UnDecorator@@CA?AVDName@@H@Z 0000000180120eb0 f   libvcruntime:undname.obj
 0001:0011ffd8       ?getFunctionIndirectType@UnDecorator@@CA?AVDName@@AEBV2@@Z 0000000180120fd8 f   libvcruntime:undname.obj
 0001:00120510       ?getLastChar@DNameStatusNode@@UEBADXZ 0000000180121510 f i libvcruntime:undname.obj
 0001:0012051c       ?getLastChar@charNode@@UEBADXZ 000000018012151c f i libvcruntime:undname.obj
 0001:00120520       ?getLastChar@pDNameNode@@UEBADXZ 0000000180121520 f i libvcruntime:undname.obj
 0001:0012054c       ?getLastChar@pairNode@@UEBADXZ 000000018012154c f i libvcruntime:undname.obj
 0001:00120584       ?getLastChar@pcharNode@@UEBADXZ 0000000180121584 f i libvcruntime:undname.obj
 0001:00120598       ?getLexicalFrame@UnDecorator@@CA?AVDName@@XZ 0000000180121598 f i libvcruntime:undname.obj
 0001:001205fc       ?getMemberAccess@UnDecorator@@CA?AVDName@@XZ 00000001801215fc f   libvcruntime:undname.obj
 0001:00120690       ?getMemoryWithBuffer@_HeapManager@@QEAAPEAX_K@Z 0000000180121690 f   libvcruntime:undname.obj
 0001:00120720       ?getNoexcept@UnDecorator@@CA?AVDName@@XZ 0000000180121720 f   libvcruntime:undname.obj
 0001:00120784       ?getNumberOfDimensions@UnDecorator@@CAHXZ 0000000180121784 f   libvcruntime:undname.obj
 0001:001207e4       ?getOperatorName@UnDecorator@@CA?AVDName@@_NPEA_N@Z 00000001801217e4 f i libvcruntime:undname.obj
 0001:00121194       ?getPointerToMember@UnDecorator@@CA?AVDName@@XZ 0000000180122194 f   libvcruntime:undname.obj
 0001:0012128c       ?getPrimaryDataType@UnDecorator@@CA?AVDName@@AEBV2@@Z 000000018012228c f   libvcruntime:undname.obj
 0001:00121540       ?getPtrRefDataType@UnDecorator@@CA?AVDName@@AEBV2@H@Z 0000000180122540 f   libvcruntime:undname.obj
 0001:0012170c       ?getPtrRefType@UnDecorator@@CA?AVDName@@AEBV2@0W4IndirectionKind@@@Z 000000018012270c f   libvcruntime:undname.obj
 0001:001218e4       ?getRestrictionSpec@UnDecorator@@CA?AVDName@@XZ 00000001801228e4 f   libvcruntime:undname.obj
 0001:00121ab0       ?getReturnType@UnDecorator@@CA?AVDName@@PEAV2@@Z 0000000180122ab0 f   libvcruntime:undname.obj
 0001:00121ae4       ?getScope@UnDecorator@@CA?AVDName@@XZ 0000000180122ae4 f   libvcruntime:undname.obj
 0001:00121f98       ?getScopedName@UnDecorator@@CA?AVDName@@XZ 0000000180122f98 f   libvcruntime:undname.obj
 0001:001220d4       ?getSignedDimension@UnDecorator@@CA?AVDName@@XZ 00000001801230d4 f   libvcruntime:undname.obj
 0001:0012215c       ?getString@DNameStatusNode@@UEBAPEADPEAD0@Z 000000018012315c f i libvcruntime:undname.obj
 0001:001221a4       ?getString@charNode@@UEBAPEADPEAD0@Z 00000001801231a4 f i libvcruntime:undname.obj
 0001:001221b8       ?getString@pDNameNode@@UEBAPEADPEAD0@Z 00000001801231b8 f i libvcruntime:undname.obj
 0001:001221e8       ?getString@pairNode@@UEBAPEADPEAD0@Z 00000001801231e8 f i libvcruntime:undname.obj
 0001:00122234       ?getString@pcharNode@@UEBAPEADPEAD0@Z 0000000180123234 f i libvcruntime:undname.obj
 0001:0012226c       ?getStringEncoding@UnDecorator@@CA?AVDName@@W4PrefixKind@@H@Z 000000018012326c f   libvcruntime:undname.obj
 0001:00122364       ?getStringObject@UnDecorator@@CA?AVDName@@XZ 0000000180123364 f   libvcruntime:undname.obj
 0001:001223cc       ?getSymbolName@UnDecorator@@CA?AVDName@@XZ 00000001801233cc f i libvcruntime:undname.obj
 0001:00122418       ?getTemplateArgumentList@UnDecorator@@CA?AVDName@@XZ 0000000180123418 f   libvcruntime:undname.obj
 0001:0012268c       ?getTemplateName@UnDecorator@@CA?AVDName@@_N@Z 000000018012368c f   libvcruntime:undname.obj
 0001:00122920       ?getTemplateNonTypeArgument@UnDecorator@@CA?AVDName@@XZ 0000000180123920 f   libvcruntime:undname.obj
 0001:00122e50       ?getTemplateTypeArgument@UnDecorator@@CA?AVDName@@XZ 0000000180123e50 f   libvcruntime:undname.obj
 0001:00122fb8       ?getThrowTypes@UnDecorator@@CA?AVDName@@XZ 0000000180123fb8 f   libvcruntime:undname.obj
 0001:00122fdc       ?getTypeEncoding@UnDecorator@@CAHXZ 0000000180123fdc f i libvcruntime:undname.obj
 0001:00123390       ?getUndecoratedName@UnDecorator@@QEAAPEADPEADH@Z 0000000180124390 f i libvcruntime:undname.obj
 0001:001234e4       ?getUnionObject@UnDecorator@@CA?AVDName@@XZ 00000001801244e4 f   libvcruntime:undname.obj
 0001:001235bc       ?getVCallThunkType@UnDecorator@@CA?AVDName@@XZ 00000001801245bc f i libvcruntime:undname.obj
 0001:00123634       ?getValue@UnDecorator@@CA?AV?$optional@_K@std@@XZ 0000000180124634 f   libvcruntime:undname.obj
 0001:001236a8       ?getValueObject@UnDecorator@@CA?AVDName@@XZ 00000001801246a8 f   libvcruntime:undname.obj
 0001:0012380c       ?getVdispMapType@UnDecorator@@CA?AVDName@@AEBV2@@Z 000000018012480c f i libvcruntime:undname.obj
 0001:00123888       ?getVfTableType@UnDecorator@@CA?AVDName@@AEBV2@@Z 0000000180124888 f i libvcruntime:undname.obj
 0001:00123a90       ?getZName@UnDecorator@@CA?AVDName@@_N0@Z 0000000180124a90 f   libvcruntime:undname.obj
 0001:00123d6c       ?raw_length@DNameStatusNode@@UEBAHXZ 0000000180124d6c f i libvcruntime:undname.obj
 0001:00123d6c       ?length@DNameStatusNode@@UEBAHXZ 0000000180124d6c f i libvcruntime:undname.obj
 0001:00123d70       ?length@pDNameNode@@UEBAHXZ 0000000180124d70 f i libvcruntime:undname.obj
 0001:00123d98       ?length@pairNode@@UEBAHXZ  0000000180124d98 f i libvcruntime:undname.obj
 0001:00123de0       ?parseDecoratedName@UnDecorator@@CA?AVDName@@XZ 0000000180124de0 f   libvcruntime:undname.obj
 0001:00123ef8       ?raw_length@pDNameNode@@UEBAHXZ 0000000180124ef8 f i libvcruntime:undname.obj
 0001:00123efc       __unDName                  0000000180124efc f   libvcruntime:undname.obj
 0001:00123f24       __unDNameEx                0000000180124f24 f   libvcruntime:undname.obj
 0001:00124058       sprintf_s                  0000000180125058 f i libvcruntime:undname.obj
 0001:001240c0       _NLG_Notify                00000001801250c0 f   libvcruntime:notify.obj
 0001:001240e0       __NLG_Dispatch2            00000001801250e0 f   libvcruntime:notify.obj
 0001:001240f0       __NLG_Return2              00000001801250f0 f   libvcruntime:notify.obj
 0001:001240f4       __except_validate_context_record 00000001801250f4 f   libvcruntime:jbcxrval.obj
 0001:0012412c       __vcrt_freefls             000000018012512c f   libvcruntime:per_thread_data.obj
 0001:0012414c       __vcrt_freeptd             000000018012514c f   libvcruntime:per_thread_data.obj
 0001:0012419c       __vcrt_getptd              000000018012519c f   libvcruntime:per_thread_data.obj
 0001:001241b8       __vcrt_getptd_noexit       00000001801251b8 f   libvcruntime:per_thread_data.obj
 0001:00124278       __vcrt_initialize_ptd      0000000180125278 f   libvcruntime:per_thread_data.obj
 0001:001242c0       __vcrt_uninitialize_ptd    00000001801252c0 f   libvcruntime:per_thread_data.obj
 0001:001242e4       __vcrt_initialize_locks    00000001801252e4 f   libvcruntime:locks.obj
 0001:00124318       __vcrt_lock                0000000180125318 f   libvcruntime:locks.obj
 0001:00124334       __vcrt_uninitialize_locks  0000000180125334 f   libvcruntime:locks.obj
 0001:0012436c       __vcrt_unlock              000000018012536c f   libvcruntime:locks.obj
 0001:00124388       ??$_CallSETranslator@V__FrameHandler3@@@@YAHPEAUEHExceptionRecord@@PEA_KPEAU_CONTEXT@@PEAU_xDISPATCHER_CONTEXT@@PEBU_s_FuncInfo@@K1H@Z 0000000180125388 f i libvcruntime:risctrnsctrl.obj
 0001:001243dc       ??$_CallSETranslator@V__FrameHandler4@@@@YAHPEAUEHExceptionRecord@@PEA_KPEAU_CONTEXT@@PEAU_xDISPATCHER_CONTEXT@@PEAUFuncInfo4@FH4@@K1H@Z 00000001801253dc f i libvcruntime:risctrnsctrl.obj
 0001:00124430       ?CatchTryBlock@__FrameHandler3@@SAPEBU_s_TryBlockMapEntry@@PEBU_s_FuncInfo@@H@Z 0000000180125430 f   libvcruntime:risctrnsctrl.obj
 0001:00124484       ?DecompFuncInfo@FH4@@YA_JPEAEAEAUFuncInfo4@1@_KH_N@Z 0000000180125484 f i libvcruntime:risctrnsctrl.obj
 0001:001245a8       ?ExecutionInCatch@__FrameHandler3@@SA_NPEAU_xDISPATCHER_CONTEXT@@PEBU_s_FuncInfo@@@Z 00000001801255a8 f   libvcruntime:risctrnsctrl.obj
 0001:001245d4       ?ExecutionInCatch@__FrameHandler4@@SA_NPEAU_xDISPATCHER_CONTEXT@@PEAUFuncInfo4@FH4@@@Z 00000001801255d4 f   libvcruntime:risctrnsctrl.obj
 0001:001245dc       ?FrameUnwindToEmptyState@__FrameHandler3@@SAXPEA_KPEAU_xDISPATCHER_CONTEXT@@PEBU_s_FuncInfo@@@Z 00000001801255dc f   libvcruntime:risctrnsctrl.obj
 0001:00124640       ?FrameUnwindToEmptyState@__FrameHandler4@@SAXPEA_KPEAU_xDISPATCHER_CONTEXT@@PEAUFuncInfo4@FH4@@@Z 0000000180125640 f   libvcruntime:risctrnsctrl.obj
 0001:00124674       ?GetEstablisherFrame@__FrameHandler3@@SAPEA_KPEA_KPEAU_xDISPATCHER_CONTEXT@@PEBU_s_FuncInfo@@0@Z 0000000180125674 f   libvcruntime:risctrnsctrl.obj
 0001:00124740       ?GetEstablisherFrame@__FrameHandler4@@SAPEA_KPEA_KPEAU_xDISPATCHER_CONTEXT@@PEAUFuncInfo4@FH4@@0@Z 0000000180125740 f   libvcruntime:risctrnsctrl.obj
 0001:00124764       ?GetRangeOfTrysToCheck@__FrameHandler3@@SA?AU?$pair@Viterator@TryBlockMap@__FrameHandler3@@V123@@std@@AEAVTryBlockMap@1@HPEAU_xDISPATCHER_CONTEXT@@PEBU_s_FuncInfo@@H@Z 0000000180125764 f   libvcruntime:risctrnsctrl.obj
 0001:001248a4       ?GetRangeOfTrysToCheck@__FrameHandler4@@SA?AU?$pair@Viterator@TryBlockMap4@FH4@@V123@@std@@AEAVTryBlockMap4@FH4@@HPEAU_xDISPATCHER_CONTEXT@@PEAUFuncInfo4@5@H@Z 00000001801258a4 f   libvcruntime:risctrnsctrl.obj
 0001:00124a0c       ?UnwindNestedFrames@__FrameHandler3@@SAXPEA_KPEAUEHExceptionRecord@@PEAU_CONTEXT@@0PEAXPEBU_s_FuncInfo@@HHPEBU_s_HandlerType@@PEAU_xDISPATCHER_CONTEXT@@E@Z 0000000180125a0c f   libvcruntime:risctrnsctrl.obj
 0001:00124b10       ?UnwindNestedFrames@__FrameHandler4@@SAXPEA_KPEAUEHExceptionRecord@@PEAU_CONTEXT@@0PEAXPEAUFuncInfo4@FH4@@HHPEAUHandlerType4@5@PEAU_xDISPATCHER_CONTEXT@@E@Z 0000000180125b10 f   libvcruntime:risctrnsctrl.obj
 0001:00124c30       ?setBuffer@TryBlockMap4@FH4@@QEAAXViterator@12@@Z 0000000180125c30 f i libvcruntime:risctrnsctrl.obj
 0001:00124df0       _CreateFrameInfo           0000000180125df0 f   libvcruntime:risctrnsctrl.obj
 0001:00124e2c       _FindAndUnlinkFrame        0000000180125e2c f   libvcruntime:risctrnsctrl.obj
 0001:00124e80       _GetImageBase              0000000180125e80 f   libvcruntime:risctrnsctrl.obj
 0001:00124e94       _GetThrowImageBase         0000000180125e94 f   libvcruntime:risctrnsctrl.obj
 0001:00124ea8       _SetImageBase              0000000180125ea8 f   libvcruntime:risctrnsctrl.obj
 0001:00124ec0       _SetThrowImageBase         0000000180125ec0 f   libvcruntime:risctrnsctrl.obj
 0001:00124ed8       __CxxFrameHandler3         0000000180125ed8 f   libvcruntime:risctrnsctrl.obj
 0001:00124f60       __CxxFrameHandler4         0000000180125f60 f   libvcruntime:risctrnsctrl.obj
 0001:00125170       __vcrt_FlsAlloc            0000000180126170 f   libvcruntime:winapi_downlevel.obj
 0001:001251b8       __vcrt_FlsFree             00000001801261b8 f   libvcruntime:winapi_downlevel.obj
 0001:00125200       __vcrt_FlsGetValue         0000000180126200 f   libvcruntime:winapi_downlevel.obj
 0001:00125248       __vcrt_FlsSetValue         0000000180126248 f   libvcruntime:winapi_downlevel.obj
 0001:0012529c       __vcrt_InitializeCriticalSectionEx 000000018012629c f   libvcruntime:winapi_downlevel.obj
 0001:00125300       ?GetCurrentState@__FrameHandler3@@SAHPEA_KPEAU_xDISPATCHER_CONTEXT@@PEBU_s_FuncInfo@@@Z 0000000180126300 f   libvcruntime:ehstate.obj
 0001:00125328       ?GetUnwindTryBlock@__FrameHandler3@@SAHPEA_KPEAU_xDISPATCHER_CONTEXT@@PEBU_s_FuncInfo@@@Z 0000000180126328 f   libvcruntime:ehstate.obj
 0001:00125354       ?SetState@__FrameHandler3@@SAXPEA_KPEBU_s_FuncInfo@@H@Z 0000000180126354 f   libvcruntime:ehstate.obj
 0001:00125360       ?SetUnwindTryBlock@__FrameHandler3@@SAXPEA_KPEAU_xDISPATCHER_CONTEXT@@PEBU_s_FuncInfo@@H@Z 0000000180126360 f   libvcruntime:ehstate.obj
 0001:0012539c       ?StateFromControlPc@__FrameHandler3@@SAHPEBU_s_FuncInfo@@PEAU_xDISPATCHER_CONTEXT@@@Z 000000018012639c f   libvcruntime:ehstate.obj
 0001:001253a4       ?StateFromControlPc@__FrameHandler4@@SAHPEAUFuncInfo4@FH4@@PEAU_xDISPATCHER_CONTEXT@@@Z 00000001801263a4 f   libvcruntime:ehstate.obj
 0001:001253ac       ?StateFromIp@__FrameHandler3@@SAHPEBU_s_FuncInfo@@PEAU_xDISPATCHER_CONTEXT@@_K@Z 00000001801263ac f   libvcruntime:ehstate.obj
 0001:00125414       ?StateFromIp@__FrameHandler4@@SAHPEAUFuncInfo4@FH4@@PEAU_xDISPATCHER_CONTEXT@@_K@Z 0000000180126414 f   libvcruntime:ehstate.obj
 0001:00126af8       ??$TypeMatchHelper@V__FrameHandler3@@@@YAHPEBU_s_HandlerType@@PEBU_s_CatchableType@@PEBU_s_ThrowInfo@@@Z 0000000180127af8 f i libvcruntime:frame.obj
 0001:00126c38       ??$TypeMatchHelper@V__FrameHandler4@@@@YAHPEAUHandlerType4@FH4@@PEBU_s_CatchableType@@PEBU_s_ThrowInfo@@@Z 0000000180127c38 f i libvcruntime:frame.obj
 0001:00126d7c       ??$__InternalCxxFrameHandler@V__FrameHandler3@@@@YA?AW4_EXCEPTION_DISPOSITION@@PEAUEHExceptionRecord@@PEA_KPEAU_CONTEXT@@PEAU_xDISPATCHER_CONTEXT@@PEBU_s_FuncInfo@@H1E@Z 0000000180127d7c f i libvcruntime:frame.obj
 0001:00126fb4       ??$__InternalCxxFrameHandler@V__FrameHandler4@@@@YA?AW4_EXCEPTION_DISPOSITION@@PEAUEHExceptionRecord@@PEA_KPEAU_CONTEXT@@PEAU_xDISPATCHER_CONTEXT@@PEAUFuncInfo4@FH4@@H1E@Z 0000000180127fb4 f i libvcruntime:frame.obj
 0001:00127248       ??0HandlerMap4@FH4@@QEAA@PEBUTryBlockMapEntry4@1@_KH@Z 0000000180128248 f i libvcruntime:frame.obj
 0001:001272c4       ??0TryBlockMap4@FH4@@QEAA@PEBUFuncInfo4@1@_K@Z 00000001801282c4 f i libvcruntime:frame.obj
 0001:0012739c       ??0bad_exception@std@@QEAA@AEBV01@@Z 000000018012839c f i libvcruntime:frame.obj
 0001:001273d8       ??0bad_exception@std@@QEAA@XZ 00000001801283d8 f i libvcruntime:frame.obj
 0001:001273f8       ??0exception@std@@QEAA@AEBV01@@Z 00000001801283f8 f i libvcruntime:frame.obj
 0001:0012742c       ??1bad_exception@std@@UEAA@XZ 000000018012842c f i libvcruntime:frame.obj
 0001:00127440       ??_Gexception@std@@UEAAPEAXI@Z 0000000180128440 f i libvcruntime:frame.obj
 0001:00127440       ??_Eexception@std@@UEAAPEAXI@Z 0000000180128440 f i libvcruntime:frame.obj
 0001:00127440       ??_Ebad_exception@std@@UEAAPEAXI@Z 0000000180128440 f i libvcruntime:frame.obj
 0001:00127440       ??_Gbad_exception@std@@UEAAPEAXI@Z 0000000180128440 f i libvcruntime:frame.obj
 0001:00127484       ?CxxCallCatchBlock@__FrameHandler3@@SAPEAXPEAU_EXCEPTION_RECORD@@@Z 0000000180128484 f   libvcruntime:frame.obj
 0001:00127670       ?CxxCallCatchBlock@__FrameHandler4@@SAPEAXPEAU_EXCEPTION_RECORD@@@Z 0000000180128670 f   libvcruntime:frame.obj
 0001:001278c0       ?DecompHandler@HandlerMap4@FH4@@AEAAXXZ 00000001801288c0 f i libvcruntime:frame.obj
 0001:00127b00       ?FrameUnwindToState@__FrameHandler3@@SAXPEA_KPEAU_xDISPATCHER_CONTEXT@@PEBU_s_FuncInfo@@H@Z 0000000180128b00 f   libvcruntime:frame.obj
 0001:00127c8c       ?FrameUnwindToState@__FrameHandler4@@SAXPEA_KPEAU_xDISPATCHER_CONTEXT@@PEAUFuncInfo4@FH4@@H@Z 0000000180128c8c f   libvcruntime:frame.obj
 0001:00127f74       ?GetHandlerSearchState@__FrameHandler3@@SAHPEA_KPEAU_xDISPATCHER_CONTEXT@@PEBU_s_FuncInfo@@@Z 0000000180128f74 f i libvcruntime:frame.obj
 0001:00128184       ?ReadEntry@UWMap4@FH4@@AEAAXPEAPEAE@Z 0000000180129184 f i libvcruntime:frame.obj
 0001:00128224       ?_CallMemberFunction1@@YAXQEAX00@Z 0000000180129224 f i libvcruntime:frame.obj
 0001:00128230       ?_CallMemberFunction2@@YAXQEAX00H@Z 0000000180129230 f i libvcruntime:frame.obj
 0001:00128240       ?getStartStop@UWMap4@FH4@@QEAAXHHAEAViterator@12@0@Z 0000000180129240 f i libvcruntime:frame.obj
 0001:00128310       ?getStateFromIterators@UWMap4@FH4@@SAHAEBViterator@12@H0H0@Z 0000000180129310 f i libvcruntime:frame.obj
 0001:001283d8       ?what@exception@std@@UEBAPEBDXZ 00000001801293d8 f i libvcruntime:frame.obj
 0001:00128400       _CallSettingFrame          0000000180129400 f   libvcruntime:handlers.obj
 0001:00128450       _CallSettingFrame_LookupContinuationIndex 0000000180129450 f   libvcruntime:handlers.obj
 0001:00128480       _CallSettingFrame_NotifyContinuationAddr 0000000180129480 f   libvcruntime:handlers.obj
 0001:001284b0       _CallSettingFrameEncoded   00000001801294b0 f   libvcruntime:handlers.obj
 0001:001284f8       __std_exception_copy       00000001801294f8 f   libvcruntime:std_exception.obj
 0001:00128588       __std_exception_destroy    0000000180129588 f   libvcruntime:std_exception.obj
 0001:001285b0       _CxxThrowException         00000001801295b0 f   libvcruntime:throw.obj
 0001:00128650       cosf                       0000000180129650 f   libucrt:cosf.obj
 0001:00128b50       sinf                       0000000180129b50 f   libucrt:sinf.obj
 0001:00129250       tanf                       000000018012a250 f   libucrt:tanf.obj
 0001:001298e0       strcmp                     000000018012a8e0 f   libucrt:strcmp.obj
 0001:00129948       _fpclass                   000000018012a948 f   libucrt:ieeemisc.obj
 0001:001299d0       acosf                      000000018012a9d0 f   libucrt:acosf.obj
 0001:00129bfc       free                       000000018012abfc f   libucrt:free.obj
 0001:00129c10       _initterm                  000000018012ac10 f   libucrt:initterm.obj
 0001:00129c54       _initterm_e                000000018012ac54 f   libucrt:initterm.obj
 0001:00129c9c       _seh_filter_dll            000000018012ac9c f   libucrt:exception_filter.obj
 0001:00129cb0       _seh_filter_exe            000000018012acb0 f   libucrt:exception_filter.obj
 0001:0012a0c8       __acrt_initialize_thread_local_exit_callback 000000018012b0c8 f   libucrt:exit.obj
 0001:0012a0d0       _cexit                     000000018012b0d0 f   libucrt:exit.obj
 0001:0012a0e0       _exit                      000000018012b0e0 f   libucrt:exit.obj
 0001:0012a0ec       _is_c_termination_complete 000000018012b0ec f   libucrt:exit.obj
 0001:0012a2bc       __acrt_allocate_buffer_for_argv 000000018012b2bc f   libucrt:argv_parsing.obj
 0001:0012a31c       _configure_narrow_argv     000000018012b31c f   libucrt:argv_parsing.obj
 0001:0012a6a4       __dcrt_uninitialize_environments_nolock 000000018012b6a4 f   libucrt:environment_initialization.obj
 0001:0012a6e8       _initialize_narrow_environment 000000018012b6e8 f   libucrt:environment_initialization.obj
 0001:0012a84c       _execute_onexit_table      000000018012b84c f   libucrt:onexit.obj
 0001:0012a890       _initialize_onexit_table   000000018012b890 f   libucrt:onexit.obj
 0001:0012a8f0       __acrt_uninitialize_command_line 000000018012b8f0 f   libucrt:argv_data.obj
 0001:0012a9e8       __acrt_initialize          000000018012b9e8 f   libucrt:initialization.obj
 0001:0012a9fc       __acrt_thread_attach       000000018012b9fc f   libucrt:initialization.obj
 0001:0012aa10       __acrt_thread_detach       000000018012ba10 f   libucrt:initialization.obj
 0001:0012aa20       __acrt_uninitialize        000000018012ba20 f   libucrt:initialization.obj
 0001:0012aa58       __acrt_uninitialize_critical 000000018012ba58 f   libucrt:initialization.obj
 0001:0012aa68       terminate                  000000018012ba68 f   libucrt:terminate.obj
 0001:0012aa94       abort                      000000018012ba94 f   libucrt:abort.obj
 0001:0012aaec       malloc                     000000018012baec f   libucrt:malloc.obj
 0001:0012aaf4       strcpy_s                   000000018012baf4 f   libucrt:strcpy_s.obj
 0001:0012ad04       ??$ensure_buffer_is_big_enough@D@formatting_buffer@__crt_stdio_output@@QEAA_N_KAEAV__crt_cached_ptd_host@@@Z 000000018012bd04 f i libucrt:output.obj
 0001:0012adac       ??$parse_integer@KV?$c_string_character_source@D@__crt_strtox@@$0A@@__crt_strtox@@YAKAEAV__crt_cached_ptd_host@@V?$c_string_character_source@D@0@H_N@Z 000000018012bdac f i libucrt:output.obj
 0001:0012b060       ??$type_case_integer@$07@?$output_processor@DV?$string_output_adapter@D@__crt_stdio_output@@V?$format_validation_base@DV?$string_output_adapter@D@__crt_stdio_output@@@2@@__crt_stdio_output@@AEAA_N_N@Z 000000018012c060 f i libucrt:output.obj
 0001:0012b264       ??$type_case_integer@$09@?$output_processor@DV?$string_output_adapter@D@__crt_stdio_output@@V?$format_validation_base@DV?$string_output_adapter@D@__crt_stdio_output@@@2@@__crt_stdio_output@@AEAA_N_N@Z 000000018012c264 f i libucrt:output.obj
 0001:0012b468       ??$type_case_integer@$0BA@@?$output_processor@DV?$string_output_adapter@D@__crt_stdio_output@@V?$format_validation_base@DV?$string_output_adapter@D@__crt_stdio_output@@@2@@__crt_stdio_output@@AEAA_N_N@Z 000000018012c468 f i libucrt:output.obj
 0001:0012b66c       ??$type_case_integer_parse_into_buffer@I$07@?$output_processor@DV?$string_output_adapter@D@__crt_stdio_output@@V?$format_validation_base@DV?$string_output_adapter@D@__crt_stdio_output@@@2@@__crt_stdio_output@@AEAAXI_N@Z 000000018012c66c f i libucrt:output.obj
 0001:0012b6dc       ??$type_case_integer_parse_into_buffer@I$09@?$output_processor@DV?$string_output_adapter@D@__crt_stdio_output@@V?$format_validation_base@DV?$string_output_adapter@D@__crt_stdio_output@@@2@@__crt_stdio_output@@AEAAXI_N@Z 000000018012c6dc f i libucrt:output.obj
 0001:0012b788       ??$type_case_integer_parse_into_buffer@I$0BA@@?$output_processor@DV?$string_output_adapter@D@__crt_stdio_output@@V?$format_validation_base@DV?$string_output_adapter@D@__crt_stdio_output@@@2@@__crt_stdio_output@@AEAAXI_N@Z 000000018012c788 f i libucrt:output.obj
 0001:0012b80c       ??$type_case_integer_parse_into_buffer@_K$07@?$output_processor@DV?$string_output_adapter@D@__crt_stdio_output@@V?$format_validation_base@DV?$string_output_adapter@D@__crt_stdio_output@@@2@@__crt_stdio_output@@AEAAX_K_N@Z 000000018012c80c f i libucrt:output.obj
 0001:0012b87c       ??$type_case_integer_parse_into_buffer@_K$09@?$output_processor@DV?$string_output_adapter@D@__crt_stdio_output@@V?$format_validation_base@DV?$string_output_adapter@D@__crt_stdio_output@@@2@@__crt_stdio_output@@AEAAX_K_N@Z 000000018012c87c f i libucrt:output.obj
 0001:0012b92c       ??$type_case_integer_parse_into_buffer@_K$0BA@@?$output_processor@DV?$string_output_adapter@D@__crt_stdio_output@@V?$format_validation_base@DV?$string_output_adapter@D@__crt_stdio_output@@@2@@__crt_stdio_output@@AEAAX_K_N@Z 000000018012c92c f i libucrt:output.obj
 0001:0012b9b0       ?crop_zeroes@__crt_stdio_output@@YAXPEADQEAU__crt_locale_pointers@@@Z 000000018012c9b0 f i libucrt:output.obj
 0001:0012ba20       ?get_raw_ptd@__crt_cached_ptd_host@@QEAAPEAU__acrt_ptd@@XZ 000000018012ca20 f i libucrt:output.obj
 0001:0012ba88       ?parse_int_from_format_string@?$output_processor@DV?$string_output_adapter@D@__crt_stdio_output@@V?$format_validation_base@DV?$string_output_adapter@D@__crt_stdio_output@@@2@@__crt_stdio_output@@AEAA_NQEAH@Z 000000018012ca88 f i libucrt:output.obj
 0001:0012bb18       ?process@?$output_processor@DV?$string_output_adapter@D@__crt_stdio_output@@V?$format_validation_base@DV?$string_output_adapter@D@__crt_stdio_output@@@2@@__crt_stdio_output@@QEAAHXZ 000000018012cb18 f i libucrt:output.obj
 0001:0012be9c       ?state_case_size@?$output_processor@DV?$string_output_adapter@D@__crt_stdio_output@@V?$format_validation_base@DV?$string_output_adapter@D@__crt_stdio_output@@@2@@__crt_stdio_output@@AEAA_NXZ 000000018012ce9c f i libucrt:output.obj
 0001:0012c024       ?state_case_type@?$output_processor@DV?$string_output_adapter@D@__crt_stdio_output@@V?$format_validation_base@DV?$string_output_adapter@D@__crt_stdio_output@@@2@@__crt_stdio_output@@AEAA_NXZ 000000018012d024 f i libucrt:output.obj
 0001:0012c428       ?type_case_Z@?$output_processor@DV?$string_output_adapter@D@__crt_stdio_output@@V?$format_validation_base@DV?$string_output_adapter@D@__crt_stdio_output@@@2@@__crt_stdio_output@@AEAA_NXZ 000000018012d428 f i libucrt:output.obj
 0001:0012c4a4       ?type_case_a@?$output_processor@DV?$string_output_adapter@D@__crt_stdio_output@@V?$format_validation_base@DV?$string_output_adapter@D@__crt_stdio_output@@@2@@__crt_stdio_output@@AEAA_NXZ 000000018012d4a4 f i libucrt:output.obj
 0001:0012c6f8       ?type_case_c_tchar@?$output_processor@DV?$string_output_adapter@D@__crt_stdio_output@@V?$format_validation_base@DV?$string_output_adapter@D@__crt_stdio_output@@@2@@__crt_stdio_output@@AEAA_ND@Z 000000018012d6f8 f i libucrt:output.obj
 0001:0012c7cc       ?type_case_n@?$output_processor@DV?$string_output_adapter@D@__crt_stdio_output@@V?$format_validation_base@DV?$string_output_adapter@D@__crt_stdio_output@@@2@@__crt_stdio_output@@AEAA_NXZ 000000018012d7cc f i libucrt:output.obj
 0001:0012c884       ?type_case_s@?$output_processor@DV?$string_output_adapter@D@__crt_stdio_output@@V?$format_validation_base@DV?$string_output_adapter@D@__crt_stdio_output@@@2@@__crt_stdio_output@@AEAA_NXZ 000000018012d884 f i libucrt:output.obj
 0001:0012c920       ?update_locale_slow@__crt_cached_ptd_host@@AEAAXXZ 000000018012d920 f i libucrt:output.obj
 0001:0012c998       ?write_string@?$string_output_adapter@D@__crt_stdio_output@@QEBAXQEBDHQEAHAEAV__crt_cached_ptd_host@@@Z 000000018012d998 f i libucrt:output.obj
 0001:0012ca3c       __stdio_common_vsprintf_s  000000018012da3c f   libucrt:output.obj
 0001:0012cb50       ??$parse_integer@KV?$c_string_character_source@D@__crt_strtox@@$00@__crt_strtox@@YAKAEAV__crt_cached_ptd_host@@V?$c_string_character_source@D@0@H_N@Z 000000018012db50 f i libucrt:atox.obj
 0001:0012ce40       _ischartype_l              000000018012de40 f i libucrt:atox.obj
 0001:0012ceb8       atol                       000000018012deb8 f   libucrt:atox.obj
 0001:0012cf80       strncmp                    000000018012df80 f   libucrt:strncmp.obj
 0001:0012d000       calloc                     000000018012e000 f   libucrt:calloc.obj
 0001:0012d008       wcsncmp                    000000018012e008 f   libucrt:wcsncmp.obj
 0001:0012d040       __remainder_piby2d2f_forAsm 000000018012e040 f   libucrt:remainder_piby2f_forasm.obj
 0001:0012d190       __remainder_piby2_fma3     000000018012e190 f   libucrt:remainder_piby2_forfma3.obj
 0001:0012d380       __remainder_piby2_fma3_bdl 000000018012e380 f   libucrt:remainder_piby2_forfma3.obj
 0001:0012d3f8       _cosf_special              000000018012e3f8 f   libucrt:sincos_special.obj
 0001:0012d498       _sinf_special              000000018012e498 f   libucrt:sincos_special.obj
 0001:0012d4ac       _tanf_special              000000018012e4ac f   libucrt:sincos_special.obj
 0001:0012d4c0       _clrfp                     000000018012e4c0 f   libucrt:fpctrl.obj
 0001:0012d4e0       _ctrlfp                    000000018012e4e0 f   libucrt:fpctrl.obj
 0001:0012d55c       _set_statfp                000000018012e55c f   libucrt:fpctrl.obj
 0001:0012d57c       _statfp                    000000018012e57c f   libucrt:fpctrl.obj
 0001:0012d590       __acrt_initialize_fma3     000000018012e590 f   libucrt:fma3_available.obj
 0001:0012d600       __remainder_piby2d2f_forC  000000018012e600 f   libucrt:remainder_piby2f_forc.obj
 0001:0012d8b0       _handle_error              000000018012e8b0 f   libucrt:libm_error.obj
 0001:0012d9d8       _handle_errorf             000000018012e9d8 f   libucrt:libm_error.obj
 0001:0012db0c       _handle_nan                000000018012eb0c f   libucrt:libm_error.obj
 0001:0012db28       _handle_nanf               000000018012eb28 f   libucrt:libm_error.obj
 0001:0012db38       _free_base                 000000018012eb38 f   libucrt:free_base.obj
 0001:0012deec       __acrt_freeptd             000000018012eeec f   libucrt:per_thread_data.obj
 0001:0012df30       __acrt_getptd              000000018012ef30 f   libucrt:per_thread_data.obj
 0001:0012e004       __acrt_getptd_head         000000018012f004 f   libucrt:per_thread_data.obj
 0001:0012e0a8       __acrt_getptd_noexit       000000018012f0a8 f   libucrt:per_thread_data.obj
 0001:0012e170       __acrt_getptd_noexit_explicit 000000018012f170 f   libucrt:per_thread_data.obj
 0001:0012e230       __acrt_initialize_ptd      000000018012f230 f   libucrt:per_thread_data.obj
 0001:0012e26c       __acrt_uninitialize_ptd    000000018012f26c f   libucrt:per_thread_data.obj
 0001:0012e290       __acrt_initialize_locks    000000018012f290 f   libucrt:locks.obj
 0001:0012e2d8       __acrt_lock                000000018012f2d8 f   libucrt:locks.obj
 0001:0012e2f4       __acrt_uninitialize_locks  000000018012f2f4 f   libucrt:locks.obj
 0001:0012e32c       __acrt_unlock              000000018012f32c f   libucrt:locks.obj
 0001:0012e348       __acrt_app_verifier_enabled 000000018012f348 f   libucrt:peb_access.obj
 0001:0012e364       __acrt_is_secure_process   000000018012f364 f   libucrt:peb_access.obj
 0001:0012e37c       __acrt_get_process_end_policy 000000018012f37c f   libucrt:win_policies.obj
 0001:0012e3ac       ?get_raw_ptd_noexit@__crt_cached_ptd_host@@QEAAPEAU__acrt_ptd@@XZ 000000018012f3ac f i libucrt:invalid_parameter.obj
 0001:0012e418       ?value@?$dual_state_global@P6AXPEB_W00I_K@Z@__crt_state_management@@QEAAAEAP6AXPEB_W00I_K@ZAEAV__crt_cached_ptd_host@@@Z 000000018012f418 f i libucrt:invalid_parameter.obj
 0001:0012e464       __acrt_call_reportfault    000000018012f464 f   libucrt:invalid_parameter.obj
 0001:0012e5c0       __acrt_initialize_invalid_parameter_handler 000000018012f5c0 f   libucrt:invalid_parameter.obj
 0001:0012e5c8       _invalid_parameter         000000018012f5c8 f   libucrt:invalid_parameter.obj
 0001:0012e664       _invalid_parameter_internal 000000018012f664 f   libucrt:invalid_parameter.obj
 0001:0012e730       _invalid_parameter_noinfo  000000018012f730 f   libucrt:invalid_parameter.obj
 0001:0012e750       _invoke_watson             000000018012f750 f   libucrt:invalid_parameter.obj
 0001:0012e798       __acrt_errno_from_os_error 000000018012f798 f   libucrt:errno.obj
 0001:0012e7e0       __acrt_errno_map_os_error  000000018012f7e0 f   libucrt:errno.obj
 0001:0012e828       __acrt_errno_map_os_error_ptd 000000018012f828 f   libucrt:errno.obj
 0001:0012e84c       __doserrno                 000000018012f84c f   libucrt:errno.obj
 0001:0012e86c       _errno                     000000018012f86c f   libucrt:errno.obj
 0001:0012e88c       _calloc_base               000000018012f88c f   libucrt:calloc_base.obj
 0001:0012e918       ??$__acrt_convert_wcs_mbs_cp@D_WV<lambda_7c9dea7b4ca7285d2cdb541a38da6275>@@U__crt_win32_buffer_internal_dynamic_resizing@@@@YAHQEBDAEAV?$__crt_win32_buffer@_WU__crt_win32_buffer_internal_dynamic_resizing@@@@AEBV<lambda_7c9dea7b4ca7285d2cdb541a38da6275>@@I@Z 000000018012f918 f i libucrt:argv_wildcards.obj
 0001:0012ea94       ??$__acrt_convert_wcs_mbs_cp@_WDV<lambda_d8593a27d1aa8c02be35c86a17d324c4>@@U__crt_win32_buffer_internal_dynamic_resizing@@@@YAHQEB_WAEAV?$__crt_win32_buffer@DU__crt_win32_buffer_internal_dynamic_resizing@@@@AEBV<lambda_d8593a27d1aa8c02be35c86a17d324c4>@@I@Z 000000018012fa94 f i libucrt:argv_wildcards.obj
 0001:0012f338       ??0_LocaleUpdate@@QEAA@QEAU__crt_locale_pointers@@@Z 0000000180130338 f i libucrt:argv_wildcards.obj
 0001:0012f3d4       __acrt_expand_narrow_argv_wildcards 00000001801303d4 f   libucrt:argv_wildcards.obj
 0001:0012f3dc       ??$__acrt_convert_wcs_mbs_cp@_WDV<lambda_f788ae46380686e8b737efdd8c720d07>@@U__crt_win32_buffer_no_resizing@@@@YAHQEB_WAEAV?$__crt_win32_buffer@DU__crt_win32_buffer_no_resizing@@@@AEBV<lambda_f788ae46380686e8b737efdd8c720d07>@@I@Z 00000001801303dc f i libucrt:getmodulefilenamea.obj
 0001:0012f4f8       __acrt_GetModuleFileNameA  00000001801304f8 f   libucrt:getmodulefilenamea.obj
 0001:0012fe14       __acrt_initialize_multibyte 0000000180130e14 f   libucrt:mbctype.obj
 0001:0012fe74       __acrt_update_thread_multibyte_data 0000000180130e74 f   libucrt:mbctype.obj
 0001:0012fe90       _setmbcp_nolock            0000000180130e90 f   libucrt:mbctype.obj
 0001:001301c4       _ismbblead                 00000001801311c4 f   libucrt:ismbbyte.obj
 0001:001301d8       __acrt_initialize_command_line 00000001801311d8 f   libucrt:argv_data.obj
 0001:00130200       __acrt_MultiByteToWideChar 0000000180131200 f   libucrt:multibytetowidechar.obj
 0001:00130290       __acrt_WideCharToMultiByte 0000000180131290 f   libucrt:widechartomultibyte.obj
 0001:00130370       __dcrt_get_narrow_environment_from_os 0000000180131370 f   libucrt:get_environment_from_os.obj
 0001:00130480       _recalloc_base             0000000180131480 f   libucrt:recalloc.obj
 0001:001306d4       __acrt_AppPolicyGetProcessTerminationMethodInternal 00000001801316d4 f   libucrt:winapi_thunks.obj
 0001:0013072c       __acrt_AreFileApisANSI     000000018013172c f   libucrt:winapi_thunks.obj
 0001:00130770       __acrt_FlsAlloc            0000000180131770 f   libucrt:winapi_thunks.obj
 0001:00130778       __acrt_FlsFree             0000000180131778 f   libucrt:winapi_thunks.obj
 0001:00130780       __acrt_FlsGetValue         0000000180131780 f   libucrt:winapi_thunks.obj
 0001:00130788       __acrt_FlsSetValue         0000000180131788 f   libucrt:winapi_thunks.obj
 0001:00130790       __acrt_InitializeCriticalSectionEx 0000000180131790 f   libucrt:winapi_thunks.obj
 0001:00130800       __acrt_LCMapStringEx       0000000180131800 f   libucrt:winapi_thunks.obj
 0001:001308ec       __acrt_LocaleNameToLCID    00000001801318ec f   libucrt:winapi_thunks.obj
 0001:0013094c       __acrt_initialize_winapi_thunks 000000018013194c f   libucrt:winapi_thunks.obj
 0001:00130970       __acrt_uninitialize_winapi_thunks 0000000180131970 f   libucrt:winapi_thunks.obj
 0001:001309b4       __acrt_initialize_heap     00000001801319b4 f   libucrt:heap_handle.obj
 0001:001309d0       __acrt_uninitialize_heap   00000001801319d0 f   libucrt:heap_handle.obj
 0001:00130bd4       __acrt_initialize_lowio    0000000180131bd4 f   libucrt:ioinit.obj
 0001:00130c10       __acrt_uninitialize_lowio  0000000180131c10 f   libucrt:ioinit.obj
 0001:00130c50       __acrt_execute_initializers 0000000180131c50 f   libucrt:shared_initialization.obj
 0001:00130ce4       __acrt_execute_uninitializers 0000000180131ce4 f   libucrt:shared_initialization.obj
 0001:00130d2c       __acrt_initialize_new_handler 0000000180131d2c f   libucrt:new_handler.obj
 0001:00130d34       _callnewh                  0000000180131d34 f   libucrt:new_handler.obj
 0001:00130d74       _query_new_handler         0000000180131d74 f   libucrt:new_handler.obj
 0001:00130df4       __acrt_get_sigabrt_handler 0000000180131df4 f   libucrt:signal.obj
 0001:00130e24       __acrt_initialize_signal_handlers 0000000180131e24 f   libucrt:signal.obj
 0001:00130e44       raise                      0000000180131e44 f   libucrt:signal.obj
 0001:001310c0       __acrt_has_user_matherr    00000001801320c0 f   libucrt:matherr.obj
 0001:001310e0       __acrt_initialize_user_matherr 00000001801320e0 f   libucrt:matherr.obj
 0001:001310e8       __acrt_invoke_user_matherr 00000001801320e8 f   libucrt:matherr.obj
 0001:00131304       __acrt_stdio_flush_nolock  0000000180132304 f   libucrt:fflush.obj
 0001:00131390       _fflush_nolock             0000000180132390 f   libucrt:fflush.obj
 0001:00131464       _flushall                  0000000180132464 f   libucrt:fflush.obj
 0001:0013146c       __acrt_initialize_stdio    000000018013246c f   libucrt:_file.obj
 0001:0013158c       __acrt_uninitialize_stdio  000000018013258c f   libucrt:_file.obj
 0001:001315e8       _lock_file                 00000001801325e8 f   libucrt:_file.obj
 0001:001315f4       _unlock_file               00000001801325f4 f   libucrt:_file.obj
 0001:00131600       _malloc_base               0000000180132600 f   libucrt:malloc_base.obj
 0001:00131660       strnlen                    0000000180132660 f   libucrt:strnlen.obj
 0001:001317b0       wcsnlen                    00000001801327b0 f   libucrt:strnlen.obj
 0001:00131988       __acrt_update_locale_info  0000000180132988 f   libucrt:locale_update.obj
 0001:001319bc       __acrt_update_locale_info_explicit 00000001801329bc f   libucrt:locale_update.obj
 0001:001319f4       __acrt_update_multibyte_info 00000001801329f4 f   libucrt:locale_update.obj
 0001:00131a28       __acrt_update_multibyte_info_explicit 0000000180132a28 f   libucrt:locale_update.obj
 0001:00132574       __acrt_fp_format           0000000180133574 f   libucrt:cvt.obj
 0001:0013285c       _wctomb_internal           000000018013385c f   libucrt:wctomb.obj
 0001:00132a0c       _mbtowc_internal           0000000180133a0c f   libucrt:mbtowc.obj
 0001:00132b84       _fileno                    0000000180133b84 f   libucrt:fileno.obj
 0001:00132bac       _get_printf_count_output   0000000180133bac f   libucrt:printf_count_output.obj
 0001:00132c34       __acrt_set_locale_changed  0000000180133c34 f   libucrt:wsetlocale.obj
 0001:00132c40       __acrt_uninitialize_locale 0000000180133c40 f   libucrt:wsetlocale.obj
 0001:00132c70       __pctype_func              0000000180133c70 f   libucrt:ctype.obj
 0001:00132ca0       _isctype_l                 0000000180133ca0 f   libucrt:isctype.obj
 0001:00132dc0       _get_fpsr                  0000000180133dc0 f   libucrt:fpsr.obj
 0001:00132dd0       _set_fpsr                  0000000180133dd0 f   libucrt:fpsr.obj
 0001:00132dda       _fclrf                     0000000180133dda f   libucrt:fpsr.obj
 0001:00132dee       _frnd                      0000000180133dee f   libucrt:fpsr.obj
 0001:00132e10       _raise_exc                 0000000180133e10 f   libucrt:fpexcept.obj
 0001:00132e38       _raise_exc_ex              0000000180133e38 f   libucrt:fpexcept.obj
 0001:00133140       _raise_excf                0000000180134140 f   libucrt:fpexcept.obj
 0001:0013316c       _set_errno_from_matherr    000000018013416c f   libucrt:fpexcept.obj
 0001:0013319c       __acrt_add_locale_ref      000000018013419c f   libucrt:locale_refcounting.obj
 0001:00133228       __acrt_free_locale         0000000180134228 f   libucrt:locale_refcounting.obj
 0001:001333a0       __acrt_locale_add_lc_time_reference 00000001801343a0 f   libucrt:locale_refcounting.obj
 0001:001333c8       __acrt_locale_free_lc_time_if_unreferenced 00000001801343c8 f   libucrt:locale_refcounting.obj
 0001:00133400       __acrt_locale_release_lc_time_reference 0000000180134400 f   libucrt:locale_refcounting.obj
 0001:00133428       __acrt_release_locale_ref  0000000180134428 f   libucrt:locale_refcounting.obj
 0001:001334d0       __acrt_update_thread_locale_data 00000001801344d0 f   libucrt:locale_refcounting.obj
 0001:00133540       _updatetlocinfoEx_nolock   0000000180134540 f   libucrt:locale_refcounting.obj
 0001:001335a8       _query_new_mode            00000001801345a8 f   libucrt:new_mode.obj
 0001:001335b0       qsort                      00000001801345b0 f   libucrt:qsort.obj
 0001:001339c0       strncpy_s                  00000001801349c0 f   libucrt:strncpy_s.obj
 0001:00133b50       strpbrk                    0000000180134b50 f   libucrt:strpbrk.obj
 0001:00133f18       _mbsdec                    0000000180134f18 f   libucrt:mbsdec.obj
 0001:00133f20       _mbsdec_l                  0000000180134f20 f   libucrt:mbsdec.obj
 0001:00133fb4       __acrt_GetStringTypeA      0000000180134fb4 f   libucrt:getstringtypea.obj
 0001:00134478       __acrt_LCMapStringA        0000000180135478 f   libucrt:lcmapstringa.obj
 0001:00134528       _msize_base                0000000180135528 f   libucrt:msize.obj
 0001:00134564       _realloc_base              0000000180135564 f   libucrt:realloc_base.obj
 0001:001345e0       __acrt_DownlevelLocaleNameToLCID 00000001801355e0 f   libucrt:lcidtoname_downlevel.obj
 0001:00134684       __acrt_lowio_create_handle_array 0000000180135684 f   libucrt:osfinfo.obj
 0001:0013472c       __acrt_lowio_destroy_handle_array 000000018013572c f   libucrt:osfinfo.obj
 0001:0013477c       __acrt_lowio_ensure_fh_exists 000000018013577c f   libucrt:osfinfo.obj
 0001:00134824       __acrt_lowio_lock_fh       0000000180135824 f   libucrt:osfinfo.obj
 0001:0013484c       __acrt_lowio_unlock_fh     000000018013584c f   libucrt:osfinfo.obj
 0001:00134874       _free_osfhnd               0000000180135874 f   libucrt:osfinfo.obj
 0001:00134930       _get_osfhandle             0000000180135930 f   libucrt:osfinfo.obj
 0001:00134a34       _commit                    0000000180135a34 f   libucrt:commit.obj
 0001:001352d0       _write_internal            00000001801362d0 f   libucrt:write.obj
 0001:001353f0       _write_nolock              00000001801363f0 f   libucrt:write.obj
 0001:001356f8       _fcloseall                 00000001801366f8 f   libucrt:closeall.obj
 0001:001357ac       __acrt_stdio_free_buffer_nolock 00000001801367ac f   libucrt:_freebuf.obj
 0001:001357f0       _isatty                    00000001801367f0 f   libucrt:isatty.obj
 0001:00135920       __acrt_fp_strflt_to_string 0000000180136920 f   libucrt:_fptostr.obj
 0001:00135a30       ?divide@__crt_strtox@@YA_KAEAUbig_integer@1@AEBU21@@Z 0000000180136a30 f i libucrt:cfout.obj
 0001:00135ecc       __acrt_fltout              0000000180136ecc f   libucrt:cfout.obj
 0001:001371e4       fegetround                 00000001801381e4 f   libucrt:fegetround.obj
 0001:001371f8       ?__c32rtomb_utf8@__crt_mbstring@@YA_KPEAD_UPEAU_Mbstatet@@AEAV__crt_cached_ptd_host@@@Z 00000001801381f8 f   libucrt:c32rtomb.obj
 0001:0013729c       ?__mbrtowc_utf8@__crt_mbstring@@YA_KPEA_WPEBD_KPEAU_Mbstatet@@AEAV__crt_cached_ptd_host@@@Z 000000018013829c f   libucrt:mbrtowc.obj
 0001:001372e0       ?__mbsrtowcs_utf8@__crt_mbstring@@YA_KPEA_WPEAPEBD_KPEAU_Mbstatet@@AEAV__crt_cached_ptd_host@@@Z 00000001801382e0 f   libucrt:mbrtowc.obj
 0001:00137484       __acrt_locale_free_monetary 0000000180138484 f   libucrt:initmon.obj
 0001:00137590       __acrt_locale_free_numeric 0000000180138590 f   libucrt:initnum.obj
 0001:00137630       __acrt_locale_free_time    0000000180138630 f   libucrt:inittime.obj
 0001:00137738       __strncnt                  0000000180138738 f   libucrt:strncnt.obj
 0001:00137750       __ascii_wcsnicmp           0000000180138750 f   libucrt:wcsnicmp.obj
 0001:0013779c       _query_app_type            000000018013879c f   libucrt:report_runtime_error.obj
 0001:00137850       _lseeki64_nolock_internal  0000000180138850 f   libucrt:lseek.obj
 0001:00137858       _putwch_nolock             0000000180138858 f   libucrt:putwch.obj
 0001:001379b8       fclose                     00000001801389b8 f   libucrt:fclose.obj
 0001:00137a50       _controlfp_s               0000000180138a50 f   libucrt:contrlfp.obj
 0001:00137ab4       fegetenv                   0000000180138ab4 f   libucrt:fegetenv.obj
 0001:00137ad4       fesetenv                   0000000180138ad4 f   libucrt:fesetenv.obj
 0001:00137b2c       feholdexcept               0000000180138b2c f   libucrt:feholdexcept.obj
 0001:00137b7c       ceil                       0000000180138b7c f   libucrt:ceil.obj
 0001:00137c40       log10                      0000000180138c40 f   libucrt:log10.obj
 0001:001381ec       __acrt_fenv_get_common_round_control 00000001801391ec f   libucrt:_fenvutils.obj
 0001:001381f8       __acrt_fenv_get_control    00000001801391f8 f   libucrt:_fenvutils.obj
 0001:001382dc       __acrt_fenv_get_status     00000001801392dc f   libucrt:_fenvutils.obj
 0001:00138334       __acrt_fenv_set_control    0000000180139334 f   libucrt:_fenvutils.obj
 0001:0013846c       __acrt_fenv_set_status     000000018013946c f   libucrt:_fenvutils.obj
 0001:001384e0       ?reset_and_return@__crt_mbstring@@YA_K_KPEAU_Mbstatet@@@Z 00000001801394e0 f   libucrt:common_utf8.obj
 0001:001384e8       ?return_illegal_sequence@__crt_mbstring@@YA_KPEAU_Mbstatet@@AEAV__crt_cached_ptd_host@@@Z 00000001801394e8 f   libucrt:common_utf8.obj
 0001:001384fc       ?__mbrtoc32_utf8@__crt_mbstring@@YA_KPEA_UPEBD_KPEAU_Mbstatet@@AEAV__crt_cached_ptd_host@@@Z 00000001801394fc f   libucrt:mbrtoc32.obj
 0001:001386d8       __dcrt_lowio_ensure_console_output_initialized 00000001801396d8 f   libucrt:initcon.obj
 0001:0013872c       __dcrt_terminate_console_output 000000018013972c f   libucrt:initcon.obj
 0001:00138748       __dcrt_write_console       0000000180139748 f   libucrt:initcon.obj
 0001:00138880       _close_internal            0000000180139880 f   libucrt:close.obj
 0001:00138944       _close_nolock_internal     0000000180139944 f   libucrt:close.obj
 0001:00138a14       ?__acrt_stdio_free_stream@@YAXV__crt_stdio_stream@@@Z 0000000180139a14 f   libucrt:stream.obj
 0001:00138a30       _clearfp                   0000000180139a30 f   libucrt:ieee.obj
 0001:00138a9c       _control87                 0000000180139a9c f   libucrt:ieee.obj
 0001:00138d40       _log10_special             0000000180139d40 f   libucrt:log_special.obj
 0001:00138e00       _FindPESection             0000000180139e00 f   LIBCMT:pesect.obj
 0001:00138e50       _IsNonwritableInCurrentImage 0000000180139e50 f   LIBCMT:pesect.obj
 0001:00138ea0       _ValidateImageBase         0000000180139ea0 f   LIBCMT:pesect.obj
 0001:00138ed0       __GSHandlerCheck           0000000180139ed0 f   LIBCMT:gshandler.obj
 0001:00138ef0       __GSHandlerCheckCommon     0000000180139ef0 f   LIBCMT:gshandler.obj
 0001:00138f60       __security_check_cookie    0000000180139f60 f   LIBCMT:amdsecgs.obj
 0001:00138f80       __GSHandlerCheck_SEH       0000000180139f80 f   LIBCMT:gshandlerseh.obj
 0001:00139008       __raise_securityfailure    000000018013a008 f   LIBCMT:gs_report.obj
 0001:0013903c       __report_gsfailure         000000018013a03c f   LIBCMT:gs_report.obj
 0001:00139110       __report_rangecheckfailure 000000018013a110 f   LIBCMT:gs_report.obj
 0001:00139124       __report_securityfailure   000000018013a124 f   LIBCMT:gs_report.obj
 0001:001392a4       __GSHandlerCheck_EH        000000018013a2a4 f   LIBCMT:gshandlereh.obj
 0001:00139324       __C_specific_handler_noexcept 000000018013a324 f   libvcruntime:chandler_noexcept.obj
 0001:00139370       strrchr                    000000018013a370 f   libvcruntime:strrchr.obj
 0001:001394b0       memcmp                     000000018013a4b0 f   libvcruntime:memcmp.obj
 0001:00139590       _guard_dispatch_icall_nop  000000018013a590 f   LIBCMT:guard_dispatch.obj
 0001:001395b0       _guard_xfg_dispatch_icall_nop 000000018013a5b0 f   LIBCMT:guard_xfg_dispatch.obj
 0002:00000000       __imp_FreeLibrary          000000018013b000     kernel32:KERNEL32.dll
 0002:00000008       __imp_GetProcAddress       000000018013b008     kernel32:KERNEL32.dll
 0002:00000010       __imp_LoadLibraryA         000000018013b010     kernel32:KERNEL32.dll
 0002:00000018       __imp_WriteConsoleW        000000018013b018     kernel32:KERNEL32.dll
 0002:00000020       __imp_RaiseException       000000018013b020     kernel32:KERNEL32.dll
 0002:00000028       __imp_GetLastError         000000018013b028     kernel32:KERNEL32.dll
 0002:00000030       __imp_GetSystemInfo        000000018013b030     kernel32:KERNEL32.dll
 0002:00000038       __imp_VirtualProtect       000000018013b038     kernel32:KERNEL32.dll
 0002:00000040       __imp_VirtualQuery         000000018013b040     kernel32:KERNEL32.dll
 0002:00000048       __imp_GetModuleHandleW     000000018013b048     kernel32:KERNEL32.dll
 0002:00000050       __imp_LoadLibraryExA       000000018013b050     kernel32:KERNEL32.dll
 0002:00000058       __imp_InitializeSListHead  000000018013b058     kernel32:KERNEL32.dll
 0002:00000060       __imp_QueryPerformanceCounter 000000018013b060     kernel32:KERNEL32.dll
 0002:00000068       __imp_GetCurrentProcessId  000000018013b068     kernel32:KERNEL32.dll
 0002:00000070       __imp_GetCurrentThreadId   000000018013b070     kernel32:KERNEL32.dll
 0002:00000078       __imp_GetSystemTimeAsFileTime 000000018013b078     kernel32:KERNEL32.dll
 0002:00000080       __imp_RtlCaptureContext    000000018013b080     kernel32:KERNEL32.dll
 0002:00000088       __imp_RtlLookupFunctionEntry 000000018013b088     kernel32:KERNEL32.dll
 0002:00000090       __imp_RtlVirtualUnwind     000000018013b090     kernel32:KERNEL32.dll
 0002:00000098       __imp_IsDebuggerPresent    000000018013b098     kernel32:KERNEL32.dll
 0002:000000a0       __imp_UnhandledExceptionFilter 000000018013b0a0     kernel32:KERNEL32.dll
 0002:000000a8       __imp_SetUnhandledExceptionFilter 000000018013b0a8     kernel32:KERNEL32.dll
 0002:000000b0       __imp_GetStartupInfoW      000000018013b0b0     kernel32:KERNEL32.dll
 0002:000000b8       __imp_IsProcessorFeaturePresent 000000018013b0b8     kernel32:KERNEL32.dll
 0002:000000c0       __imp_InterlockedPushEntrySList 000000018013b0c0     kernel32:KERNEL32.dll
 0002:000000c8       __imp_InterlockedFlushSList 000000018013b0c8     kernel32:KERNEL32.dll
 0002:000000d0       __imp_RtlUnwindEx          000000018013b0d0     kernel32:KERNEL32.dll
 0002:000000d8       __imp_SetLastError         000000018013b0d8     kernel32:KERNEL32.dll
 0002:000000e0       __imp_EnterCriticalSection 000000018013b0e0     kernel32:KERNEL32.dll
 0002:000000e8       __imp_LeaveCriticalSection 000000018013b0e8     kernel32:KERNEL32.dll
 0002:000000f0       __imp_DeleteCriticalSection 000000018013b0f0     kernel32:KERNEL32.dll
 0002:000000f8       __imp_InitializeCriticalSectionAndSpinCount 000000018013b0f8     kernel32:KERNEL32.dll
 0002:00000100       __imp_TlsAlloc             000000018013b100     kernel32:KERNEL32.dll
 0002:00000108       __imp_TlsGetValue          000000018013b108     kernel32:KERNEL32.dll
 0002:00000110       __imp_TlsSetValue          000000018013b110     kernel32:KERNEL32.dll
 0002:00000118       __imp_TlsFree              000000018013b118     kernel32:KERNEL32.dll
 0002:00000120       __imp_LoadLibraryExW       000000018013b120     kernel32:KERNEL32.dll
 0002:00000128       __imp_EncodePointer        000000018013b128     kernel32:KERNEL32.dll
 0002:00000130       __imp_RtlPcToFileHeader    000000018013b130     kernel32:KERNEL32.dll
 0002:00000138       __imp_GetCurrentProcess    000000018013b138     kernel32:KERNEL32.dll
 0002:00000140       __imp_ExitProcess          000000018013b140     kernel32:KERNEL32.dll
 0002:00000148       __imp_TerminateProcess     000000018013b148     kernel32:KERNEL32.dll
 0002:00000150       __imp_GetModuleHandleExW   000000018013b150     kernel32:KERNEL32.dll
 0002:00000158       __imp_GetModuleFileNameW   000000018013b158     kernel32:KERNEL32.dll
 0002:00000160       __imp_HeapFree             000000018013b160     kernel32:KERNEL32.dll
 0002:00000168       __imp_HeapAlloc            000000018013b168     kernel32:KERNEL32.dll
 0002:00000170       __imp_FindClose            000000018013b170     kernel32:KERNEL32.dll
 0002:00000178       __imp_FindFirstFileExW     000000018013b178     kernel32:KERNEL32.dll
 0002:00000180       __imp_FindNextFileW        000000018013b180     kernel32:KERNEL32.dll
 0002:00000188       __imp_IsValidCodePage      000000018013b188     kernel32:KERNEL32.dll
 0002:00000190       __imp_GetACP               000000018013b190     kernel32:KERNEL32.dll
 0002:00000198       __imp_GetOEMCP             000000018013b198     kernel32:KERNEL32.dll
 0002:000001a0       __imp_GetCPInfo            000000018013b1a0     kernel32:KERNEL32.dll
 0002:000001a8       __imp_GetCommandLineA      000000018013b1a8     kernel32:KERNEL32.dll
 0002:000001b0       __imp_GetCommandLineW      000000018013b1b0     kernel32:KERNEL32.dll
 0002:000001b8       __imp_MultiByteToWideChar  000000018013b1b8     kernel32:KERNEL32.dll
 0002:000001c0       __imp_WideCharToMultiByte  000000018013b1c0     kernel32:KERNEL32.dll
 0002:000001c8       __imp_GetEnvironmentStringsW 000000018013b1c8     kernel32:KERNEL32.dll
 0002:000001d0       __imp_FreeEnvironmentStringsW 000000018013b1d0     kernel32:KERNEL32.dll
 0002:000001d8       __imp_FlsAlloc             000000018013b1d8     kernel32:KERNEL32.dll
 0002:000001e0       __imp_FlsGetValue          000000018013b1e0     kernel32:KERNEL32.dll
 0002:000001e8       __imp_FlsSetValue          000000018013b1e8     kernel32:KERNEL32.dll
 0002:000001f0       __imp_FlsFree              000000018013b1f0     kernel32:KERNEL32.dll
 0002:000001f8       __imp_LCMapStringW         000000018013b1f8     kernel32:KERNEL32.dll
 0002:00000200       __imp_GetProcessHeap       000000018013b200     kernel32:KERNEL32.dll
 0002:00000208       __imp_GetStdHandle         000000018013b208     kernel32:KERNEL32.dll
 0002:00000210       __imp_GetFileType          000000018013b210     kernel32:KERNEL32.dll
 0002:00000218       __imp_GetStringTypeW       000000018013b218     kernel32:KERNEL32.dll
 0002:00000220       __imp_HeapSize             000000018013b220     kernel32:KERNEL32.dll
 0002:00000228       __imp_HeapReAlloc          000000018013b228     kernel32:KERNEL32.dll
 0002:00000230       __imp_SetStdHandle         000000018013b230     kernel32:KERNEL32.dll
 0002:00000238       __imp_FlushFileBuffers     000000018013b238     kernel32:KERNEL32.dll
 0002:00000240       __imp_WriteFile            000000018013b240     kernel32:KERNEL32.dll
 0002:00000248       __imp_GetConsoleOutputCP   000000018013b248     kernel32:KERNEL32.dll
 0002:00000250       __imp_GetConsoleMode       000000018013b250     kernel32:KERNEL32.dll
 0002:00000258       __imp_SetFilePointerEx     000000018013b258     kernel32:KERNEL32.dll
 0002:00000260       __imp_CreateFileW          000000018013b260     kernel32:KERNEL32.dll
 0002:00000268       __imp_CloseHandle          000000018013b268     kernel32:KERNEL32.dll
 0002:00000270       \177KERNEL32_NULL_THUNK_DATA 000000018013b270     kernel32:KERNEL32.dll
 0002:00000278       __guard_check_icall_fptr   000000018013b278     LIBCMT:guard_support.obj
 0002:00000280       __guard_xfg_check_icall_fptr 000000018013b280     LIBCMT:guard_support.obj
 0002:00000288       __guard_dispatch_icall_fptr 000000018013b288     LIBCMT:guard_support.obj
 0002:00000290       __guard_xfg_dispatch_icall_fptr 000000018013b290     LIBCMT:guard_support.obj
 0002:00000298       __guard_xfg_table_dispatch_icall_fptr 000000018013b298     LIBCMT:guard_support.obj
 0002:000002a0       __xc_a                     000000018013b2a0     LIBCMT:initializers.obj
 0002:000016d0       __xc_z                     000000018013c6d0     LIBCMT:initializers.obj
 0002:000016d8       __xi_a                     000000018013c6d8     LIBCMT:initializers.obj
 0002:000016e0       __acrt_tran_fma3_initializer 000000018013c6e0     libucrt:fma3_initializer.obj
 0002:000016e8       __acrt_multibyte_initializer 000000018013c6e8     libucrt:multibyte_initializer.obj
 0002:000016f0       __acrt_stdio_initializer   000000018013c6f0     libucrt:stdio_initializer.obj
 0002:000016f8       __xi_z                     000000018013c6f8     LIBCMT:initializers.obj
 0002:00001700       __xp_a                     000000018013c700     LIBCMT:initializers.obj
 0002:00001708       __acrt_locale_terminator   000000018013c708     libucrt:locale_initializer.obj
 0002:00001710       __dcrt_console_output_terminator 000000018013c710     libucrt:console_output_initializer.obj
 0002:00001718       __acrt_stdio_terminator    000000018013c718     libucrt:stdio_initializer.obj
 0002:00001720       __xp_z                     000000018013c720     LIBCMT:initializers.obj
 0002:00001728       __xt_a                     000000018013c728     LIBCMT:initializers.obj
 0002:00001730       __xt_z                     000000018013c730     LIBCMT:initializers.obj
 0002:00001740       ??_7PxCollection@physx@@6B@ 000000018013c740     CmCollection.obj
 0002:000017c0       ??_C@_0BA@DLCJDKDM@NonTrackedAlloc@ 000000018013c7c0     CmCollection.obj
 0002:000017d0       ??_7Collection@Cm@physx@@6B@ 000000018013c7d0     CmCollection.obj
 0002:00001850       ??_C@_0GE@GBACBMOC@PxCollection?3?3add?5called?5for?5an@ 000000018013c850     CmCollection.obj
 0002:000018b8       ??_C@_0DK@CFLDLHKE@C?3?2dev?2PhysX?94?41?2physx?2source?2c@ 000000018013c8b8     CmCollection.obj
 0002:00001900       ??_C@_0EM@OMMGDOMK@PxCollection?3?3add?5called?5with?5a@ 000000018013c900     CmCollection.obj
 0002:00001950       ??_C@_0EL@CBFFIHFG@PxCollection?3?3remove?5called?5for@ 000000018013c950     CmCollection.obj
 0002:000019a0       ??_C@_0EP@DBNENNLL@PxCollection?3?3addId?5called?5for?5@ 000000018013c9a0     CmCollection.obj
 0002:000019f0       ??_C@_0FL@DACPFKDD@PxCollection?3?3addId?5called?5with@ 000000018013c9f0     CmCollection.obj
 0002:00001a50       ??_C@_0EP@GMPAMDKI@PxCollection?3?3addId?5called?5with@ 000000018013ca50     CmCollection.obj
 0002:00001aa0       ??_C@_0FO@DIHIGAFD@PxCollection?3?3removeId?5called?5w@ 000000018013caa0     CmCollection.obj
 0002:00001b00       ??_C@_0FF@MENHIPMD@PxCollection?3?3removeId?5called?5w@ 000000018013cb00     CmCollection.obj
 0002:00001b60       ??_C@_0FK@BAFICJEM@PxCollection?3?3find?5called?5with?5@ 000000018013cb60     CmCollection.obj
 0002:00001bc0       ??_C@_0DF@CLGAFPLL@PxCollection?3?3add?$CIPxCollection?$CG@ 000000018013cbc0     CmCollection.obj
 0002:00001bf8       ??_C@_0DN@DMJACFO@PxCollection?3?3add?$CIPxCollection?$CG@ 000000018013cbf8     CmCollection.obj
 0002:00001c38       ??_C@_0DI@DICAIAPC@PxCollection?3?3remove?$CIPxCollecti@ 000000018013cc38     CmCollection.obj
 0002:00001c70       ??_C@_0DG@LOILDLGN@PxCollection?3?3getObjects?5called@ 000000018013cc70     CmCollection.obj
 0002:00001ca8       ??_C@_0DD@GMICJLDJ@PxCollection?3?3getObjects?5called@ 000000018013cca8     CmCollection.obj
 0002:00001ce0       ??_C@_0DC@GILGGBAI@PxCollection?3?3getIds?5called?5wit@ 000000018013cce0     CmCollection.obj
 0002:00001d18       ??_C@_0CP@LFEKADKN@PxCollection?3?3getIds?5called?5wit@ 000000018013cd18     CmCollection.obj
 0002:00001d50       ??_C@_0ED@FDDBFAEF@C?3?2dev?2PhysX?94?41?2physx?2source?2f@ 000000018013cd50     CmCollection.obj
 0002:00001d98       ??_C@_0BM@OIFKLHDN@?$DMallocation?5names?5disabled?$DO@ 000000018013cd98     CmCollection.obj
 0002:00001db8       ??_C@_08MDGMHCHN@PtrTable@ 000000018013cdb8     CmPtrTable.obj
 0002:00001dc4       ??_C@_04GKJNKENE@void@     000000018013cdc4     CmPtrTable.obj
 0002:00001dd0       ??_C@_07DFEBJDHE@mSingle@  000000018013cdd0     CmPtrTable.obj
 0002:00001dd8       ??_C@_05NLHHBMOH@PxU16@    000000018013cdd8     CmPtrTable.obj
 0002:00001de0       ??_C@_06EPKHJPIM@mCount@   000000018013cde0     CmPtrTable.obj
 0002:00001de8       ??_C@_04DDKJGDCM@bool@     000000018013cde8     CmPtrTable.obj
 0002:00001df0       ??_C@_0M@DAGELID@mOwnsMemory@ 000000018013cdf0     CmPtrTable.obj
 0002:00001e00       ??_C@_0M@MMPOMMLP@mBufferUsed@ 000000018013ce00     CmPtrTable.obj
 0002:00001e10       ??_7RadixSort@Cm@physx@@6B@ 000000018013ce10     CmRadixSort.obj
 0002:00001e20       __xmm@00000001000000010000000100000001 000000018013ce20     CmRadixSort.obj
 0002:00001e30       __xmm@00000003000000020000000100000000 000000018013ce30     CmRadixSort.obj
 0002:00001e40       ??_7RadixSortBuffered@Cm@physx@@6B@ 000000018013ce40     CmRadixSortBuffered.obj
 0002:00001e48       ??_C@_0BJ@LFNCOACD@RadixSortBuffered?3mRanks@ 000000018013ce48     CmRadixSortBuffered.obj
 0002:00001e70       ??_C@_0EB@FEKFDE@C?3?2dev?2PhysX?94?41?2physx?2source?2c@ 000000018013ce70     CmRadixSortBuffered.obj
 0002:00001eb8       ??_C@_0BK@EPKCPHOD@RadixSortBuffered?3mRanks2@ 000000018013ceb8     CmRadixSortBuffered.obj
 0002:00001ed4       ?sBufferSize@DebugText@Cm@physx@@2HB 000000018013ced4     CmRenderOutput.obj
 0002:00001ed8       ??_C@_0DL@KPEPOCJI@C?3?2dev?2PhysX?94?41?2physx?2source?2f@ 000000018013ced8     CmRenderOutput.obj
 0002:00001f14       __real@3e19999a            000000018013cf14     CmRenderOutput.obj
 0002:00001f18       __real@3e800000            000000018013cf18     CmRenderOutput.obj
 0002:00001f1c       __real@3f3504f3            000000018013cf1c     CmRenderOutput.obj
 0002:00001f20       __real@3f800000            000000018013cf20     CmRenderOutput.obj
 0002:00001f24       __real@3fddb3d7            000000018013cf24     CmRenderOutput.obj
 0002:00001f28       __real@40c90fdb            000000018013cf28     CmRenderOutput.obj
 0002:00001f30       __xmm@7fffffff7fffffff7fffffff7fffffff 000000018013cf30     CmRenderOutput.obj
 0002:00001f40       __xmm@80000000800000008000000080000000 000000018013cf40     CmRenderOutput.obj
 0002:00001f50       __real@3d4ccccd            000000018013cf50     CmVisualization.obj
 0002:00001f54       __real@3e490fdb            000000018013cf54     CmVisualization.obj
 0002:00001f58       __real@3e99999a            000000018013cf58     CmVisualization.obj
 0002:00001f5c       __real@3f000000            000000018013cf5c     CmVisualization.obj
 0002:00001f60       __real@3fc00000            000000018013cf60     CmVisualization.obj
 0002:00001f64       __real@c0000000            000000018013cf64     CmVisualization.obj
 0002:00001f70       __xmm@3f800000000000000000000000000000 000000018013cf70     CmVisualization.obj
 0002:00001f80       ??_C@_0BB@CPDDPFKD@GetUpdatedModule@ 000000018013cf80     CmWindowsModuleUpdateLoader.obj
 0002:00001f98       ??_C@_0BA@EGLNOO@PhysXFoundation@ 000000018013cf98     CmWindowsDelayLoadHook.obj
 0002:00001fa8       ??_C@_0M@ILKNCJKN@PhysXCommon@ 000000018013cfa8     CmWindowsDelayLoadHook.obj
 0002:00001fe0       ??_C@_06EJKDJEDO@PxBase@   000000018013cfe0     GuBounds.obj
 0002:00001fe8       ??_C@_0N@CDGINLLF@PxConvexMesh@ 000000018013cfe8     GuBounds.obj
 0002:00001ff8       ??_C@_0O@PBAKPCEC@PxHeightField@ 000000018013cff8     GuBounds.obj
 0002:00002008       ??_7PxBase@physx@@6B@      000000018013d008     GuBounds.obj
 0002:00002030       ??_C@_0DG@DFOCGHP@Gu?3?3GeometryUnion?3?3computeBound@ 000000018013d030     GuBounds.obj
 0002:00002068       ??_C@_0DJ@KJDMAION@C?3?2dev?2PhysX?94?41?2physx?2source?2g@ 000000018013d068     GuBounds.obj
 0002:000020a4       __real@358637bd            000000018013d0a4     GuBounds.obj
 0002:000020a8       __real@3f400000            000000018013d0a8     GuBounds.obj
 0002:000020ac       __real@3f7fffef            000000018013d0ac     GuBounds.obj
 0002:000020b0       __real@3f8147ae            000000018013d0b0     GuBounds.obj
 0002:000020b4       __real@7e7fffff            000000018013d0b4     GuBounds.obj
 0002:000020b8       __real@7f7fffff            000000018013d0b8     GuBounds.obj
 0002:000020bc       __real@fe7fffff            000000018013d0bc     GuBounds.obj
 0002:000020c0       __xmm@000000003a83126f3a83126f3a83126f 000000018013d0c0     GuBounds.obj
 0002:000020d0       __xmm@00000000ba83126fba83126fba83126f 000000018013d0d0     GuBounds.obj
 0002:000020e0       __xmm@3a83126f3a83126f3a83126f3a83126f 000000018013d0e0     GuBounds.obj
 0002:000020f0       __xmm@3f0000003f0000003f0000003f000000 000000018013d0f0     GuBounds.obj
 0002:00002100       __xmm@3f8147ae3f8147ae3f8147ae3f8147ae 000000018013d100     GuBounds.obj
 0002:00002110       __xmm@ba83126fba83126fba83126fba83126f 000000018013d110     GuBounds.obj
 0002:00002140       __real@3f7ff972            000000018013d140     GuBox.obj
 0002:00002170       ??_7?$EntityReport@I@Gu@physx@@6B@ 000000018013d170     GuCCTSweepTests.obj
 0002:00002190       __real@3b03126f            000000018013d190     GuCCTSweepTests.obj
 0002:00002194       __real@40000000            000000018013d194     GuCCTSweepTests.obj
 0002:000021c0       ??_C@_0CD@CGJJEFHC@Gu?3?3overlap?$CI?$CJ?3?5pose0?5is?5not?5val@ 000000018013d1c0     GuGeometryQuery.obj
 0002:000021e8       ??_C@_0DN@IKFNGPIG@C?3?2dev?2PhysX?94?41?2physx?2source?2g@ 000000018013d1e8     GuGeometryQuery.obj
 0002:00002228       ??_C@_0CD@IIPBNEOD@Gu?3?3overlap?$CI?$CJ?3?5pose1?5is?5not?5val@ 000000018013d228     GuGeometryQuery.obj
 0002:00002250       ??_C@_0CO@DGHGHPPJ@PxGeometryQuery?3?3sweep?$CI?$CJ?3?5pose0@ 000000018013d250     GuGeometryQuery.obj
 0002:00002280       ??_C@_0EA@JDIILMHA@C?3?2dev?2PhysX?94?41?2physx?2source?2g@ 000000018013d280     GuGeometryQuery.obj
 0002:000022c0       ??_C@_0CO@JIBOOOGI@PxGeometryQuery?3?3sweep?$CI?$CJ?3?5pose1@ 000000018013d2c0     GuGeometryQuery.obj
 0002:000022f0       ??_C@_0DA@JEEBDBEM@PxGeometryQuery?3?3sweep?$CI?$CJ?3?5unitD@ 000000018013d2f0     GuGeometryQuery.obj
 0002:00002320       ??_C@_0DB@KCEKJBPE@PxGeometryQuery?3?3sweep?$CI?$CJ?3?5dista@ 000000018013d320     GuGeometryQuery.obj
 0002:00002360       ??_C@_0FM@HAJNNJNC@PxGeometryQuery?3?3sweep?$CI?$CJ?3?5sweep@ 000000018013d360     GuGeometryQuery.obj
 0002:000023c0       ??_C@_0CB@JDDBKCNL@Provided?5geometry?50?5is?5not?5vali@ 000000018013d3c0     GuGeometryQuery.obj
 0002:000023e8       ??_C@_0CB@CKMKHJDD@Provided?5geometry?51?5is?5not?5vali@ 000000018013d3e8     GuGeometryQuery.obj
 0002:00002410       ??_C@_0GL@GJKJELMB@PxGeometryQuery?3?3sweep?$CI?$CJ?3?5first@ 000000018013d410     GuGeometryQuery.obj
 0002:00002480       ??_C@_0DB@OMDGMOND@PxGeometryQuery?3?3raycast?$CI?$CJ?3?5ray@ 000000018013d480     GuGeometryQuery.obj
 0002:000024b8       ??_C@_0DE@MGFNMBNA@PxGeometryQuery?3?3raycast?$CI?$CJ?3?5ray@ 000000018013d4b8     GuGeometryQuery.obj
 0002:000024f0       ??_C@_0CP@NHLDPNEB@PxGeometryQuery?3?3raycast?$CI?$CJ?3?5pos@ 000000018013d4f0     GuGeometryQuery.obj
 0002:00002520       ??_C@_0DB@HPNPNEMP@PxGeometryQuery?3?3raycast?$CI?$CJ?3?5max@ 000000018013d520     GuGeometryQuery.obj
 0002:00002558       ??_C@_0DC@BLMIOBO@PxGeometryQuery?3?3raycast?$CI?$CJ?3?5max@ 000000018013d558     GuGeometryQuery.obj
 0002:00002590       ??_C@_0DP@IPJGHFJE@PxGeometryQuery?3?3raycast?$CI?$CJ?3?5ray@ 000000018013d590     GuGeometryQuery.obj
 0002:000025d0       ??_C@_0DF@BMEFDPAL@PxGeometryQuery?3?3pointDistance?$CI@ 000000018013d5d0     GuGeometryQuery.obj
 0002:00002610       ??_C@_0GM@KKKGKIEH@PxGeometryQuery?3?3pointDistance?$CI@ 000000018013d610     GuGeometryQuery.obj
 0002:00002680       ??_C@_0DG@IHHENNM@PxGeometryQuery?3?3getWorldBounds@ 000000018013d680     GuGeometryQuery.obj
 0002:000026b8       ??_C@_0DL@LECAKFBF@PxGeometryQuery?3?3computePenetra@ 000000018013d6b8     GuGeometryQuery.obj
 0002:000026f8       ??_C@_0DL@BKEIDEIE@PxGeometryQuery?3?3computePenetra@ 000000018013d6f8     GuGeometryQuery.obj
 0002:00002734       __real@38d1b717            000000018013d734     GuGeometryQuery.obj
 0002:00002738       __real@49742400            000000018013d738     GuGeometryQuery.obj
 0002:0000273c       __real@bf800000            000000018013d73c     GuGeometryQuery.obj
 0002:00002760       ??_C@_0CA@KJFNONEO@MaterialIndicesStruct?3?3allocate@ 000000018013d760     GuGeometryUnion.obj
 0002:00002780       ??_C@_0DO@INOFNCPD@C?3?2dev?2PhysX?94?41?2physx?2source?2g@ 000000018013d780     GuGeometryUnion.obj
 0002:00002800       ??_7GuMeshFactory@physx@@6B@ 000000018013d800     GuMeshFactory.obj
 0002:00002808       ??_7MeshDataBase@Gu@physx@@6B@ 000000018013d808     GuMeshFactory.obj
 0002:00002810       ??_C@_06KDGGGLIJ@PxVec3@   000000018013d810     GuMeshFactory.obj
 0002:00002818       ??_C@_0DO@ILKAJNFJ@C?3?2dev?2PhysX?94?41?2physx?2source?2g@ 000000018013d818     GuMeshFactory.obj
 0002:00002858       ??_7TriangleMeshData@Gu@physx@@6B@ 000000018013d858     GuMeshFactory.obj
 0002:00002860       ??_C@_0L@KBOFAKLO@mTriangles@ 000000018013d860     GuMeshFactory.obj
 0002:00002870       ??_C@_0BA@OCOIGPII@mGRB_triIndices@ 000000018013d870     GuMeshFactory.obj
 0002:00002880       ??_7RTreeTriangleData@Gu@physx@@6B@ 000000018013d880     GuMeshFactory.obj
 0002:00002888       ??_7BV4TriangleData@Gu@physx@@6B@ 000000018013d888     GuMeshFactory.obj
 0002:00002890       ??_C@_0BB@PAEMNLHP@FactoryListeners@ 000000018013d890     GuMeshFactory.obj
 0002:000028a8       ??_C@_0DO@GFHGJDNO@C?3?2dev?2PhysX?94?41?2physx?2source?2g@ 000000018013d8a8     GuMeshFactory.obj
 0002:000028f0       ??_C@_0GP@NHELMDAL@Loading?5triangle?5mesh?5failed?3?5D@ 000000018013d8f0     GuMeshFactory.obj
 0002:00002960       ??_C@_0BP@CDOKDACA@RTree?5binary?5image?5load?5error?4@ 000000018013d960     GuMeshFactory.obj
 0002:00002980       ??_C@_0BN@MJPNIELF@BV4?5binary?5image?5load?5error?4@ 000000018013d980     GuMeshFactory.obj
 0002:000029a0       ??_C@_0BO@JDPABAOF@BV32?5binary?5image?5load?5error?4@ 000000018013d9a0     GuMeshFactory.obj
 0002:000029c0       ??_C@_0DL@KGCCOLOB@C?3?2dev?2PhysX?94?41?2physx?2source?2f@ 000000018013d9c0     GuMeshFactory.obj
 0002:00002a00       __xmm@cdcdcdcdcdcdcdcdcdcdcdcdcdcdcdcd 000000018013da00     GuMeshFactory.obj
 0002:00002a30       ??_C@_0P@GGNFNHKF@PxTriangleMesh@ 000000018013da30     GuMetaData.obj
 0002:00002a40       ??_C@_07GFCEJNGM@Valency@  000000018013da40     GuMetaData.obj
 0002:00002a48       ??_C@_07NHGKEEIN@mOffset@  000000018013da48     GuMetaData.obj
 0002:00002a50       ??_C@_0BB@BAGHBMNJ@BigConvexRawData@ 000000018013da50     GuMetaData.obj
 0002:00002a68       ??_C@_07PBDEJAAC@mSubdiv@  000000018013da68     GuMetaData.obj
 0002:00002a70       ??_C@_0L@HNPACPGH@mNbSamples@ 000000018013da70     GuMetaData.obj
 0002:00002a7c       ??_C@_04NCKNBPPK@PxU8@     000000018013da7c     GuMetaData.obj
 0002:00002a88       ??_C@_08DEPEKJNI@mSamples@ 000000018013da88     GuMetaData.obj
 0002:00002a94       ??_C@_05LMJPANIN@PxU32@    000000018013da94     GuMetaData.obj
 0002:00002aa0       ??_C@_08IJDNJBMI@mNbVerts@ 000000018013daa0     GuMetaData.obj
 0002:00002ab0       ??_C@_0M@MMKMIJAF@mNbAdjVerts@ 000000018013dab0     GuMetaData.obj
 0002:00002ac0       ??_C@_0L@EOKMNILC@mValencies@ 000000018013dac0     GuMetaData.obj
 0002:00002ad0       ??_C@_0P@DLGEAMHJ@mAdjacentVerts@ 000000018013dad0     GuMetaData.obj
 0002:00002ae0       ??_C@_0O@PFOPBKAM@BigConvexData@ 000000018013dae0     GuMetaData.obj
 0002:00002af0       ??_C@_05PLKALGFN@mData@    000000018013daf0     GuMetaData.obj
 0002:00002af8       ??_C@_08PEMCLHEM@mVBuffer@ 000000018013daf8     GuMetaData.obj
 0002:00002b08       ??_C@_09FBMAGD@Alignment@  000000018013db08     GuMetaData.obj
 0002:00002b18       ??_C@_0BE@KFHIBEEA@InternalObjectsData@ 000000018013db18     GuMetaData.obj
 0002:00002b2c       ??_C@_06GIEBFILM@PxReal@   000000018013db2c     GuMetaData.obj
 0002:00002b38       ??_C@_07NKGFFIBH@mRadius@  000000018013db38     GuMetaData.obj
 0002:00002b40       ??_C@_08EHFCACAE@mExtents@ 000000018013db40     GuMetaData.obj
 0002:00002b50       ??_C@_0BA@LFMGGCBK@HullPolygonData@ 000000018013db50     GuMetaData.obj
 0002:00002b60       ??_C@_06BOHHGLB@mPlane@    000000018013db60     GuMetaData.obj
 0002:00002b68       ??_C@_06EHMLHGLN@mVRef8@   000000018013db68     GuMetaData.obj
 0002:00002b70       ??_C@_09BAHHHINI@mMinIndex@ 000000018013db70     GuMetaData.obj
 0002:00002b80       ??_C@_0P@GBLBPIPB@ConvexHullData@ 000000018013db80     GuMetaData.obj
 0002:00002b90       ??_C@_09JDCJAPKD@PxBounds3@ 000000018013db90     GuMetaData.obj
 0002:00002b9c       ??_C@_05NDNHIFA@mAABB@     000000018013db9c     GuMetaData.obj
 0002:00002ba8       ??_C@_0O@LNOGEMJI@mCenterOfMass@ 000000018013dba8     GuMetaData.obj
 0002:00002bb8       ??_C@_09CNMCBBKH@mPolygons@ 000000018013dbb8     GuMetaData.obj
 0002:00002bc8       ??_C@_0BC@KKPDCFJC@mBigConvexRawData@ 000000018013dbc8     GuMetaData.obj
 0002:00002be0       ??_C@_08ELDMKGKH@mNbEdges@ 000000018013dbe0     GuMetaData.obj
 0002:00002bf0       ??_C@_0BA@CGLOHBAC@mNbHullVertices@ 000000018013dbf0     GuMetaData.obj
 0002:00002c00       ??_C@_0M@HGFFLLDM@mNbPolygons@ 000000018013dc00     GuMetaData.obj
 0002:00002c10       ??_C@_09BHJEMDGO@mInternal@ 000000018013dc10     GuMetaData.obj
 0002:00002c20       ??_C@_0L@GMFHOMKA@ConvexMesh@ 000000018013dc20     GuMetaData.obj
 0002:00002c30       ??_C@_0N@KECKKFLK@RefCountable@ 000000018013dc30     GuMetaData.obj
 0002:00002c40       ??_C@_09ILEBDLJH@mHullData@ 000000018013dc40     GuMetaData.obj
 0002:00002c4c       ??_C@_03DKDIKGNC@mNb@      000000018013dc4c     GuMetaData.obj
 0002:00002c50       ??_C@_0P@ENLHFHMD@mBigConvexData@ 000000018013dc50     GuMetaData.obj
 0002:00002c60       ??_C@_05ILALLCHK@mMass@    000000018013dc60     GuMetaData.obj
 0002:00002c68       ??_C@_07DBPDADGB@PxMat33@  000000018013dc68     GuMetaData.obj
 0002:00002c70       ??_C@_08FNBHNDBI@mInertia@ 000000018013dc70     GuMetaData.obj
 0002:00002c80       ??_C@_0O@FCKNKLMJ@GuMeshFactory@ 000000018013dc80     GuMetaData.obj
 0002:00002c90       ??_C@_0N@EGBCLMAK@mMeshFactory@ 000000018013dc90     GuMetaData.obj
 0002:00002ca0       ??_C@_0BE@CJJAMAMK@PxHeightFieldSample@ 000000018013dca0     GuMetaData.obj
 0002:00002cb4       ??_C@_05MBLIPEMA@PxI16@    000000018013dcb4     GuMetaData.obj
 0002:00002cbc       ??_C@_06LNLHEAAG@height@   000000018013dcbc     GuMetaData.obj
 0002:00002cc8       ??_C@_0N@HHDGHJN@PxBitAndByte@ 000000018013dcc8     GuMetaData.obj
 0002:00002cd8       ??_C@_0P@MBBMLBO@materialIndex0@ 000000018013dcd8     GuMetaData.obj
 0002:00002ce8       ??_C@_0P@BFAKPKFP@materialIndex1@ 000000018013dce8     GuMetaData.obj
 0002:00002cf8       ??_C@_0BD@EBLPJEOE@PxHeightFieldFlags@ 000000018013dcf8     GuMetaData.obj
 0002:00002d10       ??_C@_0BK@FNNCFFCN@PxHeightFieldFormat?3?3Enum@ 000000018013dd10     GuMetaData.obj
 0002:00002d30       ??_C@_0BA@CLNFMAAA@HeightFieldData@ 000000018013dd30     GuMetaData.obj
 0002:00002d40       ??_C@_04IMCGAIPI@rows@     000000018013dd40     GuMetaData.obj
 0002:00002d48       ??_C@_07HIFEPIJN@columns@  000000018013dd48     GuMetaData.obj
 0002:00002d50       ??_C@_08MOAGOABI@rowLimit@ 000000018013dd50     GuMetaData.obj
 0002:00002d60       ??_C@_08BAGEHOBO@colLimit@ 000000018013dd60     GuMetaData.obj
 0002:00002d70       ??_C@_09LKDBLADF@nbColumns@ 000000018013dd70     GuMetaData.obj
 0002:00002d80       ??_C@_07ODIFGGLK@samples@  000000018013dd80     GuMetaData.obj
 0002:00002d88       ??_C@_0BE@POHEGOJG@convexEdgeThreshold@ 000000018013dd88     GuMetaData.obj
 0002:00002d9c       ??_C@_05GECEPKB@flags@     000000018013dd9c     GuMetaData.obj
 0002:00002da4       ??_C@_06DLEPGFEF@format@   000000018013dda4     GuMetaData.obj
 0002:00002db0       ??_C@_0BF@MOGDNMPL@PxMaterialTableIndex@ 000000018013ddb0     GuMetaData.obj
 0002:00002dc8       ??_C@_0M@JMJICJJO@HeightField@ 000000018013ddc8     GuMetaData.obj
 0002:00002dd8       ??_C@_0O@ENGHMLJP@mSampleStride@ 000000018013ddd8     GuMetaData.obj
 0002:00002de8       ??_C@_0L@EBEEMFFB@mMinHeight@ 000000018013dde8     GuMetaData.obj
 0002:00002df8       ??_C@_0L@EAEIFPOF@mMaxHeight@ 000000018013ddf8     GuMetaData.obj
 0002:00002e08       ??_C@_0N@FEFJOKKE@mModifyCount@ 000000018013de08     GuMetaData.obj
 0002:00002e18       ??_C@_09PHDKHCK@RTreePage@ 000000018013de18     GuMetaData.obj
 0002:00002e24       ??_C@_04LLPOBGED@minx@     000000018013de24     GuMetaData.obj
 0002:00002e2c       ??_C@_04KCOFCHAC@miny@     000000018013de2c     GuMetaData.obj
 0002:00002e34       ??_C@_04IJMIHEMB@minz@     000000018013de34     GuMetaData.obj
 0002:00002e3c       ??_C@_04GGOBOBGO@maxx@     000000018013de3c     GuMetaData.obj
 0002:00002e44       ??_C@_04HPPKNACP@maxy@     000000018013de44     GuMetaData.obj
 0002:00002e4c       ??_C@_04FENHIDOM@maxz@     000000018013de4c     GuMetaData.obj
 0002:00002e54       ??_C@_04HHDFEJON@ptrs@     000000018013de54     GuMetaData.obj
 0002:00002e5c       ??_C@_05FFEIGAJF@RTree@    000000018013de5c     GuMetaData.obj
 0002:00002e64       ??_C@_06OMCHPNEO@PxVec4@   000000018013de64     GuMetaData.obj
 0002:00002e70       ??_C@_0L@NBIFEFLN@mBoundsMin@ 000000018013de70     GuMetaData.obj
 0002:00002e80       ??_C@_0L@MDAOKBNC@mBoundsMax@ 000000018013de80     GuMetaData.obj
 0002:00002e90       ??_C@_0N@NJEHLCOF@mInvDiagonal@ 000000018013de90     GuMetaData.obj
 0002:00002ea0       ??_C@_0BA@BEFIGPFG@mDiagonalScaler@ 000000018013dea0     GuMetaData.obj
 0002:00002eb0       ??_C@_09DICGGKGO@mPageSize@ 000000018013deb0     GuMetaData.obj
 0002:00002ec0       ??_C@_0O@BOFFCNOL@mNumRootPages@ 000000018013dec0     GuMetaData.obj
 0002:00002ed0       ??_C@_0L@JKLGBKAE@mNumLevels@ 000000018013ded0     GuMetaData.obj
 0002:00002ee0       ??_C@_0M@PHDOHJGK@mTotalNodes@ 000000018013dee0     GuMetaData.obj
 0002:00002ef0       ??_C@_0M@GDGHALAO@mTotalPages@ 000000018013def0     GuMetaData.obj
 0002:00002efc       ??_C@_06MHCBBJGP@mFlags@   000000018013defc     GuMetaData.obj
 0002:00002f04       ??_C@_06MMNBLHOK@mPages@   000000018013df04     GuMetaData.obj
 0002:00002f10       ??_C@_0L@LEOGNOEC@SourceMesh@ 000000018013df10     GuMetaData.obj
 0002:00002f1c       ??_C@_06JFCLJMNN@mVerts@   000000018013df1c     GuMetaData.obj
 0002:00002f28       ??_C@_07MPIKOOAP@mNbTris@  000000018013df28     GuMetaData.obj
 0002:00002f30       ??_C@_0N@FBMOMEHF@mTriangles32@ 000000018013df30     GuMetaData.obj
 0002:00002f40       ??_C@_0N@DGCGNFBP@mTriangles16@ 000000018013df40     GuMetaData.obj
 0002:00002f50       ??_C@_06DHAAKLFK@mRemap@   000000018013df50     GuMetaData.obj
 0002:00002f58       ??_C@_0O@NLNHFNO@QuantizedAABB@ 000000018013df58     GuMetaData.obj
 0002:00002f68       ??_C@_0BC@OOGBEMHH@mData?$FL0?$FN?4mExtents@ 000000018013df68     GuMetaData.obj
 0002:00002f80       ??_C@_0BB@OCEDKIEF@mData?$FL0?$FN?4mCenter@ 000000018013df80     GuMetaData.obj
 0002:00002f98       ??_C@_0BC@HFMEAABI@mData?$FL1?$FN?4mExtents@ 000000018013df98     GuMetaData.obj
 0002:00002fb0       ??_C@_0BB@CDMNHHIF@mData?$FL1?$FN?4mCenter@ 000000018013dfb0     GuMetaData.obj
 0002:00002fc8       ??_C@_0BC@CFKNCOI@mData?$FL2?$FN?4mExtents@ 000000018013dfc8     GuMetaData.obj
 0002:00002fe0       ??_C@_0BB@LKCPBBIE@mData?$FL2?$FN?4mCenter@ 000000018013dfe0     GuMetaData.obj
 0002:00002ff8       ??_C@_0O@MJJKKPFN@BVDataPackedQ@ 000000018013dff8     GuMetaData.obj
 0002:00003008       ??_C@_0M@PNCEBOG@LocalBounds@ 000000018013e008     GuMetaData.obj
 0002:00003018       ??_C@_07GNKDIIKJ@mCenter@  000000018013e018     GuMetaData.obj
 0002:00003020       ??_C@_05KNFBNCOH@float@    000000018013e020     GuMetaData.obj
 0002:00003028       ??_C@_0BC@LADJKHPL@mExtentsMagnitude@ 000000018013e028     GuMetaData.obj
 0002:00003040       ??_C@_07HELIOLAF@BV4Tree@  000000018013e040     GuMetaData.obj
 0002:00003048       ??_C@_0P@EMMDNPMH@mMeshInterface@ 000000018013e048     GuMetaData.obj
 0002:00003058       ??_C@_0N@DCKMHLCL@mLocalBounds@ 000000018013e058     GuMetaData.obj
 0002:00003068       ??_C@_08EEJOMIJL@mNbNodes@ 000000018013e068     GuMetaData.obj
 0002:00003078       ??_C@_09FGKNPI@mInitData@  000000018013e078     GuMetaData.obj
 0002:00003088       ??_C@_0BC@CLDEHKCO@mCenterOrMinCoeff@ 000000018013e088     GuMetaData.obj
 0002:000030a0       ??_C@_0BD@LAOLBNJ@mExtentsOrMaxCoeff@ 000000018013e0a0     GuMetaData.obj
 0002:000030b8       ??_C@_0P@JEECKKBL@mUserAllocated@ 000000018013e0b8     GuMetaData.obj
 0002:000030c8       ??_C@_0L@GLIMNECG@mQuantized@ 000000018013e0c8     GuMetaData.obj
 0002:000030d8       ??_C@_08BNDBAGDH@mPadding@ 000000018013e0d8     GuMetaData.obj
 0002:000030e8       ??_C@_0N@OJNNNLIB@TriangleMesh@ 000000018013e0e8     GuMetaData.obj
 0002:000030f8       ??_C@_0M@OGEDMEAL@mNbVertices@ 000000018013e0f8     GuMetaData.obj
 0002:00003108       ??_C@_0N@MGGDNHNI@mNbTriangles@ 000000018013e108     GuMetaData.obj
 0002:00003118       ??_C@_09LNNEGOJA@mVertices@ 000000018013e118     GuMetaData.obj
 0002:00003128       ??_C@_0P@MHDFIHLD@mExtraTrigData@ 000000018013e128     GuMetaData.obj
 0002:00003138       ??_C@_0N@MGIKKCI@mGeomEpsilon@ 000000018013e138     GuMetaData.obj
 0002:00003148       ??_C@_0BB@IFLOOCNA@mMaterialIndices@ 000000018013e148     GuMetaData.obj
 0002:00003160       ??_C@_0L@OPJMBFMI@mFaceRemap@ 000000018013e160     GuMetaData.obj
 0002:00003170       ??_C@_0N@BIOECAPM@mAdjacencies@ 000000018013e170     GuMetaData.obj
 0002:00003180       ??_C@_0BE@JPINNDAH@mGRB_triAdjacencies@ 000000018013e180     GuMetaData.obj
 0002:00003198       ??_C@_0P@EDFJJHEF@mGRB_faceRemap@ 000000018013e198     GuMetaData.obj
 0002:000031a8       ??_C@_0O@CKMBAIFN@mGRB_BV32Tree@ 000000018013e1a8     GuMetaData.obj
 0002:000031b8       ??_C@_0BC@IFGECKF@RTreeTriangleMesh@ 000000018013e1b8     GuMetaData.obj
 0002:000031cc       ??_C@_06JDIHDDGN@mRTree@   000000018013e1cc     GuMetaData.obj
 0002:000031d8       ??_C@_0BA@LNNFPOKA@BV4TriangleMesh@ 000000018013e1d8     GuMetaData.obj
 0002:000031e8       ??_C@_08FKLPEGDB@mBV4Tree@ 000000018013e1e8     GuMetaData.obj
 0002:000031f8       ??_C@_0BG@EAPGHGEI@MaterialIndicesStruct@ 000000018013e1f8     GuMetaData.obj
 0002:00003210       ??_C@_07OKCKIPNN@indices@  000000018013e210     GuMetaData.obj
 0002:00003218       ??_C@_0L@KCBHBGBP@numIndices@ 000000018013e218     GuMetaData.obj
 0002:00003224       ??_C@_03PNAAIPML@pad@      000000018013e224     GuMetaData.obj
 0002:00003228       ??_C@_05MOMFAHOB@pad64@    000000018013e228     GuMetaData.obj
 0002:00003230       ??_C@_0BK@GNJGHDGO@PxConvexMeshGeometryFlags@ 000000018013e230     GuMetaData.obj
 0002:00003250       ??_C@_0BJ@LIOOOKID@ShadowConvexMeshGeometry@ 000000018013e250     GuMetaData.obj
 0002:00003270       ??_C@_0BF@PJFPGDNP@PxGeometryType?3?3Enum@ 000000018013e270     GuMetaData.obj
 0002:00003288       ??_C@_05GNIIDDHH@mType@    000000018013e288     GuMetaData.obj
 0002:00003290       ??_C@_0M@JFNDEGCE@PxMeshScale@ 000000018013e290     GuMetaData.obj
 0002:0000329c       ??_C@_05MHMEBBGO@scale@    000000018013e29c     GuMetaData.obj
 0002:000032a8       ??_C@_0L@OKMLGDHH@convexMesh@ 000000018013e2a8     GuMetaData.obj
 0002:000032b8       ??_C@_09PLMNFMJI@meshFlags@ 000000018013e2b8     GuMetaData.obj
 0002:000032c8       ??_C@_0BB@EINMAHMD@paddingFromFlags@ 000000018013e2c8     GuMetaData.obj
 0002:000032e0       ??_C@_08CICKEKCM@hullData@ 000000018013e2e0     GuMetaData.obj
 0002:000032f0       ??_C@_0O@EOELHBFF@gpuCompatible@ 000000018013e2f0     GuMetaData.obj
 0002:00003300       ??_C@_0BE@FFPGAPHN@PxMeshGeometryFlags@ 000000018013e300     GuMetaData.obj
 0002:00003318       ??_C@_0BL@KABFLNEB@ShadowTriangleMeshGeometry@ 000000018013e318     GuMetaData.obj
 0002:00003338       ??_C@_0N@FKKDJAHE@triangleMesh@ 000000018013e338     GuMetaData.obj
 0002:00003348       ??_C@_08BEABJAHJ@meshData@ 000000018013e348     GuMetaData.obj
 0002:00003358       ??_C@_0BA@NGIONHFJ@materialIndices@ 000000018013e358     GuMetaData.obj
 0002:00003368       ??_C@_09JGGNEAGH@materials@ 000000018013e368     GuMetaData.obj
 0002:00003378       ??_C@_0BK@OIFEOHNJ@ShadowHeightFieldGeometry@ 000000018013e378     GuMetaData.obj
 0002:00003398       ??_C@_0M@IEKJPCGG@heightField@ 000000018013e398     GuMetaData.obj
 0002:000033a8       ??_C@_0M@LHLNPPJ@heightScale@ 000000018013e3a8     GuMetaData.obj
 0002:000033b8       ??_C@_08GJPCBGLE@rowScale@ 000000018013e3b8     GuMetaData.obj
 0002:000033c8       ??_C@_0M@HHBHEPCE@columnScale@ 000000018013e3c8     GuMetaData.obj
 0002:000033d8       ??_C@_0BB@PMIIHDKK@heightFieldFlags@ 000000018013e3d8     GuMetaData.obj
 0002:000033f0       ??_C@_0BA@DMOKLLHN@heightFieldData@ 000000018013e3f0     GuMetaData.obj
 0002:00003400       ??_C@_0BE@IKADPPC@ShadowPlaneGeometry@ 000000018013e400     GuMetaData.obj
 0002:00003418       ??_C@_0BF@PIKLLBGN@ShadowSphereGeometry@ 000000018013e418     GuMetaData.obj
 0002:00003430       ??_C@_06KGHINEPG@radius@   000000018013e430     GuMetaData.obj
 0002:00003438       ??_C@_0BG@OBHJHKMO@ShadowCapsuleGeometry@ 000000018013e438     GuMetaData.obj
 0002:00003450       ??_C@_0L@PMAANELH@halfHeight@ 000000018013e450     GuMetaData.obj
 0002:00003460       ??_C@_0BC@DMJNHLLO@ShadowBoxGeometry@ 000000018013e460     GuMetaData.obj
 0002:00003478       ??_C@_0M@CMAEPJOI@halfExtents@ 000000018013e478     GuMetaData.obj
 0002:00003488       ??_C@_0BH@PKALDLFA@PxConvexMeshGeometryLL@ 000000018013e488     GuMetaData.obj
 0002:000034a0       ??_C@_0BJ@GAFBNAAE@PxTriangleMeshGeometryLL@ 000000018013e4a0     GuMetaData.obj
 0002:000034c0       ??_C@_0BI@IIFLCNOC@PxHeightFieldGeometryLL@ 000000018013e4c0     GuMetaData.obj
 0002:000034d8       ??_C@_0BA@NAHKMBFO@PxPlaneGeometry@ 000000018013e4d8     GuMetaData.obj
 0002:000034e8       ??_C@_0BB@CHBDIEFA@PxSphereGeometry@ 000000018013e4e8     GuMetaData.obj
 0002:00003500       ??_C@_0BC@LJMOIOOK@PxCapsuleGeometry@ 000000018013e500     GuMetaData.obj
 0002:00003518       ??_C@_0O@OEDJDNFP@PxBoxGeometry@ 000000018013e518     GuMetaData.obj
 0002:00003528       ??_C@_0BC@ICOOCLFG@Gu?3?3GeometryUnion@ 000000018013e528     GuMetaData.obj
 0002:00003540       ??_7?$SupportLocalImpl@VConvexHullV@Gu@physx@@@Gu@physx@@6B@ 000000018013e540     GuMTD.obj
 0002:00003560       ??_7?$SupportLocalImpl@VConvexHullNoScaleV@Gu@physx@@@Gu@physx@@6B@ 000000018013e560     GuMTD.obj
 0002:00003580       ??_7?$SupportLocalImpl@VBoxV@Gu@physx@@@Gu@physx@@6B@ 000000018013e580     GuMTD.obj
 0002:000035a0       ??_7SupportLocal@Gu@physx@@6B@ 000000018013e5a0     GuMTD.obj
 0002:000035e0       ?absMask@?1??FAbs@aos@shdfnd@physx@@YA?AT__m128@@T5@@Z@4QBIB 000000018013e5e0     GuMTD.obj
 0002:000035f0       ??_7GjkConvexBase@Gu@physx@@6B@ 000000018013e5f0     GuMTD.obj
 0002:00003620       ??_7?$LocalConvex@VCapsuleV@Gu@physx@@@Gu@physx@@6B@ 000000018013e620     GuMTD.obj
 0002:00003650       ??_7?$LocalConvex@VConvexHullV@Gu@physx@@@Gu@physx@@6B@ 000000018013e650     GuMTD.obj
 0002:00003680       __real@2edbe6ff            000000018013e680     GuMTD.obj
 0002:00003684       __real@3ccccccd            000000018013e684     GuMTD.obj
 0002:00003688       __real@3dcccccd            000000018013e688     GuMTD.obj
 0002:0000368c       __real@ff7fffff            000000018013e68c     GuMTD.obj
 0002:00003690       __xmm@0000000000000000000000003f800000 000000018013e690     GuMTD.obj
 0002:000036a0       __xmm@00000000000000003f80000000000000 000000018013e6a0     GuMTD.obj
 0002:000036b0       __xmm@000000003f8000000000000000000000 000000018013e6b0     GuMTD.obj
 0002:000036c0       __xmm@000000003f8000003f8000003f800000 000000018013e6c0     GuMTD.obj
 0002:000036d0       __xmm@00000000ffffffffffffffffffffffff 000000018013e6d0     GuMTD.obj
 0002:000036e0       __xmm@34000000340000003400000034000000 000000018013e6e0     GuMTD.obj
 0002:000036f0       __xmm@358637bd358637bd358637bd358637bd 000000018013e6f0     GuMTD.obj
 0002:00003700       __xmm@3dcccccd3dcccccd3dcccccd3dcccccd 000000018013e700     GuMTD.obj
 0002:00003710       __xmm@3e4ccccd3e4ccccd3e4ccccd3e4ccccd 000000018013e710     GuMTD.obj
 0002:00003720       __xmm@3f7ff1413f7ff1413f7ff1413f7ff141 000000018013e720     GuMTD.obj
 0002:00003730       __xmm@3f7ff2e53f7ff2e53f7ff2e53f7ff2e5 000000018013e730     GuMTD.obj
 0002:00003740       __xmm@3f8000003f8000003f8000003f800000 000000018013e740     GuMTD.obj
 0002:00003750       __xmm@7f7fffff7f7fffff7f7fffff7f7fffff 000000018013e750     GuMTD.obj
 0002:00003760       __xmm@bf000000bf000000bf000000bf000000 000000018013e760     GuMTD.obj
 0002:00003790       ??_7?$RelativeConvex@VBoxV@Gu@physx@@@Gu@physx@@6B@ 000000018013e790     GuOverlapTests.obj
 0002:000037c0       ??_7?$RelativeConvex@VConvexHullV@Gu@physx@@@Gu@physx@@6B@ 000000018013e7c0     GuOverlapTests.obj
 0002:000037f0       ??_C@_0EC@MLIJOGHA@Height?5Field?5Overlap?5test?5calle@ 000000018013e7f0     GuOverlapTests.obj
 0002:00003838       ??_C@_0DP@BMBLFPPO@C?3?2dev?2PhysX?94?41?2physx?2source?2g@ 000000018013e838     GuOverlapTests.obj
 0002:000038b0       ??_C@_0EC@GJLDADPE@Height?5Field?5Raycast?5test?5calle@ 000000018013e8b0     GuRaycastTests.obj
 0002:000038f8       ??_C@_0DP@OPNGCIFE@C?3?2dev?2PhysX?94?41?2physx?2source?2g@ 000000018013e8f8     GuRaycastTests.obj
 0002:00003938       __real@1e3ce508            000000018013e938     GuRaycastTests.obj
 0002:0000393c       __real@28800000            000000018013e93c     GuRaycastTests.obj
 0002:00003940       __real@33d6bf95            000000018013e940     GuRaycastTests.obj
 0002:00003944       __real@3727c5ac            000000018013e944     GuRaycastTests.obj
 0002:00003948       __real@3f0147ae            000000018013e948     GuRaycastTests.obj
 0002:0000394c       __real@3f7ffffe            000000018013e94c     GuRaycastTests.obj
 0002:00003950       __real@3f800347            000000018013e950     GuRaycastTests.obj
 0002:00003954       __real@41200000            000000018013e954     GuRaycastTests.obj
 0002:00003958       __real@80000000            000000018013e958     GuRaycastTests.obj
 0002:0000395c       __real@b3d6bf95            000000018013e95c     GuRaycastTests.obj
 0002:00003960       __real@b8d1b717            000000018013e960     GuRaycastTests.obj
 0002:00003964       __real@c1200000            000000018013e964     GuRaycastTests.obj
 0002:000039a0       ??_7?$MeshHitCallback@UPxRaycastHit@physx@@@Gu@physx@@6B@ 000000018013e9a0     GuSweepMTD.obj
 0002:000039b0       ??_7MeshMTDGenerationCallback@@6B@ 000000018013e9b0     GuSweepMTD.obj
 0002:000039c0       ??_7MidPhaseQueryLocalReport@@6B@ 000000018013e9c0     GuSweepMTD.obj
 0002:000039d0       __real@3f933333            000000018013e9d0     GuSweepMTD.obj
 0002:000039e0       __xmm@00000000000000003f8000003f800000 000000018013e9e0     GuSweepMTD.obj
 0002:000039f0       __xmm@3e19999a3e19999a3e19999a3e19999a 000000018013e9f0     GuSweepMTD.obj
 0002:00003a00       __xmm@3e8000003e8000003e8000003e800000 000000018013ea00     GuSweepMTD.obj
 0002:00003a30       __real@3c23d70a            000000018013ea30     GuSweepSharedTests.obj
 0002:00003a34       __real@42c80000            000000018013ea34     GuSweepSharedTests.obj
 0002:00003a40       __xmm@ffffffffffffffffffffffffffffffff 000000018013ea40     GuSweepSharedTests.obj
 0002:00003a70       ??_C@_0EA@GNDJNJGB@Height?5Field?5Sweep?5test?5called?5@ 000000018013ea70     GuSweepTests.obj
 0002:00003ab0       ??_C@_0DN@FGLNEDEF@C?3?2dev?2PhysX?94?41?2physx?2source?2g@ 000000018013eab0     GuSweepTests.obj
 0002:00003af0       ??_7?$LocalConvex@VBoxV@Gu@physx@@@Gu@physx@@6B@ 000000018013eaf0     GuSweepTests.obj
 0002:00003b20       ??_7?$LocalConvex@VTriangleV@Gu@physx@@@Gu@physx@@6B@ 000000018013eb20     GuSweepTests.obj
 0002:00003b50       __xmm@00000002000000020000000200000002 000000018013eb50     GuSweepTests.obj
 0002:00003b60       __xmm@3eaaaa9f3eaaaa9f3eaaaa9f3eaaaa9f 000000018013eb60     GuSweepTests.obj
 0002:00003b90       ??_C@_0EA@FLKICAPF@C?3?2dev?2PhysX?94?41?2physx?2source?2g@ 000000018013eb90     GuAABBTreeBuild.obj
 0002:00003bd0       ??_C@_0BC@EHGLOIPG@AABB?5tree?5indices@ 000000018013ebd0     GuAABBTreeBuild.obj
 0002:00003be4       ??_C@_05BDNCCAMC@cache@    000000018013ebe4     GuAABBTreeBuild.obj
 0002:00003c10       ??_7PxBVHStructure@physx@@6B@ 000000018013ec10     GuBVHStructure.obj
 0002:00003c60       ??_C@_0P@CDPKBIIF@PxBVHStructure@ 000000018013ec60     GuBVHStructure.obj
 0002:00003c70       ??_7RefCountable@Cm@physx@@6B@ 000000018013ec70     GuBVHStructure.obj
 0002:00003c80       ??_7BVHStructure@Gu@physx@@6BPxBVHStructure@2@@ 000000018013ec80     GuBVHStructure.obj
 0002:00003cd0       ??_7BVHStructure@Gu@physx@@6BRefCountable@Cm@2@@ 000000018013ecd0     GuBVHStructure.obj
 0002:00003ce0       ??_C@_0M@LHBCGNCE@BVH?5indices@ 000000018013ece0     GuBVHStructure.obj
 0002:00003cf0       ??_C@_0DP@JIELKGBM@C?3?2dev?2PhysX?94?41?2physx?2source?2g@ 000000018013ecf0     GuBVHStructure.obj
 0002:00003d30       ??_C@_0L@HGOGJNHO@BVH?5bounds@ 000000018013ed30     GuBVHStructure.obj
 0002:00003d40       ??_C@_09GFGBFFDA@BVH?5nodes@ 000000018013ed40     GuBVHStructure.obj
 0002:00003d50       ??_C@_0DF@GMOKOMPK@Gu?3?3BVHStructure?3?3release?3?5doub@ 000000018013ed50     GuBVHStructure.obj
 0002:00003d88       ??_C@_0BA@DMBHEKGP@BVH?5volume?5list@ 000000018013ed88     GuBVHStructure.obj
 0002:00003e00       __real@00000000            000000018013ee00     GuCCDSweepConvexMesh.obj
 0002:00003e04       __real@3c343958            000000018013ee04     GuCCDSweepConvexMesh.obj
 0002:00003e08       __real@3ca3d70a            000000018013ee08     GuCCDSweepConvexMesh.obj
 0002:00003e0c       __real@3f0ccccd            000000018013ee0c     GuCCDSweepConvexMesh.obj
 0002:00003e10       __real@3f8ccccd            000000018013ee10     GuCCDSweepConvexMesh.obj
 0002:00003e14       __real@b58637bd            000000018013ee14     GuCCDSweepConvexMesh.obj
 0002:00003e20       __xmm@000000000000000000000000fe7fffff 000000018013ee20     GuCCDSweepConvexMesh.obj
 0002:00003e30       __xmm@fe7ffffffe7fffff7e7fffff7e7fffff 000000018013ee30     GuCCDSweepConvexMesh.obj
 0002:00003e60       ??_7?$RelativeConvex@VCapsuleV@Gu@physx@@@Gu@physx@@6B@ 000000018013ee60     GuCCDSweepPrimitives.obj
 0002:00003e90       ??_7?$RelativeConvex@VTriangleV@Gu@physx@@@Gu@physx@@6B@ 000000018013ee90     GuCCDSweepPrimitives.obj
 0002:00003ec0       __real@3ba3d70a            000000018013eec0     GuCCDSweepPrimitives.obj
 0002:00003ec4       __real@501502f9            000000018013eec4     GuCCDSweepPrimitives.obj
 0002:00003fd0       __real@3f7fbe77            000000018013efd0     GuContactBoxBox.obj
 0002:00004020       __real@3a83126f            000000018013f020     GuContactCapsuleCapsule.obj
 0002:00004024       __real@3f7ff2e5            000000018013f024     GuContactCapsuleCapsule.obj
 0002:00004028       __real@40800000            000000018013f028     GuContactCapsuleCapsule.obj
 0002:000040b0       __real@358637be            000000018013f0b0     GuContactCapsuleMesh.obj
 0002:000040b4       __real@3eaaaaab            000000018013f0b4     GuContactCapsuleMesh.obj
 0002:000040b8       __real@3f8020c5            000000018013f0b8     GuContactCapsuleMesh.obj
 0002:000040bc       __real@ba83126f            000000018013f0bc     GuContactCapsuleMesh.obj
 0002:00004110       ??_7ConvexMeshContactGenerationCallback@@6B@ 000000018013f110     GuContactConvexMesh.obj
 0002:00004190       __real@3ec90fdb            000000018013f190     GuContactPolygonPolygon.obj
 0002:00004194       __real@3f490fdb            000000018013f194     GuContactPolygonPolygon.obj
 0002:00004198       __real@3f96cbe4            000000018013f198     GuContactPolygonPolygon.obj
 0002:0000419c       __real@3fc90fdb            000000018013f19c     GuContactPolygonPolygon.obj
 0002:000041a0       __real@3ffb53d2            000000018013f1a0     GuContactPolygonPolygon.obj
 0002:000041a4       __real@4016cbe4            000000018013f1a4     GuContactPolygonPolygon.obj
 0002:000041a8       __real@402feddf            000000018013f1a8     GuContactPolygonPolygon.obj
 0002:000041b0       __xmm@ff7fffffff7fffffff7fffffff7fffff 000000018013f1b0     GuContactPolygonPolygon.obj
 0002:00004230       ??_C@_0DL@OAFGOMGB@Dropping?5contacts?5in?5sphere?5vs?5@ 000000018013f230     GuContactSphereMesh.obj
 0002:00004270       ??_C@_0EM@PHBEMPAL@C?3?2dev?2PhysX?94?41?2physx?2source?2g@ 000000018013f270     GuContactSphereMesh.obj
 0002:000042f0       ??_C@_0DK@OBIONGHK@C?3?2dev?2PhysX?94?41?2physx?2source?2f@ 000000018013f2f0     GuContactSphereMesh.obj
 0002:00004370       __real@bf000000            000000018013f370     GuContactSphereSphere.obj
 0002:00004378       ??_C@_0BD@PGLLAGCI@BigConvexData?5data@ 000000018013f378     GuBigConvexData.obj
 0002:00004390       ??_C@_0EH@CLEHIJBJ@C?3?2dev?2PhysX?94?41?2physx?2source?2g@ 000000018013f390     GuBigConvexData.obj
 0002:000043d8       ??_C@_0BH@NIMDLCCM@BigConvex?5Samples?5Data@ 000000018013f3d8     GuBigConvexData.obj
 0002:00004410       ??_7PxConvexMesh@physx@@6B@ 000000018013f410     GuConvexMesh.obj
 0002:00004488       ??_7ConvexMesh@Gu@physx@@6BPxConvexMesh@2@@ 000000018013f488     GuConvexMesh.obj
 0002:00004510       ??_7ConvexMesh@Gu@physx@@6BRefCountable@Cm@2@@ 000000018013f510     GuConvexMesh.obj
 0002:00004520       ??_C@_0BE@EJGGFHND@ConvexHullData?5data@ 000000018013f520     GuConvexMesh.obj
 0002:00004540       ??_C@_0EE@OMOMAEJB@C?3?2dev?2PhysX?94?41?2physx?2source?2g@ 000000018013f540     GuConvexMesh.obj
 0002:00004588       ??_C@_0DM@NEJKOFIP@Loading?5convex?5mesh?5failed?3?5Dep@ 000000018013f588     GuConvexMesh.obj
 0002:000045c8       ??_C@_0DD@GDAMDLJL@Gu?3?3ConvexMesh?3?3release?3?5double@ 000000018013f5c8     GuConvexMesh.obj
 0002:00004620       __xmm@000000000000000000000000ffffffff 000000018013f620     GuConvexSupportTable.obj
 0002:00004630       __xmm@0000000000000000ffffffff00000000 000000018013f630     GuConvexSupportTable.obj
 0002:00004640       __xmm@0000000000000000ffffffffffffffff 000000018013f640     GuConvexSupportTable.obj
 0002:00004650       __xmm@00000000ffffffff0000000000000000 000000018013f650     GuConvexSupportTable.obj
 0002:00004660       __xmm@00000000ffffffff00000000ffffffff 000000018013f660     GuConvexSupportTable.obj
 0002:00004670       __xmm@00000000ffffffffffffffff00000000 000000018013f670     GuConvexSupportTable.obj
 0002:00004720       __real@2b8cbccc            000000018013f720     GuDistanceSegmentTriangle.obj
 0002:00004730       __xmm@3f8000013f8000013f8000013f800001 000000018013f730     GuDistanceSegmentTriangle.obj
 0002:00004740       __xmm@b4000000b4000000b4000000b4000000 000000018013f740     GuDistanceSegmentTriangle.obj
 0002:000047a0       __xmm@38d1b71738d1b71738d1b71738d1b717 000000018013f7a0     GuGJKSimplex.obj
 0002:000047b0       __xmm@b58637bdb58637bdb58637bdb58637bd 000000018013f7b0     GuGJKSimplex.obj
 0002:000047e0       ??_7PxHeightField@physx@@6B@ 000000018013f7e0     GuHeightField.obj
 0002:00004880       ??_7HeightField@Gu@physx@@6BPxHeightField@2@@ 000000018013f880     GuHeightField.obj
 0002:00004930       ??_7HeightField@Gu@physx@@6BRefCountable@Cm@2@@ 000000018013f930     GuHeightField.obj
 0002:00004940       ??_C@_0DL@DNGFPCEG@Gu?3?3HeightField?3?3onRefCountZero@ 000000018013f940     GuHeightField.obj
 0002:00004980       ??_C@_0EB@DAFFIILK@C?3?2dev?2PhysX?94?41?2physx?2source?2g@ 000000018013f980     GuHeightField.obj
 0002:000049c8       ??_C@_0DF@LLAFPPKJ@Gu?3?3HeightField?3?3modifySamples?3@ 000000018013f9c8     GuHeightField.obj
 0002:00004a00       ??_C@_0CI@DMKEKGNK@Gu?3?3HeightField?3?3load?3?5PX_ALLOC@ 000000018013fa00     GuHeightField.obj
 0002:00004a28       ??_C@_0DG@LACOBMDE@Gu?3?3HeightField?3?3loadFromDesc?3?5@ 000000018013fa28     GuHeightField.obj
 0002:00004a60       ??_C@_0DE@LOHMPEDL@C?3?2dev?2PhysX?94?41?2physx?2source?2c@ 000000018013fa60     GuHeightField.obj
 0002:00004ac0       ??_C@_0DH@EJDJIMCB@HeightFieldShape?3?3getTriangle?3?5@ 000000018013fac0     GuHeightFieldUtil.obj
 0002:00004b00       ??_C@_0EF@NCIKNLJC@C?3?2dev?2PhysX?94?41?2physx?2source?2g@ 000000018013fb00     GuHeightFieldUtil.obj
 0002:00004b48       __real@3a03126f            000000018013fb48     GuHeightFieldUtil.obj
 0002:00004b4c       __real@3f19999a            000000018013fb4c     GuHeightFieldUtil.obj
 0002:00004bb0       ??_7HeightFieldTraceSegmentReport@@6B@ 000000018013fbb0     GuSweepsHF.obj
 0002:00004bc0       ??_7CapsuleTraceSegmentReport@@6B@ 000000018013fbc0     GuSweepsHF.obj
 0002:00004bd0       ??_7ConvexTraceSegmentReport@@6B@ 000000018013fbd0     GuSweepsHF.obj
 0002:00004be0       ??_7BoxTraceSegmentReport@@6B@ 000000018013fbe0     GuSweepsHF.obj
 0002:00004bf0       __real@aedbe6ff            000000018013fbf0     GuSweepsHF.obj
 0002:00004c20       __real@3089705f            000000018013fc20     GuIntersectionRayBox.obj
 0002:00004c24       __real@34000000            000000018013fc24     GuIntersectionRayBox.obj
 0002:00004c28       __real@b4000000            000000018013fc28     GuIntersectionRayBox.obj
 0002:00004c30       __xmm@000000003089705f3089705f3089705f 000000018013fc30     GuIntersectionRayBox.obj
 0002:00004c40       __xmm@00000000bf800000bf800000bf800000 000000018013fc40     GuIntersectionRayBox.obj
 0002:00004c90       ??_C@_0DL@OAMKMIJ@C?3?2dev?2PhysX?94?41?2physx?2source?2g@ 000000018013fc90     GuBV4.obj
 0002:00004ccc       ??_C@_04LHNPKPDA@OPC2@     000000018013fccc     GuBV4.obj
 0002:00004cd8       ??_C@_09JOJONBOP@BV4?5nodes@ 000000018013fcd8     GuBV4.obj
 0002:00004d10       ??_C@_03DMLNBBKA@BV4@      000000018013fd10     GuBV4Build.obj
 0002:00004d20       ??_C@_0EA@EEJADGGJ@C?3?2dev?2PhysX?94?41?2physx?2source?2g@ 000000018013fd20     GuBV4Build.obj
 0002:00004d60       ??_C@_0M@FLGHAIDC@BV4?5indices@ 000000018013fd60     GuBV4Build.obj
 0002:00004d6c       __real@38000100            000000018013fd6c     GuBV4Build.obj
 0002:00004d70       __real@3e93cd3a            000000018013fd70     GuBV4Build.obj
 0002:00004d74       __real@46fffe00            000000018013fd74     GuBV4Build.obj
 0002:00004d78       __real@be93cd3a            000000018013fd78     GuBV4Build.obj
 0002:00004da0       __xmm@0000ffff0000ffff0000ffff0000ffff 000000018013fda0     GuBV4_AABBSweep.obj
 0002:00004db0       __xmm@3089705f3089705f3089705f3089705f 000000018013fdb0     GuBV4_AABBSweep.obj
 0002:00004dc0       __xmm@33d6bf9533d6bf9533d6bf9533d6bf95 000000018013fdc0     GuBV4_AABBSweep.obj
 0002:00004dd0       __xmm@40000000400000004000000040000000 000000018013fdd0     GuBV4_AABBSweep.obj
 0002:00004ee0       __xmm@00000000000000007f7fffff00000000 000000018013fee0     GuMidphaseBV4.obj
 0002:00004f50       ??_C@_0DK@FFHPKGEP@PxMeshQuery?3?3getTriangle?3?5trian@ 000000018013ff50     GuMeshQuery.obj
 0002:00004f90       ??_C@_0EB@DDLNHANB@C?3?2dev?2PhysX?94?41?2physx?2source?2g@ 000000018013ff90     GuMeshQuery.obj
 0002:00004fe0       ??_C@_0FD@EHCCILIF@Adjacency?5information?5not?5creat@ 000000018013ffe0     GuMeshQuery.obj
 0002:00005040       ??_C@_0FA@MCAAGAGM@findOverlapTriangleMesh?3?5Only?5b@ 0000000180140040     GuMeshQuery.obj
 0002:00005090       ??_C@_0EM@BEFNLPHI@findOverlapHeightField?3?5Only?5bo@ 0000000180140090     GuMeshQuery.obj
 0002:000050e0       ??_C@_0CJ@NLNHIMDM@PxMeshQuery?3?3sweep?$CI?$CJ?3?5pose?5is?5n@ 00000001801400e0     GuMeshQuery.obj
 0002:00005110       ??_C@_0CM@BFKJPOOO@PxMeshQuery?3?3sweep?$CI?$CJ?3?5unitDir?5i@ 0000000180140110     GuMeshQuery.obj
 0002:00005140       ??_C@_0CN@JKBDLLPP@PxMeshQuery?3?3sweep?$CI?$CJ?3?5distance?5@ 0000000180140140     GuMeshQuery.obj
 0002:00005170       ??_C@_0DN@DPNNFGGF@PxMeshQuery?3?3sweep?$CI?$CJ?3?5sweep?5dis@ 0000000180140170     GuMeshQuery.obj
 0002:000051b0       ??_C@_0BA@MBAFFELP@MeshQuery?4sweep@ 00000001801401b0     GuMeshQuery.obj
 0002:000051c0       ??_C@_0FJ@GNAHJJCM@PxMeshQuery?3?3sweep?$CI?$CJ?3?5geometry?5@ 00000001801401c0     GuMeshQuery.obj
 0002:0000521c       __real@4cbebc20            000000018014021c     GuMeshQuery.obj
 0002:00005240       ??_7Callback@RTree@Gu@physx@@6B@ 0000000180140240     GuMidphaseRTree.obj
 0002:00005258       ??_7CallbackRefit@RTree@Gu@physx@@6B@ 0000000180140258     GuTriangleMeshRTree.obj
 0002:00005258       ??_7CallbackRaycast@RTree@Gu@physx@@6B@ 0000000180140258     GuMidphaseRTree.obj
 0002:00005268       ??_7?$RayRTreeCallback@$0A@$0A@@@6BCallbackRaycast@RTree@Gu@physx@@@ 0000000180140268     GuMidphaseRTree.obj
 0002:00005268       ??_7?$RayRTreeCallback@$00$0A@@@6BCallbackRaycast@RTree@Gu@physx@@@ 0000000180140268     GuMidphaseRTree.obj
 0002:00005278       ??_7?$RayRTreeCallback@$0A@$0A@@@6BCallback@RTree@Gu@physx@@@ 0000000180140278     GuMidphaseRTree.obj
 0002:00005278       ??_7?$RayRTreeCallback@$00$0A@@@6BCallback@RTree@Gu@physx@@@ 0000000180140278     GuMidphaseRTree.obj
 0002:00005290       ??_7RayMeshColliderCallback@@6B@ 0000000180140290     GuMidphaseRTree.obj
 0002:000052a0       ??_7?$RayRTreeCallback@$0A@$00@@6BCallbackRaycast@RTree@Gu@physx@@@ 00000001801402a0     GuMidphaseRTree.obj
 0002:000052b0       ??_7?$RayRTreeCallback@$0A@$00@@6BCallback@RTree@Gu@physx@@@ 00000001801402b0     GuMidphaseRTree.obj
 0002:000052c8       ??_7?$RayRTreeCallback@$00$00@@6BCallbackRaycast@RTree@Gu@physx@@@ 00000001801402c8     GuMidphaseRTree.obj
 0002:000052d8       ??_7?$RayRTreeCallback@$00$00@@6BCallback@RTree@Gu@physx@@@ 00000001801402d8     GuMidphaseRTree.obj
 0002:000053b0       ??_7ConvexVsMeshOverlapCallback@@6B@ 00000001801403b0     GuOverlapTestsMesh.obj
 0002:000053c0       ?MN@RTreePage@Gu@physx@@2MB 00000001801403c0     GuRTree.obj
 0002:000053c4       ?MX@RTreePage@Gu@physx@@2MB 00000001801403c4     GuRTree.obj
 0002:000053f0       ??_C@_0DN@PNJPPKCK@C?3?2dev?2PhysX?94?41?2physx?2source?2g@ 00000001801403f0     GuRTree.obj
 0002:000054a0       ??_7SweepShapeMeshHitCallback@Gu@physx@@6B@ 00000001801404a0     GuSweepsMesh.obj
 0002:000054b0       ??_7SweepCapsuleMeshHitCallback@Gu@physx@@6B@ 00000001801404b0     GuSweepsMesh.obj
 0002:000054c0       ??_7SweepBoxMeshHitCallback@Gu@physx@@6B@ 00000001801404c0     GuSweepsMesh.obj
 0002:000054d0       ??_7SweepConvexMeshHitCallback@Gu@physx@@6B@ 00000001801404d0     GuSweepsMesh.obj
 0002:00005500       ??_7PxTriangleMesh@physx@@6B@ 0000000180140500     GuTriangleMesh.obj
 0002:00005588       ??_7TriangleMesh@Gu@physx@@6BPxTriangleMesh@2@@ 0000000180140588     GuTriangleMesh.obj
 0002:00005628       ??_7TriangleMesh@Gu@physx@@6BRefCountable@Cm@2@@ 0000000180140628     GuTriangleMesh.obj
 0002:00005638       ??_C@_0DF@DNLKAHAL@Gu?3?3TriangleMesh?3?3release?3?5doub@ 0000000180140638     GuTriangleMesh.obj
 0002:00005670       ??_C@_0EE@NCLMKLHA@C?3?2dev?2PhysX?94?41?2physx?2source?2g@ 0000000180140670     GuTriangleMesh.obj
 0002:000056c0       ??_C@_0GH@IGKFPLIJ@PxTriangleMesh?3?3getVerticesForM@ 00000001801406c0     GuTriangleMesh.obj
 0002:00005730       ??_C@_0FF@LHAOBIMM@PxTriangleMesh?3?3refitBVH?$CI?$CJ?5is?5o@ 0000000180140730     GuTriangleMesh.obj
 0002:000057b0       ??_C@_0BE@CNJKIINO@PxBVH34TriangleMesh@ 00000001801407b0     GuTriangleMeshBV4.obj
 0002:000057c8       ??_7BV4TriangleMesh@Gu@physx@@6BPxTriangleMesh@2@@ 00000001801407c8     GuTriangleMeshBV4.obj
 0002:00005868       ??_7BV4TriangleMesh@Gu@physx@@6BRefCountable@Cm@2@@ 0000000180140868     GuTriangleMeshBV4.obj
 0002:000058a0       ??_C@_0BE@EIFHCCBO@PxBVH33TriangleMesh@ 00000001801408a0     GuTriangleMeshRTree.obj
 0002:000058b8       ??_7RTreeTriangleMesh@Gu@physx@@6BPxTriangleMesh@2@@ 00000001801408b8     GuTriangleMeshRTree.obj
 0002:00005958       ??_7RTreeTriangleMesh@Gu@physx@@6BRefCountable@Cm@2@@ 0000000180140958     GuTriangleMeshRTree.obj
 0002:00005968       ??_7?$RefitCallback@G@physx@@6B@ 0000000180140968     GuTriangleMeshRTree.obj
 0002:00005978       ??_7?$RefitCallback@I@physx@@6B@ 0000000180140978     GuTriangleMeshRTree.obj
 0002:00005990       __xmm@38383838383838383838383838383838 0000000180140990     GuTriangleMeshRTree.obj
 0002:000059a0       ??_C@_0P@KDMGEHMF@BV32DataPacked@ 00000001801409a0     GuBV32.obj
 0002:000059b0       ??_C@_0DM@OICJNGDJ@C?3?2dev?2PhysX?94?41?2physx?2source?2g@ 00000001801409b0     GuBV32.obj
 0002:00005a10       ??_C@_0EB@GGHHKOOE@C?3?2dev?2PhysX?94?41?2physx?2source?2g@ 0000000180140a10     GuBV32Build.obj
 0002:00005a54       ??_C@_04DONFFMAN@BV32@     0000000180140a54     GuBV32Build.obj
 0002:00005a80       __xmm@00000000358637bd358637bd358637bd 0000000180140a80     GuPCMContactBoxBox.obj
 0002:00005a90       __xmm@3d4ccccd3d4ccccd3d4ccccd3d4ccccd 0000000180140a90     GuPCMContactBoxBox.obj
 0002:00005aa0       __xmm@3f4ccccd3f4ccccd3f4ccccd3f4ccccd 0000000180140aa0     GuPCMContactBoxBox.obj
 0002:00005ab0       __xmm@ffffffff00000000ffffffffffffffff 0000000180140ab0     GuPCMContactBoxBox.obj
 0002:00005ae0       ??_7?$LocalConvex@VConvexHullNoScaleV@Gu@physx@@@Gu@physx@@6B@ 0000000180140ae0     GuPCMContactBoxConvex.obj
 0002:00005b10       __xmm@3f3504f33f3504f33f3504f33f3504f3 0000000180140b10     GuPCMContactBoxConvex.obj
 0002:00005b60       __xmm@ffffffffffffffffffffffff00000000 0000000180140b60     GuPCMContactCapsuleCapsule.obj
 0002:00005b90       __xmm@3fa000003fa000003fa000003fa00000 0000000180140b90     GuPCMContactCapsuleConvex.obj
 0002:00005bc0       ??_7PCMCapsuleVsHeightfieldContactGenerationCallback@physx@@6B@ 0000000180140bc0     GuPCMContactCapsuleHeightField.obj
 0002:00005bd0       __real@3f7f3b64            0000000180140bd0     GuPCMContactCapsuleHeightField.obj
 0002:00005be0       __xmm@3f7ef9db3f7ef9db3f7ef9db3f7ef9db 0000000180140be0     GuPCMContactCapsuleHeightField.obj
 0002:00005c20       ??_7PCMCapsuleVsMeshContactGenerationCallback@physx@@6B@ 0000000180140c20     GuPCMContactCapsuleMesh.obj
 0002:00005c50       ??_7?$SupportLocalImpl@VTriangleV@Gu@physx@@@Gu@physx@@6B@ 0000000180140c50     GuPCMContactConvexCommon.obj
 0002:00005c70       ??_C@_0ED@LBAMKDEE@C?3?2dev?2PhysX?94?41?2physx?2source?2f@ 0000000180140c70     GuPCMContactConvexCommon.obj
 0002:00005cc0       __xmm@3cf5c2803cf5c2803cf5c2803cf5c280 0000000180140cc0     GuPCMContactConvexCommon.obj
 0002:00005cd0       __xmm@3f7851ec3f7851ec3f7851ec3f7851ec 0000000180140cd0     GuPCMContactConvexCommon.obj
 0002:00005ce0       __xmm@3f7ff9723f7ff9723f7ff9723f7ff972 0000000180140ce0     GuPCMContactConvexCommon.obj
 0002:00005cf0       __xmm@3f7fffef3f7fffef3f7fffef3f7fffef 0000000180140cf0     GuPCMContactConvexCommon.obj
 0002:00005d20       ??_7?$RelativeConvex@VConvexHullNoScaleV@Gu@physx@@@Gu@physx@@6B@ 0000000180140d20     GuPCMContactConvexConvex.obj
 0002:00005d70       ??_7PCMConvexVsHeightfieldContactGenerationCallback@physx@@6B@ 0000000180140d70     GuPCMContactConvexHeightField.obj
 0002:00005d80       __xmm@3f19999a3f19999a3f19999a3f19999a 0000000180140d80     GuPCMContactConvexHeightField.obj
 0002:00005dc0       ??_7PCMConvexVsMeshContactGenerationCallback@physx@@6B@ 0000000180140dc0     GuPCMContactConvexMesh.obj
 0002:00005df0       __xmm@3f34fdf43f34fdf43f34fdf43f34fdf4 0000000180140df0     GuPCMContactGenBoxConvex.obj
 0002:00005e20       __xmm@3f80a3d73f80a3d73f80a3d73f80a3d7 0000000180140e20     GuPCMContactGenSphereCapsule.obj
 0002:00005e30       __xmm@bba3d70abba3d70abba3d70abba3d70a 0000000180140e30     GuPCMContactGenSphereCapsule.obj
 0002:00005e80       __real@3b23d70b            0000000180140e80     GuPCMContactPlaneCapsule.obj
 0002:00005e90       __xmm@3ca3d70a3ca3d70a3ca3d70a3ca3d70a 0000000180140e90     GuPCMContactPlaneCapsule.obj
 0002:00005f40       ??_7PCMSphereVsHeightfieldContactGenerationCallback@physx@@6B@ 0000000180140f40     GuPCMContactSphereHeightField.obj
 0002:00005f80       ??_7PCMSphereVsMeshContactGenerationCallback@physx@@6B@ 0000000180140f80     GuPCMContactSphereMesh.obj
 0002:00005fd0       __xmm@3727c5ac3727c5ac3727c5ac3727c5ac 0000000180140fd0     GuPCMContactSphereSphere.obj
 0002:00006000       ?gPCMBoxPolygonData@Gu@physx@@3QBEB 0000000180141000     GuPCMShapeConvex.obj
 0002:00006040       ?invalidateThresholds@Gu@physx@@3QBMB 0000000180141040     GuPersistentContactManifold.obj
 0002:00006058       ?invalidateQuatThresholds@Gu@physx@@3QBMB 0000000180141058     GuPersistentContactManifold.obj
 0002:00006070       ?invalidateThresholds2@Gu@physx@@3QBMB 0000000180141070     GuPersistentContactManifold.obj
 0002:00006080       ?invalidateQuatThresholds2@Gu@physx@@3QBMB 0000000180141080     GuPersistentContactManifold.obj
 0002:000060b0       __xmm@000000003f8000003f80000000000000 00000001801410b0     GuPersistentContactManifold.obj
 0002:000060c0       __xmm@00000000bf8000003f80000000000000 00000001801410c0     GuPersistentContactManifold.obj
 0002:000060d0       __xmm@ffffffffffffffff00000000ffffffff 00000001801410d0     GuPersistentContactManifold.obj
 0002:00006120       __real@b727c5ac            0000000180141120     GuSweepBoxSphere.obj
 0002:00006190       ??_C@_0EI@DOBCOFMP@C?3?2dev?2PhysX?94?41?2physx?2source?2g@ 0000000180141190     GuSweepCapsuleBox.obj
 0002:00006200       __real@3f7fff58            0000000180141200     GuSweepCapsuleTriangle.obj
 0002:00006250       __sz_PhysXFoundation_64_dll 0000000180141250     PhysXFoundation_64:PhysXFoundation_64.dll
 0002:00006268       ??_C@_1BK@DBDEIDLH@?$AAK?$AAE?$AAR?$AAN?$AAE?$AAL?$AA3?$AA2?$AA?4?$AAD?$AAL?$AAL@ 0000000180141268     Delayimp:delayhlp.obj
 0002:00006288       ??_C@_0BI@OMNLIJDB@AcquireSRWLockExclusive@ 0000000180141288     Delayimp:delayhlp.obj
 0002:000062a0       ??_C@_0BI@HMIEPCNJ@ReleaseSRWLockExclusive@ 00000001801412a0     Delayimp:delayhlp.obj
 0002:000062b8       __pfnDliFailureHook2       00000001801412b8     Delayimp:delayhk1.obj
 0002:000062c8       ??_7type_info@@6B@         00000001801412c8     LIBCMT:std_type_info_static.obj
 0002:00006330       _pDefaultRawDllMain        0000000180141330     LIBCMT:dll_dllmain.obj
 0002:00006330       _pRawDllMain               0000000180141330     LIBCMT:dll_dllmain.obj
 0002:00006340       _load_config_used          0000000180141340     LIBCMT:loadcfg.obj
 0002:00006478       _pDestructExceptionObject  0000000180141478     libvcruntime:ehhelpers.obj
 0002:00006b80       ??_C@_08EHJDFFNH@__based?$CI@ 0000000180141b80     libvcruntime:undname.obj
 0002:00006b90       ??_C@_07KOLFKCDI@__cdecl@  0000000180141b90     libvcruntime:undname.obj
 0002:00006b98       ??_C@_08GHMPAG@__pascal@   0000000180141b98     libvcruntime:undname.obj
 0002:00006ba8       ??_C@_09IFJBGAPI@__stdcall@ 0000000180141ba8     libvcruntime:undname.obj
 0002:00006bb8       ??_C@_0L@NPHFGOKO@__thiscall@ 0000000180141bb8     libvcruntime:undname.obj
 0002:00006bc8       ??_C@_0L@JMKHOMEK@__fastcall@ 0000000180141bc8     libvcruntime:undname.obj
 0002:00006bd8       ??_C@_0N@BCKKPABJ@__vectorcall@ 0000000180141bd8     libvcruntime:undname.obj
 0002:00006be8       ??_C@_09HIJEGCPM@__clrcall@ 0000000180141be8     libvcruntime:undname.obj
 0002:00006bf4       ??_C@_06GHPCKEAG@__eabi@   0000000180141bf4     libvcruntime:undname.obj
 0002:00006c00       ??_C@_09IOPIDJLG@__swift_1@ 0000000180141c00     libvcruntime:undname.obj
 0002:00006c10       ??_C@_09KFNFGKHF@__swift_2@ 0000000180141c10     libvcruntime:undname.obj
 0002:00006c20       ??_C@_07JOMMBBKO@__ptr64@  0000000180141c20     libvcruntime:undname.obj
 0002:00006c28       ??_C@_0L@PILCLIHE@__restrict@ 0000000180141c28     libvcruntime:undname.obj
 0002:00006c38       ??_C@_0M@GFIIJFMG@__unaligned@ 0000000180141c38     libvcruntime:undname.obj
 0002:00006c48       ??_C@_09DHDLOLLB@restrict?$CI@ 0000000180141c48     libvcruntime:undname.obj
 0002:00006c52       ??_C@_00CNPNBAHC@@         0000000180141c52     libvcruntime:undname.obj
 0002:00006c54       ??_C@_04NIHEBCM@?5new@     0000000180141c54     libvcruntime:undname.obj
 0002:00006c60       ??_C@_07FPCDHGMM@?5delete@ 0000000180141c60     libvcruntime:undname.obj
 0002:00006c68       ??_C@_01NEMOKFLO@?$DN@     0000000180141c68     libvcruntime:undname.obj
 0002:00006c6c       ??_C@_02GPIOPFAK@?$DO?$DO@ 0000000180141c6c     libvcruntime:undname.obj
 0002:00006c70       ??_C@_02FODMEDOG@?$DM?$DM@ 0000000180141c70     libvcruntime:undname.obj
 0002:00006c74       ??_C@_01DCLJPIOD@?$CB@     0000000180141c74     libvcruntime:undname.obj
 0002:00006c78       ??_C@_02EGOFBIJA@?$DN?$DN@ 0000000180141c78     libvcruntime:undname.obj
 0002:00006c7c       ??_C@_02FDNJECIE@?$CB?$DN@ 0000000180141c7c     libvcruntime:undname.obj
 0002:00006c80       ??_C@_02GPECMEKF@?$FL?$FN@ 0000000180141c80     libvcruntime:undname.obj
 0002:00006c88       ??_C@_08LHJFAFGD@operator@ 0000000180141c88     libvcruntime:undname.obj
 0002:00006c94       ??_C@_02HBOOOICD@?9?$DO@   0000000180141c94     libvcruntime:undname.obj
 0002:00006c98       ??_C@_01NBENCBCI@?$CK@     0000000180141c98     libvcruntime:undname.obj
 0002:00006c9c       ??_C@_02ECNGHCIF@?$CL?$CL@ 0000000180141c9c     libvcruntime:undname.obj
 0002:00006ca0       ??_C@_02BAABKJLB@?9?9@     0000000180141ca0     libvcruntime:undname.obj
 0002:00006ca4       ??_C@_01JOAMLHOP@?9@       0000000180141ca4     libvcruntime:undname.obj
 0002:00006ca8       ??_C@_01MIFGBAGJ@?$CL@     0000000180141ca8     libvcruntime:undname.obj
 0002:00006cac       ??_C@_01HNPIGOCE@?$CG@     0000000180141cac     libvcruntime:undname.obj
 0002:00006cb0       ??_C@_03MNHNFDLC@?9?$DO?$CK@ 0000000180141cb0     libvcruntime:undname.obj
 0002:00006cb4       ??_C@_01KMDKNFGN@?1@       0000000180141cb4     libvcruntime:undname.obj
 0002:00006cb8       ??_C@_01FGNFDNOH@?$CF@     0000000180141cb8     libvcruntime:undname.obj
 0002:00006cbc       ??_C@_01MNNFJEPP@?$DM@     0000000180141cbc     libvcruntime:undname.obj
 0002:00006cc0       ??_C@_02EHCHHCKH@?$DM?$DN@ 0000000180141cc0     libvcruntime:undname.obj
 0002:00006cc4       ??_C@_01PPODPGHN@?$DO@     0000000180141cc4     libvcruntime:undname.obj
 0002:00006cc8       ??_C@_02EEKDKGMJ@?$DO?$DN@ 0000000180141cc8     libvcruntime:undname.obj
 0002:00006ccc       ??_C@_01IHBHIGKO@?0@       0000000180141ccc     libvcruntime:undname.obj
 0002:00006cd0       ??_C@_02HCKGKOFO@?$CI?$CJ@ 0000000180141cd0     libvcruntime:undname.obj
 0002:00006cd4       ??_C@_01PJKLJHI@?$HO@      0000000180141cd4     libvcruntime:undname.obj
 0002:00006cd8       ??_C@_01JKBOJNNK@?$FO@     0000000180141cd8     libvcruntime:undname.obj
 0002:00006cdc       ??_C@_01DNKMNLPK@?$HM@     0000000180141cdc     libvcruntime:undname.obj
 0002:00006ce0       ??_C@_02PPKAJPJL@?$CG?$CG@ 0000000180141ce0     libvcruntime:undname.obj
 0002:00006ce4       ??_C@_02NONPIBCD@?$HM?$HM@ 0000000180141ce4     libvcruntime:undname.obj
 0002:00006ce8       ??_C@_02FPIMKNGF@?$CK?$DN@ 0000000180141ce8     libvcruntime:undname.obj
 0002:00006cec       ??_C@_02FOEOMHFC@?$CL?$DN@ 0000000180141cec     libvcruntime:undname.obj
 0002:00006cf0       ??_C@_02FKMDLLOA@?9?$DN@   0000000180141cf0     libvcruntime:undname.obj
 0002:00006cf4       ??_C@_02FJEHGPIO@?1?$DN@   0000000180141cf4     libvcruntime:undname.obj
 0002:00006cf8       ??_C@_02FENAOKFI@?$CF?$DN@ 0000000180141cf8     libvcruntime:undname.obj
 0002:00006cfc       ??_C@_03IKFCCPFF@?$DO?$DO?$DN@ 0000000180141cfc     libvcruntime:undname.obj
 0002:00006d00       ??_C@_03CDNPDDLA@?$DM?$DM?$DN@ 0000000180141d00     libvcruntime:undname.obj
 0002:00006d04       ??_C@_02FGJGFEAB@?$CG?$DN@ 0000000180141d04     libvcruntime:undname.obj
 0002:00006d08       ??_C@_02DHLNPPGH@?$HM?$DN@ 0000000180141d08     libvcruntime:undname.obj
 0002:00006d0c       ??_C@_02MHEGNOJ@?$FO?$DN@  0000000180141d0c     libvcruntime:undname.obj
 0002:00006d10       ??_C@_09IFPLHPGF@?$GAvftable?8@ 0000000180141d10     libvcruntime:undname.obj
 0002:00006d20       ??_C@_09BLBHBJP@?$GAvbtable?8@ 0000000180141d20     libvcruntime:undname.obj
 0002:00006d30       ??_C@_07FEEIOKP@?$GAvcall?8@ 0000000180141d30     libvcruntime:undname.obj
 0002:00006d38       ??_C@_08LLFFHHDJ@?$GAtypeof?8@ 0000000180141d38     libvcruntime:undname.obj
 0002:00006d48       ??_C@_0BF@KDPPACIK@?$GAlocal?5static?5guard?8@ 0000000180141d48     libvcruntime:undname.obj
 0002:00006d60       ??_C@_08OBABFOLI@?$GAstring?8@ 0000000180141d60     libvcruntime:undname.obj
 0002:00006d70       ??_C@_0BD@JDLKDPAB@?$GAvbase?5destructor?8@ 0000000180141d70     libvcruntime:undname.obj
 0002:00006d88       ??_C@_0BN@DEGPLNFK@?$GAvector?5deleting?5destructor?8@ 0000000180141d88     libvcruntime:undname.obj
 0002:00006da8       ??_C@_0BO@OBMKPJIG@?$GAdefault?5constructor?5closure?8@ 0000000180141da8     libvcruntime:undname.obj
 0002:00006dc8       ??_C@_0BN@IMDCHIKM@?$GAscalar?5deleting?5destructor?8@ 0000000180141dc8     libvcruntime:undname.obj
 0002:00006de8       ??_C@_0BO@PFGOCPJJ@?$GAvector?5constructor?5iterator?8@ 0000000180141de8     libvcruntime:undname.obj
 0002:00006e08       ??_C@_0BN@LFPFMEDL@?$GAvector?5destructor?5iterator?8@ 0000000180141e08     libvcruntime:undname.obj
 0002:00006e28       ??_C@_0CE@IKBNEHA@?$GAvector?5vbase?5constructor?5itera@ 0000000180141e28     libvcruntime:undname.obj
 0002:00006e50       ??_C@_0BL@NILFHHPC@?$GAvirtual?5displacement?5map?8@ 0000000180141e50     libvcruntime:undname.obj
 0002:00006e70       ??_C@_0CB@JONCMFFK@?$GAeh?5vector?5constructor?5iterator@ 0000000180141e70     libvcruntime:undname.obj
 0002:00006e98       ??_C@_0CA@GCEOPDGL@?$GAeh?5vector?5destructor?5iterator?8@ 0000000180141e98     libvcruntime:undname.obj
 0002:00006eb8       ??_C@_0CH@OOJPLCPH@?$GAeh?5vector?5vbase?5constructor?5it@ 0000000180141eb8     libvcruntime:undname.obj
 0002:00006ee0       ??_C@_0BL@LLKPOHJI@?$GAcopy?5constructor?5closure?8@ 0000000180141ee0     libvcruntime:undname.obj
 0002:00006f00       ??_C@_0BA@KBCDOMBN@?$GAudt?5returning?8@ 0000000180141f00     libvcruntime:undname.obj
 0002:00006f10       ??_C@_03KLGMFNMG@?$GAEH@   0000000180141f10     libvcruntime:undname.obj
 0002:00006f14       ??_C@_05KHLCHHI@?$GARTTI@  0000000180141f14     libvcruntime:undname.obj
 0002:00006f20       ??_C@_0BA@KKLDJDLB@?$GAlocal?5vftable?8@ 0000000180141f20     libvcruntime:undname.obj
 0002:00006f30       ??_C@_0CE@IIHCMGGL@?$GAlocal?5vftable?5constructor?5clos@ 0000000180141f30     libvcruntime:undname.obj
 0002:00006f54       ??_C@_06FHBGPFGH@?5new?$FL?$FN@ 0000000180141f54     libvcruntime:undname.obj
 0002:00006f60       ??_C@_09LBNFPBCA@?5delete?$FL?$FN@ 0000000180141f60     libvcruntime:undname.obj
 0002:00006f70       ??_C@_0P@HJKNJFNN@?$GAomni?5callsig?8@ 0000000180141f70     libvcruntime:undname.obj
 0002:00006f80       ??_C@_0BL@CNOONJFP@?$GAplacement?5delete?5closure?8@ 0000000180141f80     libvcruntime:undname.obj
 0002:00006fa0       ??_C@_0BN@CKNJLHMB@?$GAplacement?5delete?$FL?$FN?5closure?8@ 0000000180141fa0     libvcruntime:undname.obj
 0002:00006fc0       ??_C@_0CG@CFDHKGGD@?$GAmanaged?5vector?5constructor?5ite@ 0000000180141fc0     libvcruntime:undname.obj
 0002:00006fe8       ??_C@_0CF@IMGKMJNO@?$GAmanaged?5vector?5destructor?5iter@ 0000000180141fe8     libvcruntime:undname.obj
 0002:00007010       ??_C@_0CG@HLDDJMAG@?$GAeh?5vector?5copy?5constructor?5ite@ 0000000180142010     libvcruntime:undname.obj
 0002:00007038       ??_C@_0CM@FCBBDIGB@?$GAeh?5vector?5vbase?5copy?5construct@ 0000000180142038     libvcruntime:undname.obj
 0002:00007068       ??_C@_0BL@CLIPGLGB@?$GAdynamic?5initializer?5for?5?8@ 0000000180142068     libvcruntime:undname.obj
 0002:00007088       ??_C@_0CB@PDBIFEP@?$GAdynamic?5atexit?5destructor?5for?5@ 0000000180142088     libvcruntime:undname.obj
 0002:000070b0       ??_C@_0CD@CGAJBKEJ@?$GAvector?5copy?5constructor?5iterat@ 00000001801420b0     libvcruntime:undname.obj
 0002:000070d8       ??_C@_0CJ@GJELGAMM@?$GAvector?5vbase?5copy?5constructor?5@ 00000001801420d8     libvcruntime:undname.obj
 0002:00007108       ??_C@_0CL@FGIJHLCE@?$GAmanaged?5vector?5copy?5constructo@ 0000000180142108     libvcruntime:undname.obj
 0002:00007138       ??_C@_0BM@PMGGMLDN@?$GAlocal?5static?5thread?5guard?8@ 0000000180142138     libvcruntime:undname.obj
 0002:00007158       ??_C@_0N@BDNMDMOL@operator?5?$CC?$CC?5@ 0000000180142158     libvcruntime:undname.obj
 0002:00007168       ??_C@_0BC@GGEBGALA@operator?5co_await@ 0000000180142168     libvcruntime:undname.obj
 0002:00007180       ??_C@_0M@GAAIMMOH@operator?$DM?$DN?$DO@ 0000000180142180     libvcruntime:undname.obj
 0002:00007190       ??_C@_0BC@DAFEJGAK@?5Type?5Descriptor?8@ 0000000180142190     libvcruntime:undname.obj
 0002:000071a8       ??_C@_0BM@LDKODKLH@?5Base?5Class?5Descriptor?5at?5?$CI@ 00000001801421a8     libvcruntime:undname.obj
 0002:000071c8       ??_C@_0BD@LGICGFMM@?5Base?5Class?5Array?8@ 00000001801421c8     libvcruntime:undname.obj
 0002:000071e0       ??_C@_0BN@MECKDCOJ@?5Class?5Hierarchy?5Descriptor?8@ 00000001801421e0     libvcruntime:undname.obj
 0002:00007200       ??_C@_0BK@CFCOFLF@?5Complete?5Object?5Locator?8@ 0000000180142200     libvcruntime:undname.obj
 0002:00007220       ??_C@_0BG@JNJLAMPM@?$GAanonymous?5namespace?8@ 0000000180142220     libvcruntime:undname.obj
 0002:00007238       ??_C@_04HEJADOOB@CV?3?5@   0000000180142238     libvcruntime:undname.obj
 0002:00007240       ??_C@_02MOLJINC@?3?3@      0000000180142240     libvcruntime:undname.obj
 0002:00007248       ??_C@_0BE@JAEOCHPE@template?9parameter?9@ 0000000180142248     libvcruntime:undname.obj
 0002:00007260       ??_C@_0BF@LNLGBBNL@?$GAtemplate?9parameter?9@ 0000000180142260     libvcruntime:undname.obj
 0002:00007278       ??_C@_0O@KHGCOMHP@generic?9type?9@ 0000000180142278     libvcruntime:undname.obj
 0002:00007288       ??_C@_0P@ODDENDLM@?$GAgeneric?9type?9@ 0000000180142288     libvcruntime:undname.obj
 0002:00007298       ??_C@_02OHHJMEON@?8?8@     0000000180142298     libvcruntime:undname.obj
 0002:000072a0       ??_C@_0BN@IBLMMFAP@?$GAnon?9type?9template?9parameter@ 00000001801422a0     libvcruntime:undname.obj
 0002:000072c0       ??_C@_03DLDNIBIK@?$CFlf@   00000001801422c0     libvcruntime:undname.obj
 0002:000072c4       ??_C@_04OFALKAJ@?$DP?$DP_C@ 00000001801422c4     libvcruntime:undname.obj
 0002:000072cc       ??_C@_03KHICJKCI@?4?4?4@   00000001801422cc     libvcruntime:undname.obj
 0002:000072d0       ??_C@_04HIBGFPH@NULL@      00000001801422d0     libvcruntime:undname.obj
 0002:000072d8       ??_C@_02DPKJAMEF@?$CFd@    00000001801422d8     libvcruntime:undname.obj
 0002:000072e0       ??_C@_0BK@IHCCFNEL@?$GAtemplate?9type?9parameter?9@ 00000001801422e0     libvcruntime:undname.obj
 0002:00007300       ??_C@_0BK@OFCNNNKO@?$GAgeneric?9class?9parameter?9@ 0000000180142300     libvcruntime:undname.obj
 0002:00007320       ??_C@_0BL@NGJBLFIL@?$GAgeneric?9method?9parameter?9@ 0000000180142320     libvcruntime:undname.obj
 0002:00007340       ??_C@_07OHNGEDJK@nullptr@  0000000180142340     libvcruntime:undname.obj
 0002:00007348       ??_C@_0BE@EODMJLIF@?$GAtemplate?9parameter@ 0000000180142348     libvcruntime:undname.obj
 0002:0000735c       ??_C@_03OPGICMGF@?$HN?8?5@ 000000018014235c     libvcruntime:undname.obj
 0002:00007360       ??_C@_02IGFCGPIL@?$HN?8@   0000000180142360     libvcruntime:undname.obj
 0002:00007368       ??_C@_0N@CBHHHENL@?$GAvtordispex?$HL@ 0000000180142368     libvcruntime:undname.obj
 0002:00007378       ??_C@_0L@GHPFDFH@?$GAvtordisp?$HL@ 0000000180142378     libvcruntime:undname.obj
 0002:00007388       ??_C@_0L@HNGCOGAE@?$GAadjustor?$HL@ 0000000180142388     libvcruntime:undname.obj
 0002:00007398       ??_C@_0CB@KJDOOODE@?$GAlocal?5static?5destructor?5helper@ 0000000180142398     libvcruntime:undname.obj
 0002:000073c0       ??_C@_0DB@ILEFOCIJ@?$GAtemplate?5static?5data?5member?5co@ 00000001801423c0     libvcruntime:undname.obj
 0002:000073f8       ??_C@_0DA@HGFJFBBE@?$GAtemplate?5static?5data?5member?5de@ 00000001801423f8     libvcruntime:undname.obj
 0002:00007428       ??_C@_07PGOEDBHP@static?5@ 0000000180142428     libvcruntime:undname.obj
 0002:00007430       ??_C@_08NIEOINHE@virtual?5@ 0000000180142430     libvcruntime:undname.obj
 0002:00007440       ??_C@_09LAPHOOG@private?3?5@ 0000000180142440     libvcruntime:undname.obj
 0002:00007450       ??_C@_0M@GAIFPFIP@protected?3?5@ 0000000180142450     libvcruntime:undname.obj
 0002:00007460       ??_C@_08GPDDCMKI@public?3?5@ 0000000180142460     libvcruntime:undname.obj
 0002:00007470       ??_C@_08KJLFOPNE@?$FLthunk?$FN?3@ 0000000180142470     libvcruntime:undname.obj
 0002:00007480       ??_C@_0M@DHNBOJMP@extern?5?$CCC?$CC?5@ 0000000180142480     libvcruntime:undname.obj
 0002:0000748c       ??_C@_02KCKGHPCA@?$CJ?5@   000000018014248c     libvcruntime:undname.obj
 0002:00007490       ??_C@_05CIHEBHNO@char?5@   0000000180142490     libvcruntime:undname.obj
 0002:00007498       ??_C@_06EHJMALKF@short?5@  0000000180142498     libvcruntime:undname.obj
 0002:000074a0       ??_C@_04LAHKHJMA@int?5@    00000001801424a0     libvcruntime:undname.obj
 0002:000074a8       ??_C@_05CJIMAING@long?5@   00000001801424a8     libvcruntime:undname.obj
 0002:000074b0       ??_C@_09EBBEKKIH@unsigned?5@ 00000001801424b0     libvcruntime:undname.obj
 0002:000074bc       ??_C@_05BEFAKPML@void?5@   00000001801424bc     libvcruntime:undname.obj
 0002:000074c8       ??_C@_09GAIEOBLP@volatile?5@ 00000001801424c8     libvcruntime:undname.obj
 0002:000074d8       ??_C@_08PABEKFH@volatile@  00000001801424d8     libvcruntime:undname.obj
 0002:000074e8       ??_C@_0BA@LKIJLKPP@std?3?3nullptr_t?5@ 00000001801424e8     libvcruntime:undname.obj
 0002:000074f8       ??_C@_0P@GCOCNKDM@std?3?3nullptr_t@ 00000001801424f8     libvcruntime:undname.obj
 0002:00007508       ??_C@_0L@EGPHHEKN@?$DMellipsis?$DO@ 0000000180142508     libvcruntime:undname.obj
 0002:00007514       ??_C@_04EENFHACM@?0?4?4?4@ 0000000180142514     libvcruntime:undname.obj
 0002:00007520       ??_C@_0M@ELJOJFFH@?0?$DMellipsis?$DO@ 0000000180142520     libvcruntime:undname.obj
 0002:00007530       ??_C@_09DNHFEOJI@?5noexcept@ 0000000180142530     libvcruntime:undname.obj
 0002:0000753c       ??_C@_03PBJBJNON@cpu@      000000018014253c     libvcruntime:undname.obj
 0002:00007540       ??_C@_03DCBBJBAA@amp@      0000000180142540     libvcruntime:undname.obj
 0002:00007544       ??_C@_02KEGNLNML@?0?5@     0000000180142544     libvcruntime:undname.obj
 0002:00007548       ??_C@_04ENMBGAPA@char@     0000000180142548     libvcruntime:undname.obj
 0002:00007550       ??_C@_05BFKKPKCG@short@    0000000180142550     libvcruntime:undname.obj
 0002:00007558       ??_C@_03JBIPMCLC@int@      0000000180142558     libvcruntime:undname.obj
 0002:0000755c       ??_C@_04GOKPGOLB@long@     000000018014255c     libvcruntime:undname.obj
 0002:00007564       ??_C@_06BNJCAIGJ@double@   0000000180142564     libvcruntime:undname.obj
 0002:0000756c       ??_C@_06EBGKOKIG@__int8@   000000018014256c     libvcruntime:undname.obj
 0002:00007578       ??_C@_07ICFHOGAF@__int16@  0000000180142578     libvcruntime:undname.obj
 0002:00007580       ??_C@_07OFLPPHGP@__int32@  0000000180142580     libvcruntime:undname.obj
 0002:00007588       ??_C@_07LFCOJCAC@__int64@  0000000180142588     libvcruntime:undname.obj
 0002:00007590       ??_C@_08GAHOLHEO@__int128@ 0000000180142590     libvcruntime:undname.obj
 0002:000075a0       ??_C@_09EEKGDCPH@?$DMunknown?$DO@ 00000001801425a0     libvcruntime:undname.obj
 0002:000075b0       ??_C@_07CFHGOPCN@char8_t@  00000001801425b0     libvcruntime:undname.obj
 0002:000075b8       ??_C@_08HBIPOFJB@char16_t@ 00000001801425b8     libvcruntime:undname.obj
 0002:000075c8       ??_C@_08IECNCBKG@char32_t@ 00000001801425c8     libvcruntime:undname.obj
 0002:000075d8       ??_C@_07CLGGIAMF@wchar_t@  00000001801425d8     libvcruntime:undname.obj
 0002:000075e0       ??_C@_04HAPDLBFF@auto@     00000001801425e0     libvcruntime:undname.obj
 0002:000075e8       ??_C@_0P@LHCGKIGK@decltype?$CIauto?$CJ@ 00000001801425e8     libvcruntime:undname.obj
 0002:000075f8       ??_C@_06GCICPBLB@__w64?5@  00000001801425f8     libvcruntime:undname.obj
 0002:00007600       ??_C@_07NFANNNEC@UNKNOWN@  0000000180142600     libvcruntime:undname.obj
 0002:00007608       ??_C@_07EDHNAJHC@signed?5@ 0000000180142608     libvcruntime:undname.obj
 0002:00007610       ??_C@_05BNCCCJPP@const@    0000000180142610     libvcruntime:undname.obj
 0002:00007618       ??_C@_09EFNPDFFP@?5volatile@ 0000000180142618     libvcruntime:undname.obj
 0002:00007628       ??_C@_0P@GCIFDJCJ@?$GAunknown?5ecsu?8@ 0000000180142628     libvcruntime:undname.obj
 0002:00007638       ??_C@_06MOJHIBMG@union?5@  0000000180142638     libvcruntime:undname.obj
 0002:00007640       ??_C@_07DIBCDNGL@struct?5@ 0000000180142640     libvcruntime:undname.obj
 0002:00007648       ??_C@_06LJBABKPM@class?5@  0000000180142648     libvcruntime:undname.obj
 0002:00007650       ??_C@_08KOFANOFK@coclass?5@ 0000000180142650     libvcruntime:undname.obj
 0002:00007660       ??_C@_0N@DLIEFKNA@cointerface?5@ 0000000180142660     libvcruntime:undname.obj
 0002:00007670       ??_C@_05LJGMCFOG@enum?5@   0000000180142670     libvcruntime:undname.obj
 0002:00007678       ??_C@_06LIJLOJAG@const?5@  0000000180142678     libvcruntime:undname.obj
 0002:00007680       ??_C@_02KJPKDIBN@?$CG?5@   0000000180142680     libvcruntime:undname.obj
 0002:00007684       ??_C@_03PCKGMOPB@?$CG?$CG?5@ 0000000180142684     libvcruntime:undname.obj
 0002:00007688       ??_C@_0M@EALIELKG@cli?3?3array?$DM@ 0000000180142688     libvcruntime:undname.obj
 0002:00007698       ??_C@_0O@GKABPPIF@cli?3?3pin_ptr?$DM@ 0000000180142698     libvcruntime:undname.obj
 0002:000076a8       ??_C@_02GOGNNPBN@?$CJ?$FL@ 00000001801426a8     libvcruntime:undname.obj
 0002:000076ac       ??_C@_06EEGAIFAK@?$HLflat?$HN@ 00000001801426ac     libvcruntime:undname.obj
 0002:000076b4       ??_C@_05JIBOFOHK@?$HLfor?5@ 00000001801426b4     libvcruntime:undname.obj
 0002:000076bc       ??_C@_02MDINNEEG@s?5@      00000001801426bc     libvcruntime:undname.obj
 0002:000076c8       ??_7charNode@@6B@          00000001801426c8     libvcruntime:undname.obj
 0002:000076f0       ??_7pcharNode@@6B@         00000001801426f0     libvcruntime:undname.obj
 0002:00007718       ??_7pDNameNode@@6B@        0000000180142718     libvcruntime:undname.obj
 0002:00007740       ??_7DNameStatusNode@@6B@   0000000180142740     libvcruntime:undname.obj
 0002:00007768       ??_7pairNode@@6B@          0000000180142768     libvcruntime:undname.obj
 0002:00007890       ??_C@_04OKOHEJBO@?5?$DP?$DP?5@ 0000000180142890     libvcruntime:undname.obj
 0002:000078a0       ?nodes@?1??make@DNameStatusNode@@SAPEBV2@W4DNameStatus@@@Z@4QBV2@B 00000001801428a0     libvcruntime:undname.obj
 0002:000078e0       ?s_negLengthTab@FH4@@3QBCB 00000001801428e0     libvcruntime:risctrnsctrl.obj
 0002:000078f0       ?s_shiftTab@FH4@@3QBEB     00000001801428f0     libvcruntime:risctrnsctrl.obj
 0002:00007a50       ??_C@_1DM@KHCHBNEB@?$AAa?$AAp?$AAi?$AA?9?$AAm?$AAs?$AA?9?$AAw?$AAi?$AAn?$AA?9?$AAc?$AAo?$AAr?$AAe@ 0000000180142a50     libvcruntime:winapi_downlevel.obj
 0002:00007a90       ??_C@_1DK@LPPGFMPP@?$AAa?$AAp?$AAi?$AA?9?$AAm?$AAs?$AA?9?$AAw?$AAi?$AAn?$AA?9?$AAc?$AAo?$AAr?$AAe@ 0000000180142a90     libvcruntime:winapi_downlevel.obj
 0002:00007ad0       ??_C@_1BC@GDMECMAK@?$AAk?$AAe?$AAr?$AAn?$AAe?$AAl?$AA3?$AA2@ 0000000180142ad0     libvcruntime:winapi_downlevel.obj
 0002:00007ae8       ??_C@_1BA@PFFKHIOG@?$AAa?$AAp?$AAi?$AA?9?$AAm?$AAs?$AA?9@ 0000000180142ae8     libvcruntime:winapi_downlevel.obj
 0002:00007b00       ??_C@_08KNHFBNJ@FlsAlloc@  0000000180142b00     libvcruntime:winapi_downlevel.obj
 0002:00007b18       ??_C@_07PEJMOBNF@FlsFree@  0000000180142b18     libvcruntime:winapi_downlevel.obj
 0002:00007b28       ??_C@_0M@GDNOONDI@FlsGetValue@ 0000000180142b28     libvcruntime:winapi_downlevel.obj
 0002:00007b40       ??_C@_0M@JCPCPOEF@FlsSetValue@ 0000000180142b40     libvcruntime:winapi_downlevel.obj
 0002:00007b58       ??_C@_0BM@HCFOFFN@InitializeCriticalSectionEx@ 0000000180142b58     libvcruntime:winapi_downlevel.obj
 0002:00007b80       ??_7exception@std@@6B@     0000000180142b80     libvcruntime:frame.obj
 0002:00007b90       ??_C@_0BC@EOODALEL@Unknown?5exception@ 0000000180142b90     libvcruntime:frame.obj
 0002:00007bb0       ??_7bad_exception@std@@6B@ 0000000180142bb0     libvcruntime:frame.obj
 0002:00007bc0       ??_C@_0O@DPKOEFFH@bad?5exception@ 0000000180142bc0     libvcruntime:frame.obj
 0002:00007f10       ??_C@_05FFFCHCED@acosf@    0000000180142f10     libucrt:acosf.obj
 0002:00007f18       __real@3b81ce6b            0000000180142f18     libucrt:acosf.obj
 0002:00007f20       __real@3c91a62633145c07    0000000180142f20     libucrt:acosf.obj
 0002:00007f28       __real@3d678bdd            0000000180142f28     libucrt:acosf.obj
 0002:00007f2c       __real@3e3c94dc            0000000180142f2c     libucrt:acosf.obj
 0002:00007f30       __real@3f561f0d            0000000180142f30     libucrt:acosf.obj
 0002:00007f34       __real@3f8d6fa5            0000000180142f34     libucrt:acosf.obj
 0002:00007f38       __real@3ff921fb54442d18    0000000180142f38     libucrt:acosf.obj
 0002:00007f40       __real@400921fb54442d18    0000000180142f40     libucrt:acosf.obj
 0002:00007f48       __real@40490fdb            0000000180142f48     libucrt:acosf.obj
 0002:00007f4c       __real@bc5b3fe1            0000000180142f4c     libucrt:acosf.obj
 0002:00007f50       __acrt_exception_action_table 0000000180142f50     libucrt:exception_filter.obj
 0002:00008010       __acrt_signal_action_table_count 0000000180143010     libucrt:exception_filter.obj
 0002:00008018       __acrt_signal_action_first_fpe_index 0000000180143018     libucrt:exception_filter.obj
 0002:00008020       __acrt_signal_action_fpe_count 0000000180143020     libucrt:exception_filter.obj
 0002:00008078       ??_C@_1BI@BGOHAHKC@?$AAm?$AAs?$AAc?$AAo?$AAr?$AAe?$AAe?$AA?4?$AAd?$AAl?$AAl@ 0000000180143078     libucrt:exit.obj
 0002:00008090       ??_C@_0P@MIGLKIOC@CorExitProcess@ 0000000180143090     libucrt:exit.obj
 0002:000081f0       ?format_validation_lookup_table_spectre@__crt_stdio_output@@3V?$spectre_mitigated_lookup_table@Ustate_transition_pair@__crt_stdio_output@@$0IA@@1@B 00000001801431f0     libucrt:output.obj
 0002:000082f0       ??_C@_1O@CEDCILHN@?$AA?$CI?$AAn?$AAu?$AAl?$AAl?$AA?$CJ@ 00000001801432f0     libucrt:output.obj
 0002:00008300       ??_C@_06OJHGLDPL@?$CInull?$CJ@ 0000000180143300     libucrt:output.obj
 0002:00008480       ??_C@_04LAGPAAHP@sinf@     0000000180143480     libucrt:sincos_special.obj
 0002:00008488       ??_C@_04OBBKPIAC@cosf@     0000000180143488     libucrt:sincos_special.obj
 0002:00008490       ??_C@_04MHPLPEIA@tanf@     0000000180143490     libucrt:sincos_special.obj
 0002:000084a0       __Lcosfarray               00000001801434a0     libucrt:lsincosf_array.obj
 0002:000084d0       __Lsinfarray               00000001801434d0     libucrt:lsincosf_array.obj
 0002:000084f0       __L_2_by_pi_bits           00000001801434f0     libucrt:l2_by_pi_bits.obj
 0002:000087c8       ??_C@_1M@HPNHIDJI@?$AAj?$AAa?$AA?9?$AAJ?$AAP@ 00000001801437c8     libucrt:mbctype.obj
 0002:000087d8       ??_C@_1M@BIBDDEMK@?$AAz?$AAh?$AA?9?$AAC?$AAN@ 00000001801437d8     libucrt:mbctype.obj
 0002:000087e8       ??_C@_1M@JLOOOEGK@?$AAk?$AAo?$AA?9?$AAK?$AAR@ 00000001801437e8     libucrt:mbctype.obj
 0002:000087f8       ??_C@_1M@CLNBBOPM@?$AAz?$AAh?$AA?9?$AAT?$AAW@ 00000001801437f8     libucrt:mbctype.obj
 0002:000088c0       ??_C@_1EA@JGEFHKEI@?$AAa?$AAp?$AAi?$AA?9?$AAm?$AAs?$AA?9?$AAw?$AAi?$AAn?$AA?9?$AAc?$AAo?$AAr?$AAe@ 00000001801438c0     libucrt:winapi_thunks.obj
 0002:00008900       ??_C@_1DI@KMEPCBPN@?$AAa?$AAp?$AAi?$AA?9?$AAm?$AAs?$AA?9?$AAw?$AAi?$AAn?$AA?9?$AAc?$AAo?$AAr?$AAe@ 0000000180143900     libucrt:winapi_thunks.obj
 0002:00008938       ??_C@_1DI@IJCEHOCB@?$AAa?$AAp?$AAi?$AA?9?$AAm?$AAs?$AA?9?$AAw?$AAi?$AAn?$AA?9?$AAc?$AAo?$AAr?$AAe@ 0000000180143938     libucrt:winapi_thunks.obj
 0002:00008970       ??_C@_1EI@MPIAOHOC@?$AAa?$AAp?$AAi?$AA?9?$AAm?$AAs?$AA?9?$AAw?$AAi?$AAn?$AA?9?$AAc?$AAo?$AAr?$AAe@ 0000000180143970     libucrt:winapi_thunks.obj
 0002:000089c0       ??_C@_1FK@FPHCKFIE@?$AAa?$AAp?$AAi?$AA?9?$AAm?$AAs?$AA?9?$AAw?$AAi?$AAn?$AA?9?$AAc?$AAo?$AAr?$AAe@ 00000001801439c0     libucrt:winapi_thunks.obj
 0002:00008a20       ??_C@_1EM@DILCGIIO@?$AAa?$AAp?$AAi?$AA?9?$AAm?$AAs?$AA?9?$AAw?$AAi?$AAn?$AA?9?$AAc?$AAo?$AAr?$AAe@ 0000000180143a20     libucrt:winapi_thunks.obj
 0002:00008a70       ??_C@_1DM@LNCGDDPN@?$AAa?$AAp?$AAi?$AA?9?$AAm?$AAs?$AA?9?$AAw?$AAi?$AAn?$AA?9?$AAc?$AAo?$AAr?$AAe@ 0000000180143a70     libucrt:winapi_thunks.obj
 0002:00008ab0       ??_C@_1DO@FPAPJEMD@?$AAa?$AAp?$AAi?$AA?9?$AAm?$AAs?$AA?9?$AAw?$AAi?$AAn?$AA?9?$AAc?$AAo?$AAr?$AAe@ 0000000180143ab0     libucrt:winapi_thunks.obj
 0002:00008af0       ??_C@_1DK@NDHNAHIO@?$AAa?$AAp?$AAi?$AA?9?$AAm?$AAs?$AA?9?$AAw?$AAi?$AAn?$AA?9?$AAc?$AAo?$AAr?$AAe@ 0000000180143af0     libucrt:winapi_thunks.obj
 0002:00008b30       ??_C@_1DM@KGHDGBCM@?$AAa?$AAp?$AAi?$AA?9?$AAm?$AAs?$AA?9?$AAw?$AAi?$AAn?$AA?9?$AAc?$AAo?$AAr?$AAe@ 0000000180143b30     libucrt:winapi_thunks.obj
 0002:00008b70       ??_C@_1EO@IJIOEFOH@?$AAa?$AAp?$AAi?$AA?9?$AAm?$AAs?$AA?9?$AAw?$AAi?$AAn?$AA?9?$AAr?$AAt?$AAc?$AAo@ 0000000180143b70     libucrt:winapi_thunks.obj
 0002:00008bc0       ??_C@_1FG@HHGEKANL@?$AAa?$AAp?$AAi?$AA?9?$AAm?$AAs?$AA?9?$AAw?$AAi?$AAn?$AA?9?$AAs?$AAe?$AAc?$AAu@ 0000000180143bc0     libucrt:winapi_thunks.obj
 0002:00008c20       ??_C@_1EG@DBIOJECG@?$AAe?$AAx?$AAt?$AA?9?$AAm?$AAs?$AA?9?$AAw?$AAi?$AAn?$AA?9?$AAn?$AAt?$AAu?$AAs@ 0000000180143c20     libucrt:winapi_thunks.obj
 0002:00008c70       ??_C@_1EO@FIHMJCLF@?$AAe?$AAx?$AAt?$AA?9?$AAm?$AAs?$AA?9?$AAw?$AAi?$AAn?$AA?9?$AAn?$AAt?$AAu?$AAs@ 0000000180143c70     libucrt:winapi_thunks.obj
 0002:00008cc0       ??_C@_1BC@DNHGCMLG@?$AAa?$AAd?$AAv?$AAa?$AAp?$AAi?$AA3?$AA2@ 0000000180143cc0     libucrt:winapi_thunks.obj
 0002:00008cd8       ??_C@_1BG@CJPGBMEF@?$AAk?$AAe?$AAr?$AAn?$AAe?$AAl?$AAb?$AAa?$AAs?$AAe@ 0000000180143cd8     libucrt:winapi_thunks.obj
 0002:00008cf0       ??_C@_1M@OAIMIKLP@?$AAn?$AAt?$AAd?$AAl?$AAl@ 0000000180143cf0     libucrt:winapi_thunks.obj
 0002:00008d00       ??_C@_1EG@DPGNFKGC@?$AAa?$AAp?$AAi?$AA?9?$AAm?$AAs?$AA?9?$AAw?$AAi?$AAn?$AA?9?$AAa?$AAp?$AAp?$AAm@ 0000000180143d00     libucrt:winapi_thunks.obj
 0002:00008d48       ??_C@_1O@BCCLBEOE@?$AAu?$AAs?$AAe?$AAr?$AA3?$AA2@ 0000000180143d48     libucrt:winapi_thunks.obj
 0002:00008d58       ??_C@_1BA@IAIFMGEF@?$AAe?$AAx?$AAt?$AA?9?$AAm?$AAs?$AA?9@ 0000000180143d58     libucrt:winapi_thunks.obj
 0002:00008d70       ??_C@_0BA@FHFNEAED@AreFileApisANSI@ 0000000180143d70     libucrt:winapi_thunks.obj
 0002:00008d90       ??_C@_0O@KKBNKAPF@LCMapStringEx@ 0000000180143d90     libucrt:winapi_thunks.obj
 0002:00008da8       ??_C@_0BB@HBDEELFH@LocaleNameToLCID@ 0000000180143da8     libucrt:winapi_thunks.obj
 0002:00008dc0       ??_C@_0CF@OJOFEIGO@AppPolicyGetProcessTerminationM@ 0000000180143dc0     libucrt:winapi_thunks.obj
 0002:00008df0       __lc_time_c                0000000180143df0     libucrt:nlsdata.obj
 0002:000090b0       ??_C@_03KOEHGMDN@Sun@      00000001801440b0     libucrt:nlsdata.obj
 0002:000090b4       ??_C@_03PDAGKDH@Mon@       00000001801440b4     libucrt:nlsdata.obj
 0002:000090b8       ??_C@_03NAGEINEP@Tue@      00000001801440b8     libucrt:nlsdata.obj
 0002:000090bc       ??_C@_03MHOMLAJA@Wed@      00000001801440bc     libucrt:nlsdata.obj
 0002:000090c0       ??_C@_03IOFIKPDN@Thu@      00000001801440c0     libucrt:nlsdata.obj
 0002:000090c4       ??_C@_03IDIOELNC@Fri@      00000001801440c4     libucrt:nlsdata.obj
 0002:000090c8       ??_C@_03FEFJNEK@Sat@       00000001801440c8     libucrt:nlsdata.obj
 0002:000090cc       ??_C@_06OOPIFAJ@Sunday@    00000001801440cc     libucrt:nlsdata.obj
 0002:000090d4       ??_C@_06JLEDEDGH@Monday@   00000001801440d4     libucrt:nlsdata.obj
 0002:000090e0       ??_C@_07BAAGCFCM@Tuesday@  00000001801440e0     libucrt:nlsdata.obj
 0002:000090e8       ??_C@_09DLIGFAKA@Wednesday@ 00000001801440e8     libucrt:nlsdata.obj
 0002:000090f8       ??_C@_08HACCIKIA@Thursday@ 00000001801440f8     libucrt:nlsdata.obj
 0002:00009104       ??_C@_06JECMNKMI@Friday@   0000000180144104     libucrt:nlsdata.obj
 0002:00009110       ??_C@_08INBOOONO@Saturday@ 0000000180144110     libucrt:nlsdata.obj
 0002:0000911c       ??_C@_03JIHJHPIE@Jan@      000000018014411c     libucrt:nlsdata.obj
 0002:00009120       ??_C@_03HJBDCHOM@Feb@      0000000180144120     libucrt:nlsdata.obj
 0002:00009124       ??_C@_03ODNJBKGA@Mar@      0000000180144124     libucrt:nlsdata.obj
 0002:00009128       ??_C@_03LEOLGMJP@Apr@      0000000180144128     libucrt:nlsdata.obj
 0002:0000912c       ??_C@_03CNMDKL@May@        000000018014412c     libucrt:nlsdata.obj
 0002:00009130       ??_C@_03IDFGHECI@Jun@      0000000180144130     libucrt:nlsdata.obj
 0002:00009134       ??_C@_03LBGABGKK@Jul@      0000000180144134     libucrt:nlsdata.obj
 0002:00009138       ??_C@_03IFJFEIGA@Aug@      0000000180144138     libucrt:nlsdata.obj
 0002:0000913c       ??_C@_03GGCAPAJC@Sep@      000000018014413c     libucrt:nlsdata.obj
 0002:00009140       ??_C@_03BMAOKBAD@Oct@      0000000180144140     libucrt:nlsdata.obj
 0002:00009144       ??_C@_03JPJOFNIA@Nov@      0000000180144144     libucrt:nlsdata.obj
 0002:00009148       ??_C@_03MKABNOCG@Dec@      0000000180144148     libucrt:nlsdata.obj
 0002:00009150       ??_C@_07CGJPFGJA@January@  0000000180144150     libucrt:nlsdata.obj
 0002:00009158       ??_C@_08GNJGEPFN@February@ 0000000180144158     libucrt:nlsdata.obj
 0002:00009164       ??_C@_05HPCKOFNC@March@    0000000180144164     libucrt:nlsdata.obj
 0002:0000916c       ??_C@_05DMJDNLEJ@April@    000000018014416c     libucrt:nlsdata.obj
 0002:00009174       ??_C@_04CNLMGBGM@June@     0000000180144174     libucrt:nlsdata.obj
 0002:0000917c       ??_C@_04MIEPOIFP@July@     000000018014417c     libucrt:nlsdata.obj
 0002:00009184       ??_C@_06LBBHFDDG@August@   0000000180144184     libucrt:nlsdata.obj
 0002:00009190       ??_C@_09BHHEALKD@September@ 0000000180144190     libucrt:nlsdata.obj
 0002:000091a0       ??_C@_07JJNFCEND@October@  00000001801441a0     libucrt:nlsdata.obj
 0002:000091a8       ??_C@_08HCHEGEOA@November@ 00000001801441a8     libucrt:nlsdata.obj
 0002:000091b8       ??_C@_08EDHMEBNP@December@ 00000001801441b8     libucrt:nlsdata.obj
 0002:000091c4       ??_C@_02DEDBPAFC@AM@       00000001801441c4     libucrt:nlsdata.obj
 0002:000091c8       ??_C@_02CJNFDJBF@PM@       00000001801441c8     libucrt:nlsdata.obj
 0002:000091d0       ??_C@_08BPBNCDIB@MM?1dd?1yy@ 00000001801441d0     libucrt:nlsdata.obj
 0002:000091e0       ??_C@_0BE@CKGJFCPC@dddd?0?5MMMM?5dd?0?5yyyy@ 00000001801441e0     libucrt:nlsdata.obj
 0002:000091f8       ??_C@_08JCCMCCIL@HH?3mm?3ss@ 00000001801441f8     libucrt:nlsdata.obj
 0002:00009208       ??_C@_17MBGCMIPB@?$AAS?$AAu?$AAn@ 0000000180144208     libucrt:nlsdata.obj
 0002:00009210       ??_C@_17KBOMKBF@?$AAM?$AAo?$AAn@ 0000000180144210     libucrt:nlsdata.obj
 0002:00009218       ??_C@_17BMKGEGOJ@?$AAT?$AAu?$AAe@ 0000000180144218     libucrt:nlsdata.obj
 0002:00009220       ??_C@_17CJEDCEPE@?$AAW?$AAe?$AAd@ 0000000180144220     libucrt:nlsdata.obj
 0002:00009228       ??_C@_17PDPHAADD@?$AAT?$AAh?$AAu@ 0000000180144228     libucrt:nlsdata.obj
 0002:00009230       ??_C@_17HFOLPPLP@?$AAF?$AAr?$AAi@ 0000000180144230     libucrt:nlsdata.obj
 0002:00009238       ??_C@_17GGIBDPIH@?$AAS?$AAa?$AAt@ 0000000180144238     libucrt:nlsdata.obj
 0002:00009240       ??_C@_1O@IHNHDHPB@?$AAS?$AAu?$AAn?$AAd?$AAa?$AAy@ 0000000180144240     libucrt:nlsdata.obj
 0002:00009250       ??_C@_1O@MMNBFLIA@?$AAM?$AAo?$AAn?$AAd?$AAa?$AAy@ 0000000180144250     libucrt:nlsdata.obj
 0002:00009260       ??_C@_1BA@ENFBFFEK@?$AAT?$AAu?$AAe?$AAs?$AAd?$AAa?$AAy@ 0000000180144260     libucrt:nlsdata.obj
 0002:00009270       ??_C@_1BE@EBOGMDOH@?$AAW?$AAe?$AAd?$AAn?$AAe?$AAs?$AAd?$AAa?$AAy@ 0000000180144270     libucrt:nlsdata.obj
 0002:00009288       ??_C@_1BC@HHMNLIHE@?$AAT?$AAh?$AAu?$AAr?$AAs?$AAd?$AAa?$AAy@ 0000000180144288     libucrt:nlsdata.obj
 0002:000092a0       ??_C@_1O@PDICJHAG@?$AAF?$AAr?$AAi?$AAd?$AAa?$AAy@ 00000001801442a0     libucrt:nlsdata.obj
 0002:000092b0       ??_C@_1BC@ENMNNPAJ@?$AAS?$AAa?$AAt?$AAu?$AAr?$AAd?$AAa?$AAy@ 00000001801442b0     libucrt:nlsdata.obj
 0002:000092c8       ??_C@_17DKNBKCHM@?$AAJ?$AAa?$AAn@ 00000001801442c8     libucrt:nlsdata.obj
 0002:000092d0       ??_C@_17LMDJEKJN@?$AAF?$AAe?$AAb@ 00000001801442d0     libucrt:nlsdata.obj
 0002:000092d8       ??_C@_17CKNLEDEC@?$AAM?$AAa?$AAr@ 00000001801442d8     libucrt:nlsdata.obj
 0002:000092e0       ??_C@_17LFPOIHDD@?$AAA?$AAp?$AAr@ 00000001801442e0     libucrt:nlsdata.obj
 0002:000092e8       ??_C@_17PNNKMEED@?$AAM?$AAa?$AAy@ 00000001801442e8     libucrt:nlsdata.obj
 0002:000092f0       ??_C@_17KCJGOCPB@?$AAJ?$AAu?$AAn@ 00000001801442f0     libucrt:nlsdata.obj
 0002:000092f8       ??_C@_17IJPCKHK@?$AAJ?$AAu?$AAl@ 00000001801442f8     libucrt:nlsdata.obj
 0002:00009300       ??_C@_17ICPELBCN@?$AAA?$AAu?$AAg@ 0000000180144300     libucrt:nlsdata.obj
 0002:00009308       ??_C@_17HCHCOKMG@?$AAS?$AAe?$AAp@ 0000000180144308     libucrt:nlsdata.obj
 0002:00009310       ??_C@_17FNLKOI@?$AAO?$AAc?$AAt@ 0000000180144310     libucrt:nlsdata.obj
 0002:00009318       ??_C@_17BBDMLCIG@?$AAN?$AAo?$AAv@ 0000000180144318     libucrt:nlsdata.obj
 0002:00009320       ??_C@_17EGKACKIF@?$AAD?$AAe?$AAc@ 0000000180144320     libucrt:nlsdata.obj
 0002:00009328       ??_C@_1BA@EFMEIEBA@?$AAJ?$AAa?$AAn?$AAu?$AAa?$AAr?$AAy@ 0000000180144328     libucrt:nlsdata.obj
 0002:00009338       ??_C@_1BC@JGDDFFAM@?$AAF?$AAe?$AAb?$AAr?$AAu?$AAa?$AAr?$AAy@ 0000000180144338     libucrt:nlsdata.obj
 0002:00009350       ??_C@_1M@IKEENEDF@?$AAM?$AAa?$AAr?$AAc?$AAh@ 0000000180144350     libucrt:nlsdata.obj
 0002:00009360       ??_C@_1M@GJNLMHFD@?$AAA?$AAp?$AAr?$AAi?$AAl@ 0000000180144360     libucrt:nlsdata.obj
 0002:00009370       ??_C@_19EPFLPGAP@?$AAJ?$AAu?$AAn?$AAe@ 0000000180144370     libucrt:nlsdata.obj
 0002:00009380       ??_C@_19BIFMLPCD@?$AAJ?$AAu?$AAl?$AAy@ 0000000180144380     libucrt:nlsdata.obj
 0002:00009390       ??_C@_1O@PAHLKOAC@?$AAA?$AAu?$AAg?$AAu?$AAs?$AAt@ 0000000180144390     libucrt:nlsdata.obj
 0002:000093a0       ??_C@_1BE@DKAAMBJL@?$AAS?$AAe?$AAp?$AAt?$AAe?$AAm?$AAb?$AAe?$AAr@ 00000001801443a0     libucrt:nlsdata.obj
 0002:000093b8       ??_C@_1BA@EPANDLNG@?$AAO?$AAc?$AAt?$AAo?$AAb?$AAe?$AAr@ 00000001801443b8     libucrt:nlsdata.obj
 0002:000093c8       ??_C@_1BC@BGLIFPF@?$AAN?$AAo?$AAv?$AAe?$AAm?$AAb?$AAe?$AAr@ 00000001801443c8     libucrt:nlsdata.obj
 0002:000093e0       ??_C@_1BC@FEMKIFH@?$AAD?$AAe?$AAc?$AAe?$AAm?$AAb?$AAe?$AAr@ 00000001801443e0     libucrt:nlsdata.obj
 0002:000093f4       ??_C@_15ODEHAHHF@?$AAA?$AAM@ 00000001801443f4     libucrt:nlsdata.obj
 0002:000093fc       ??_C@_15CLMNNGEL@?$AAP?$AAM@ 00000001801443fc     libucrt:nlsdata.obj
 0002:00009408       ??_C@_1BC@IEBCMHCM@?$AAM?$AAM?$AA?1?$AAd?$AAd?$AA?1?$AAy?$AAy@ 0000000180144408     libucrt:nlsdata.obj
 0002:00009420       ??_C@_1CI@KNAKOEBC@?$AAd?$AAd?$AAd?$AAd?$AA?0?$AA?5?$AAM?$AAM?$AAM?$AAM?$AA?5?$AAd?$AAd?$AA?0?$AA?5@ 0000000180144420     libucrt:nlsdata.obj
 0002:00009448       ??_C@_1BC@GDGBMEMK@?$AAH?$AAH?$AA?3?$AAm?$AAm?$AA?3?$AAs?$AAs@ 0000000180144448     libucrt:nlsdata.obj
 0002:00009460       ??_C@_1M@BMHNFIME@?$AAe?$AAn?$AA?9?$AAU?$AAS@ 0000000180144460     libucrt:nlsdata.obj
 0002:000094f0       ??_C@_03OEIAHPBN@INF@      00000001801444f0     libucrt:cvt.obj
 0002:000094f4       ??_C@_03OJHLLCGB@inf@      00000001801444f4     libucrt:cvt.obj
 0002:000094f8       ??_C@_03LKNCIKJB@NAN@      00000001801444f8     libucrt:cvt.obj
 0002:000094fc       ??_C@_03LHCJEHON@nan@      00000001801444fc     libucrt:cvt.obj
 0002:00009500       ??_C@_09OFJJIMPC@NAN?$CISNAN?$CJ@ 0000000180144500     libucrt:cvt.obj
 0002:00009510       ??_C@_09IPFBKMDL@nan?$CIsnan?$CJ@ 0000000180144510     libucrt:cvt.obj
 0002:00009520       ??_C@_08IKHNHAJ@NAN?$CIIND?$CJ@ 0000000180144520     libucrt:cvt.obj
 0002:00009530       ??_C@_08OFCDMILK@nan?$CIind?$CJ@ 0000000180144530     libucrt:cvt.obj
 0002:0000953c       ??_C@_05KLBDPFGC@e?$CL000@ 000000018014453c     libucrt:cvt.obj
 0002:00009550       __newctype                 0000000180144550     libucrt:ctype.obj
 0002:00009850       __newclmap                 0000000180144850     libucrt:ctype.obj
 0002:000099d0       __newcumap                 00000001801449d0     libucrt:ctype.obj
 0002:00009b60       ??_C@_05HGHHAHAP@log10@    0000000180144b60     libucrt:fpexcept.obj
 0002:0000a9b0       ??_C@_15EMKDOKLE@?$AAa?$AAr@ 00000001801459b0     libucrt:lcidtoname_downlevel.obj
 0002:0000a9b8       ??_C@_15KNPADPLH@?$AAb?$AAg@ 00000001801459b8     libucrt:lcidtoname_downlevel.obj
 0002:0000a9c0       ??_C@_15EDMHLDMO@?$AAc?$AAa@ 00000001801459c0     libucrt:lcidtoname_downlevel.obj
 0002:0000a9c8       ??_C@_1O@BPEAJADD@?$AAz?$AAh?$AA?9?$AAC?$AAH?$AAS@ 00000001801459c8     libucrt:lcidtoname_downlevel.obj
 0002:0000a9d8       ??_C@_15LJNHCMNK@?$AAc?$AAs@ 00000001801459d8     libucrt:lcidtoname_downlevel.obj
 0002:0000a9e0       ??_C@_15FOMCIDHG@?$AAd?$AAa@ 00000001801459e0     libucrt:lcidtoname_downlevel.obj
 0002:0000a9e8       ??_C@_15NBKABECB@?$AAd?$AAe@ 00000001801459e8     libucrt:lcidtoname_downlevel.obj
 0002:0000a9f0       ??_C@_15GHPEIIAO@?$AAe?$AAl@ 00000001801459f0     libucrt:lcidtoname_downlevel.obj
 0002:0000a9f8       ??_C@_15MNPNEAIF@?$AAe?$AAn@ 00000001801459f8     libucrt:lcidtoname_downlevel.obj
 0002:0000aa00       ??_C@_15GPIOMPMH@?$AAe?$AAs@ 0000000180145a00     libucrt:lcidtoname_downlevel.obj
 0002:0000aa08       ??_C@_15NGLOAKJC@?$AAf?$AAi@ 0000000180145a08     libucrt:lcidtoname_downlevel.obj
 0002:0000aa10       ??_C@_15FBKGNKAM@?$AAf?$AAr@ 0000000180145a10     libucrt:lcidtoname_downlevel.obj
 0002:0000aa18       ??_C@_15KGGCNEFK@?$AAh?$AAe@ 0000000180145a18     libucrt:lcidtoname_downlevel.obj
 0002:0000aa20       ??_C@_15PGHLIDMF@?$AAh?$AAu@ 0000000180145a20     libucrt:lcidtoname_downlevel.obj
 0002:0000aa28       ??_C@_15BIEMAPLM@?$AAi?$AAs@ 0000000180145a28     libucrt:lcidtoname_downlevel.obj
 0002:0000aa30       ??_C@_15IFJLDHAF@?$AAi?$AAt@ 0000000180145a30     libucrt:lcidtoname_downlevel.obj
 0002:0000aa38       ??_C@_15GEMIOCAG@?$AAj?$AAa@ 0000000180145a38     libucrt:lcidtoname_downlevel.obj
 0002:0000aa40       ??_C@_15EPELEGJA@?$AAk?$AAo@ 0000000180145a40     libucrt:lcidtoname_downlevel.obj
 0002:0000aa48       ??_C@_15NDDHIMN@?$AAn?$AAl@ 0000000180145a48     libucrt:lcidtoname_downlevel.obj
 0002:0000aa50       ??_C@_15BPIGNHCD@?$AAn?$AAo@ 0000000180145a50     libucrt:lcidtoname_downlevel.obj
 0002:0000aa58       ??_C@_15DEOPBLCG@?$AAp?$AAl@ 0000000180145a58     libucrt:lcidtoname_downlevel.obj
 0002:0000aa60       ??_C@_15KBECGEFG@?$AAp?$AAt@ 0000000180145a60     libucrt:lcidtoname_downlevel.obj
 0002:0000aa68       ??_C@_15GLJCBFMD@?$AAr?$AAo@ 0000000180145a68     libucrt:lcidtoname_downlevel.obj
 0002:0000aa70       ??_C@_15FEDGKCDI@?$AAr?$AAu@ 0000000180145a70     libucrt:lcidtoname_downlevel.obj
 0002:0000aa78       ??_C@_15GLKMLLHM@?$AAh?$AAr@ 0000000180145a78     libucrt:lcidtoname_downlevel.obj
 0002:0000aa80       ??_C@_15CPKMFBDB@?$AAs?$AAk@ 0000000180145a80     libucrt:lcidtoname_downlevel.obj
 0002:0000aa88       ??_C@_15BAAIOGMK@?$AAs?$AAq@ 0000000180145a88     libucrt:lcidtoname_downlevel.obj
 0002:0000aa90       ??_C@_15INNPNOHD@?$AAs?$AAv@ 0000000180145a90     libucrt:lcidtoname_downlevel.obj
 0002:0000aa98       ??_C@_15CABMMOGH@?$AAt?$AAh@ 0000000180145a98     libucrt:lcidtoname_downlevel.obj
 0002:0000aaa0       ??_C@_15BPLIHJJM@?$AAt?$AAr@ 0000000180145aa0     libucrt:lcidtoname_downlevel.obj
 0002:0000aaa8       ??_C@_15NEOEKKDJ@?$AAu?$AAr@ 0000000180145aa8     libucrt:lcidtoname_downlevel.obj
 0002:0000aab0       ??_C@_15NFICGAJK@?$AAi?$AAd@ 0000000180145ab0     libucrt:lcidtoname_downlevel.obj
 0002:0000aab8       ??_C@_15PJPFLCCM@?$AAu?$AAk@ 0000000180145ab8     libucrt:lcidtoname_downlevel.obj
 0002:0000aac0       ??_C@_15HPJPHDM@?$AAb?$AAe@ 0000000180145ac0     libucrt:lcidtoname_downlevel.obj
 0002:0000aac8       ??_C@_15LCHLGJII@?$AAs?$AAl@ 0000000180145ac8     libucrt:lcidtoname_downlevel.obj
 0002:0000aad0       ??_C@_15PCFJPHHO@?$AAe?$AAt@ 0000000180145ad0     libucrt:lcidtoname_downlevel.obj
 0002:0000aad8       ??_C@_15HPFPGODN@?$AAl?$AAv@ 0000000180145ad8     libucrt:lcidtoname_downlevel.obj
 0002:0000aae0       ??_C@_15NFFGKGLG@?$AAl?$AAt@ 0000000180145ae0     libucrt:lcidtoname_downlevel.obj
 0002:0000aae8       ??_C@_15BDAKCCHN@?$AAf?$AAa@ 0000000180145ae8     libucrt:lcidtoname_downlevel.obj
 0002:0000aaf0       ??_C@_15NFGIAIAJ@?$AAv?$AAi@ 0000000180145af0     libucrt:lcidtoname_downlevel.obj
 0002:0000aaf8       ??_C@_15LMKNDMHN@?$AAh?$AAy@ 0000000180145af8     libucrt:lcidtoname_downlevel.obj
 0002:0000ab00       ??_C@_15IJBHMCFL@?$AAa?$AAz@ 0000000180145b00     libucrt:lcidtoname_downlevel.obj
 0002:0000ab08       ??_C@_15EKOFJABL@?$AAe?$AAu@ 0000000180145b08     libucrt:lcidtoname_downlevel.obj
 0002:0000ab10       ??_C@_15BGHADCNK@?$AAm?$AAk@ 0000000180145b10     libucrt:lcidtoname_downlevel.obj
 0002:0000ab18       ??_C@_15JDNICKHM@?$AAa?$AAf@ 0000000180145b18     libucrt:lcidtoname_downlevel.obj
 0002:0000ab20       ??_C@_15KPJEDBKD@?$AAk?$AAa@ 0000000180145b20     libucrt:lcidtoname_downlevel.obj
 0002:0000ab28       ??_C@_15PDNFFFEO@?$AAf?$AAo@ 0000000180145b28     libucrt:lcidtoname_downlevel.obj
 0002:0000ab30       ??_C@_15OMLEGLOC@?$AAh?$AAi@ 0000000180145b30     libucrt:lcidtoname_downlevel.obj
 0002:0000ab38       ??_C@_15IDNNENKK@?$AAm?$AAs@ 0000000180145b38     libucrt:lcidtoname_downlevel.obj
 0002:0000ab40       ??_C@_15MACJNBMH@?$AAk?$AAk@ 0000000180145b40     libucrt:lcidtoname_downlevel.obj
 0002:0000ab48       ??_C@_15DKDJEOND@?$AAk?$AAy@ 0000000180145b48     libucrt:lcidtoname_downlevel.obj
 0002:0000ab50       ??_C@_15DFGDLJBG@?$AAs?$AAw@ 0000000180145b50     libucrt:lcidtoname_downlevel.obj
 0002:0000ab58       ??_C@_15BBFAICNG@?$AAu?$AAz@ 0000000180145b58     libucrt:lcidtoname_downlevel.obj
 0002:0000ab60       ??_C@_15DKNDCGEA@?$AAt?$AAt@ 0000000180145b60     libucrt:lcidtoname_downlevel.obj
 0002:0000ab68       ??_C@_15MGIFMDPL@?$AAp?$AAa@ 0000000180145b68     libucrt:lcidtoname_downlevel.obj
 0002:0000ab70       ??_C@_15HCNDBBA@?$AAg?$AAu@ 0000000180145b70     libucrt:lcidtoname_downlevel.obj
 0002:0000ab78       ??_C@_15FNBEIBON@?$AAt?$AAa@ 0000000180145b78     libucrt:lcidtoname_downlevel.obj
 0002:0000ab80       ??_C@_15NCHGBGLK@?$AAt?$AAe@ 0000000180145b80     libucrt:lcidtoname_downlevel.obj
 0002:0000ab88       ??_C@_15PHPHCBPF@?$AAk?$AAn@ 0000000180145b88     libucrt:lcidtoname_downlevel.obj
 0002:0000ab90       ??_C@_15DLGBCKMP@?$AAm?$AAr@ 0000000180145b90     libucrt:lcidtoname_downlevel.obj
 0002:0000ab98       ??_C@_15EABBLBFF@?$AAs?$AAa@ 0000000180145b98     libucrt:lcidtoname_downlevel.obj
 0002:0000aba0       ??_C@_15CBKOMCOI@?$AAm?$AAn@ 0000000180145ba0     libucrt:lcidtoname_downlevel.obj
 0002:0000aba8       ??_C@_15CKDMCJAF@?$AAg?$AAl@ 0000000180145ba8     libucrt:lcidtoname_downlevel.obj
 0002:0000abb0       ??_C@_17CNJFBPG@?$AAk?$AAo?$AAk@ 0000000180145bb0     libucrt:lcidtoname_downlevel.obj
 0002:0000abb8       ??_C@_17FFBJICPL@?$AAs?$AAy?$AAr@ 0000000180145bb8     libucrt:lcidtoname_downlevel.obj
 0002:0000abc0       ??_C@_17KPNDCPAF@?$AAd?$AAi?$AAv@ 0000000180145bc0     libucrt:lcidtoname_downlevel.obj
 0002:0000abc8       ??_C@_11LOCGONAA@@         0000000180145bc8     libucrt:lcidtoname_downlevel.obj
 0002:0000abd0       ??_C@_1M@OKAHONE@?$AAa?$AAr?$AA?9?$AAS?$AAA@ 0000000180145bd0     libucrt:lcidtoname_downlevel.obj
 0002:0000abe0       ??_C@_1M@FFFIGIGK@?$AAb?$AAg?$AA?9?$AAB?$AAG@ 0000000180145be0     libucrt:lcidtoname_downlevel.obj
 0002:0000abf0       ??_C@_1M@BJNKEDC@?$AAc?$AAa?$AA?9?$AAE?$AAS@ 0000000180145bf0     libucrt:lcidtoname_downlevel.obj
 0002:0000ac00       ??_C@_1M@IJJHFJHA@?$AAc?$AAs?$AA?9?$AAC?$AAZ@ 0000000180145c00     libucrt:lcidtoname_downlevel.obj
 0002:0000ac10       ??_C@_1M@CLPEOBGI@?$AAd?$AAa?$AA?9?$AAD?$AAK@ 0000000180145c10     libucrt:lcidtoname_downlevel.obj
 0002:0000ac20       ??_C@_1M@MCMADGCB@?$AAd?$AAe?$AA?9?$AAD?$AAE@ 0000000180145c20     libucrt:lcidtoname_downlevel.obj
 0002:0000ac30       ??_C@_1M@OOCKEMAM@?$AAe?$AAl?$AA?9?$AAG?$AAR@ 0000000180145c30     libucrt:lcidtoname_downlevel.obj
 0002:0000ac40       ??_C@_1M@DDNJFGID@?$AAf?$AAi?$AA?9?$AAF?$AAI@ 0000000180145c40     libucrt:lcidtoname_downlevel.obj
 0002:0000ac50       ??_C@_1M@GLIPPMAC@?$AAf?$AAr?$AA?9?$AAF?$AAR@ 0000000180145c50     libucrt:lcidtoname_downlevel.obj
 0002:0000ac60       ??_C@_1M@GFMCHPE@?$AAh?$AAe?$AA?9?$AAI?$AAL@ 0000000180145c60     libucrt:lcidtoname_downlevel.obj
 0002:0000ac70       ??_C@_1M@MHLPGNKM@?$AAh?$AAu?$AA?9?$AAH?$AAU@ 0000000180145c70     libucrt:lcidtoname_downlevel.obj
 0002:0000ac80       ??_C@_1M@LPDDNNPN@?$AAi?$AAs?$AA?9?$AAI?$AAS@ 0000000180145c80     libucrt:lcidtoname_downlevel.obj
 0002:0000ac90       ??_C@_1M@MADIPODN@?$AAi?$AAt?$AA?9?$AAI?$AAT@ 0000000180145c90     libucrt:lcidtoname_downlevel.obj
 0002:0000aca0       ??_C@_1M@IHBJJGG@?$AAn?$AAl?$AA?9?$AAN?$AAL@ 0000000180145ca0     libucrt:lcidtoname_downlevel.obj
 0002:0000acb0       ??_C@_1M@EANAGDL@?$AAn?$AAb?$AA?9?$AAN?$AAO@ 0000000180145cb0     libucrt:lcidtoname_downlevel.obj
 0002:0000acc0       ??_C@_1M@NEIEMEGP@?$AAp?$AAl?$AA?9?$AAP?$AAL@ 0000000180145cc0     libucrt:lcidtoname_downlevel.obj
 0002:0000acd0       ??_C@_1M@BOCFIGEP@?$AAp?$AAt?$AA?9?$AAB?$AAR@ 0000000180145cd0     libucrt:lcidtoname_downlevel.obj
 0002:0000ace0       ??_C@_1M@IMPFOPBG@?$AAr?$AAo?$AA?9?$AAR?$AAO@ 0000000180145ce0     libucrt:lcidtoname_downlevel.obj
 0002:0000acf0       ??_C@_1M@IDNNEJMM@?$AAr?$AAu?$AA?9?$AAR?$AAU@ 0000000180145cf0     libucrt:lcidtoname_downlevel.obj
 0002:0000ad00       ??_C@_1M@LILEEOGM@?$AAh?$AAr?$AA?9?$AAH?$AAR@ 0000000180145d00     libucrt:lcidtoname_downlevel.obj
 0002:0000ad10       ??_C@_1M@FKIFEHPB@?$AAs?$AAk?$AA?9?$AAS?$AAK@ 0000000180145d10     libucrt:lcidtoname_downlevel.obj
 0002:0000ad20       ??_C@_1M@LJMAMNPJ@?$AAs?$AAq?$AA?9?$AAA?$AAL@ 0000000180145d20     libucrt:lcidtoname_downlevel.obj
 0002:0000ad30       ??_C@_1M@GIAKDKJK@?$AAs?$AAv?$AA?9?$AAS?$AAE@ 0000000180145d30     libucrt:lcidtoname_downlevel.obj
 0002:0000ad40       ??_C@_1M@MKJKIKCL@?$AAt?$AAh?$AA?9?$AAT?$AAH@ 0000000180145d40     libucrt:lcidtoname_downlevel.obj
 0002:0000ad50       ??_C@_1M@MFLCCMPB@?$AAt?$AAr?$AA?9?$AAT?$AAR@ 0000000180145d50     libucrt:lcidtoname_downlevel.obj
 0002:0000ad60       ??_C@_1M@OIJHDKJN@?$AAu?$AAr?$AA?9?$AAP?$AAK@ 0000000180145d60     libucrt:lcidtoname_downlevel.obj
 0002:0000ad70       ??_C@_1M@LHIPCIEK@?$AAi?$AAd?$AA?9?$AAI?$AAD@ 0000000180145d70     libucrt:lcidtoname_downlevel.obj
 0002:0000ad80       ??_C@_1M@MFMOBGI@?$AAu?$AAk?$AA?9?$AAU?$AAA@ 0000000180145d80     libucrt:lcidtoname_downlevel.obj
 0002:0000ad90       ??_C@_1M@OBGLJIPL@?$AAb?$AAe?$AA?9?$AAB?$AAY@ 0000000180145d90     libucrt:lcidtoname_downlevel.obj
 0002:0000ada0       ??_C@_1M@BCFAJEAD@?$AAs?$AAl?$AA?9?$AAS?$AAI@ 0000000180145da0     libucrt:lcidtoname_downlevel.obj
 0002:0000adb0       ??_C@_1M@FKFFEDDN@?$AAe?$AAt?$AA?9?$AAE?$AAE@ 0000000180145db0     libucrt:lcidtoname_downlevel.obj
 0002:0000adc0       ??_C@_1M@KGKKAACI@?$AAl?$AAv?$AA?9?$AAL?$AAV@ 0000000180145dc0     libucrt:lcidtoname_downlevel.obj
 0002:0000add0       ??_C@_1M@IFGBIJO@?$AAl?$AAt?$AA?9?$AAL?$AAT@ 0000000180145dd0     libucrt:lcidtoname_downlevel.obj
 0002:0000ade0       ??_C@_1M@FGEAHEDM@?$AAf?$AAa?$AA?9?$AAI?$AAR@ 0000000180145de0     libucrt:lcidtoname_downlevel.obj
 0002:0000adf0       ??_C@_1M@KBMAIBFN@?$AAv?$AAi?$AA?9?$AAV?$AAN@ 0000000180145df0     libucrt:lcidtoname_downlevel.obj
 0002:0000ae00       ??_C@_1M@GPCBKDJK@?$AAh?$AAy?$AA?9?$AAA?$AAM@ 0000000180145e00     libucrt:lcidtoname_downlevel.obj
 0002:0000ae10       ??_C@_1BG@BECMDDJB@?$AAa?$AAz?$AA?9?$AAA?$AAZ?$AA?9?$AAL?$AAa?$AAt?$AAn@ 0000000180145e10     libucrt:lcidtoname_downlevel.obj
 0002:0000ae28       ??_C@_1M@MAOFCAEA@?$AAe?$AAu?$AA?9?$AAE?$AAS@ 0000000180145e28     libucrt:lcidtoname_downlevel.obj
 0002:0000ae38       ??_C@_1M@IGHABKPI@?$AAm?$AAk?$AA?9?$AAM?$AAK@ 0000000180145e38     libucrt:lcidtoname_downlevel.obj
 0002:0000ae48       ??_C@_1M@IAIGNEJG@?$AAt?$AAn?$AA?9?$AAZ?$AAA@ 0000000180145e48     libucrt:lcidtoname_downlevel.obj
 0002:0000ae58       ??_C@_1M@IIJCOJFA@?$AAx?$AAh?$AA?9?$AAZ?$AAA@ 0000000180145e58     libucrt:lcidtoname_downlevel.obj
 0002:0000ae68       ??_C@_1M@LGPJHNJH@?$AAz?$AAu?$AA?9?$AAZ?$AAA@ 0000000180145e68     libucrt:lcidtoname_downlevel.obj
 0002:0000ae78       ??_C@_1M@HOKAOIO@?$AAa?$AAf?$AA?9?$AAZ?$AAA@ 0000000180145e78     libucrt:lcidtoname_downlevel.obj
 0002:0000ae88       ??_C@_1M@DPCLHLIE@?$AAk?$AAa?$AA?9?$AAG?$AAE@ 0000000180145e88     libucrt:lcidtoname_downlevel.obj
 0002:0000ae98       ??_C@_1M@BLKMHJBI@?$AAf?$AAo?$AA?9?$AAF?$AAO@ 0000000180145e98     libucrt:lcidtoname_downlevel.obj
 0002:0000aea8       ??_C@_1M@LGGJAPPB@?$AAh?$AAi?$AA?9?$AAI?$AAN@ 0000000180145ea8     libucrt:lcidtoname_downlevel.obj
 0002:0000aeb8       ??_C@_1M@FIKPIHFE@?$AAm?$AAt?$AA?9?$AAM?$AAT@ 0000000180145eb8     libucrt:lcidtoname_downlevel.obj
 0002:0000aec8       ??_C@_1M@HEGGPBFA@?$AAs?$AAe?$AA?9?$AAN?$AAO@ 0000000180145ec8     libucrt:lcidtoname_downlevel.obj
 0002:0000aed8       ??_C@_1M@EIBJEEPA@?$AAm?$AAs?$AA?9?$AAM?$AAY@ 0000000180145ed8     libucrt:lcidtoname_downlevel.obj
 0002:0000aee8       ??_C@_1M@FHLBGMPP@?$AAk?$AAk?$AA?9?$AAK?$AAZ@ 0000000180145ee8     libucrt:lcidtoname_downlevel.obj
 0002:0000aef8       ??_C@_1M@NGJJLCGI@?$AAk?$AAy?$AA?9?$AAK?$AAG@ 0000000180145ef8     libucrt:lcidtoname_downlevel.obj
 0002:0000af08       ??_C@_1M@GIENNBFC@?$AAs?$AAw?$AA?9?$AAK?$AAE@ 0000000180145f08     libucrt:lcidtoname_downlevel.obj
 0002:0000af18       ??_C@_1BG@NDGMJIMJ@?$AAu?$AAz?$AA?9?$AAU?$AAZ?$AA?9?$AAL?$AAa?$AAt?$AAn@ 0000000180145f18     libucrt:lcidtoname_downlevel.obj
 0002:0000af30       ??_C@_1M@IDCCIHBC@?$AAt?$AAt?$AA?9?$AAR?$AAU@ 0000000180145f30     libucrt:lcidtoname_downlevel.obj
 0002:0000af40       ??_C@_1M@LOICPMOJ@?$AAb?$AAn?$AA?9?$AAI?$AAN@ 0000000180145f40     libucrt:lcidtoname_downlevel.obj
 0002:0000af50       ??_C@_1M@KPKKNEAH@?$AAp?$AAa?$AA?9?$AAI?$AAN@ 0000000180145f50     libucrt:lcidtoname_downlevel.obj
 0002:0000af60       ??_C@_1M@PJGPPBOG@?$AAg?$AAu?$AA?9?$AAI?$AAN@ 0000000180145f60     libucrt:lcidtoname_downlevel.obj
 0002:0000af70       ??_C@_1M@KMKMOPHI@?$AAt?$AAa?$AA?9?$AAI?$AAN@ 0000000180145f70     libucrt:lcidtoname_downlevel.obj
 0002:0000af80       ??_C@_1M@KFEHEPAC@?$AAt?$AAe?$AA?9?$AAI?$AAN@ 0000000180145f80     libucrt:lcidtoname_downlevel.obj
 0002:0000af90       ??_C@_1M@CDCLMGHI@?$AAk?$AAn?$AA?9?$AAI?$AAN@ 0000000180145f90     libucrt:lcidtoname_downlevel.obj
 0002:0000afa0       ??_C@_1M@MIODLDKF@?$AAm?$AAl?$AA?9?$AAI?$AAN@ 0000000180145fa0     libucrt:lcidtoname_downlevel.obj
 0002:0000afb0       ??_C@_1M@PBIEACPO@?$AAm?$AAr?$AA?9?$AAI?$AAN@ 0000000180145fb0     libucrt:lcidtoname_downlevel.obj
 0002:0000afc0       ??_C@_1M@NIDEAGPH@?$AAs?$AAa?$AA?9?$AAI?$AAN@ 0000000180145fc0     libucrt:lcidtoname_downlevel.obj
 0002:0000afd0       ??_C@_1M@FHIHCBIO@?$AAm?$AAn?$AA?9?$AAM?$AAN@ 0000000180145fd0     libucrt:lcidtoname_downlevel.obj
 0002:0000afe0       ??_C@_1M@JAIJPENP@?$AAc?$AAy?$AA?9?$AAG?$AAB@ 0000000180145fe0     libucrt:lcidtoname_downlevel.obj
 0002:0000aff0       ??_C@_1M@PHGFBEPN@?$AAg?$AAl?$AA?9?$AAE?$AAS@ 0000000180145ff0     libucrt:lcidtoname_downlevel.obj
 0002:0000b000       ??_C@_1O@KPIPDNCP@?$AAk?$AAo?$AAk?$AA?9?$AAI?$AAN@ 0000000180146000     libucrt:lcidtoname_downlevel.obj
 0002:0000b010       ??_C@_1O@KNHJLDJA@?$AAs?$AAy?$AAr?$AA?9?$AAS?$AAY@ 0000000180146010     libucrt:lcidtoname_downlevel.obj
 0002:0000b020       ??_C@_1O@MKEKBLAH@?$AAd?$AAi?$AAv?$AA?9?$AAM?$AAV@ 0000000180146020     libucrt:lcidtoname_downlevel.obj
 0002:0000b030       ??_C@_1O@OHDCKDDF@?$AAq?$AAu?$AAz?$AA?9?$AAB?$AAO@ 0000000180146030     libucrt:lcidtoname_downlevel.obj
 0002:0000b040       ??_C@_1M@LEPJNLFD@?$AAn?$AAs?$AA?9?$AAZ?$AAA@ 0000000180146040     libucrt:lcidtoname_downlevel.obj
 0002:0000b050       ??_C@_1M@OMLEIIJB@?$AAm?$AAi?$AA?9?$AAN?$AAZ@ 0000000180146050     libucrt:lcidtoname_downlevel.obj
 0002:0000b060       ??_C@_1M@PMPEAILG@?$AAa?$AAr?$AA?9?$AAI?$AAQ@ 0000000180146060     libucrt:lcidtoname_downlevel.obj
 0002:0000b070       ??_C@_1M@CNKPNOEE@?$AAd?$AAe?$AA?9?$AAC?$AAH@ 0000000180146070     libucrt:lcidtoname_downlevel.obj
 0002:0000b080       ??_C@_1M@LKMGMLKO@?$AAe?$AAn?$AA?9?$AAG?$AAB@ 0000000180146080     libucrt:lcidtoname_downlevel.obj
 0002:0000b090       ??_C@_1M@PGKJFFGL@?$AAe?$AAs?$AA?9?$AAM?$AAX@ 0000000180146090     libucrt:lcidtoname_downlevel.obj
 0002:0000b0a0       ??_C@_1M@DNNANBDC@?$AAf?$AAr?$AA?9?$AAB?$AAE@ 00000001801460a0     libucrt:lcidtoname_downlevel.obj
 0002:0000b0b0       ??_C@_1M@HLGMDFHM@?$AAi?$AAt?$AA?9?$AAC?$AAH@ 00000001801460b0     libucrt:lcidtoname_downlevel.obj
 0002:0000b0c0       ??_C@_1M@CLLBGJH@?$AAn?$AAl?$AA?9?$AAB?$AAE@ 00000001801460c0     libucrt:lcidtoname_downlevel.obj
 0002:0000b0d0       ??_C@_1M@BODBOGLF@?$AAn?$AAn?$AA?9?$AAN?$AAO@ 00000001801460d0     libucrt:lcidtoname_downlevel.obj
 0002:0000b0e0       ??_C@_1M@HFFAHKAD@?$AAp?$AAt?$AA?9?$AAP?$AAT@ 00000001801460e0     libucrt:lcidtoname_downlevel.obj
 0002:0000b0f0       ??_C@_1BG@LNOAKHIE@?$AAs?$AAr?$AA?9?$AAS?$AAP?$AA?9?$AAL?$AAa?$AAt?$AAn@ 00000001801460f0     libucrt:lcidtoname_downlevel.obj
 0002:0000b108       ??_C@_1M@HBMHBGAK@?$AAs?$AAv?$AA?9?$AAF?$AAI@ 0000000180146108     libucrt:lcidtoname_downlevel.obj
 0002:0000b118       ??_C@_1BG@DGCJGJBE@?$AAa?$AAz?$AA?9?$AAA?$AAZ?$AA?9?$AAC?$AAy?$AAr?$AAl@ 0000000180146118     libucrt:lcidtoname_downlevel.obj
 0002:0000b130       ??_C@_1M@KEJDAAHB@?$AAs?$AAe?$AA?9?$AAS?$AAE@ 0000000180146130     libucrt:lcidtoname_downlevel.obj
 0002:0000b140       ??_C@_1M@HEIBJJAD@?$AAm?$AAs?$AA?9?$AAB?$AAN@ 0000000180146140     libucrt:lcidtoname_downlevel.obj
 0002:0000b150       ??_C@_1BG@PBGJMCEM@?$AAu?$AAz?$AA?9?$AAU?$AAZ?$AA?9?$AAC?$AAy?$AAr?$AAl@ 0000000180146150     libucrt:lcidtoname_downlevel.obj
 0002:0000b168       ??_C@_1O@LAOBCMDF@?$AAq?$AAu?$AAz?$AA?9?$AAE?$AAC@ 0000000180146168     libucrt:lcidtoname_downlevel.obj
 0002:0000b178       ??_C@_1M@POEEMAIO@?$AAa?$AAr?$AA?9?$AAE?$AAG@ 0000000180146178     libucrt:lcidtoname_downlevel.obj
 0002:0000b188       ??_C@_1M@EFAKDEDL@?$AAz?$AAh?$AA?9?$AAH?$AAK@ 0000000180146188     libucrt:lcidtoname_downlevel.obj
 0002:0000b198       ??_C@_1M@HKKIJHGI@?$AAd?$AAe?$AA?9?$AAA?$AAT@ 0000000180146198     libucrt:lcidtoname_downlevel.obj
 0002:0000b1a8       ??_C@_1M@KBFBEHJF@?$AAe?$AAn?$AA?9?$AAA?$AAU@ 00000001801461a8     libucrt:lcidtoname_downlevel.obj
 0002:0000b1b8       ??_C@_1M@MNPLFAAH@?$AAe?$AAs?$AA?9?$AAE?$AAS@ 00000001801461b8     libucrt:lcidtoname_downlevel.obj
 0002:0000b1c8       ??_C@_1M@HJOOJFMA@?$AAf?$AAr?$AA?9?$AAC?$AAA@ 00000001801461c8     libucrt:lcidtoname_downlevel.obj
 0002:0000b1d8       ??_C@_1BG@JPOFPNAB@?$AAs?$AAr?$AA?9?$AAS?$AAP?$AA?9?$AAC?$AAy?$AAr?$AAl@ 00000001801461d8     libucrt:lcidtoname_downlevel.obj
 0002:0000b1f0       ??_C@_1M@LNFOCMOB@?$AAs?$AAe?$AA?9?$AAF?$AAI@ 00000001801461f0     libucrt:lcidtoname_downlevel.obj
 0002:0000b200       ??_C@_1O@MGJBOAMB@?$AAq?$AAu?$AAz?$AA?9?$AAP?$AAE@ 0000000180146200     libucrt:lcidtoname_downlevel.obj
 0002:0000b210       ??_C@_1M@GJINLBOK@?$AAa?$AAr?$AA?9?$AAL?$AAY@ 0000000180146210     libucrt:lcidtoname_downlevel.obj
 0002:0000b220       ??_C@_1M@GGMNHJNL@?$AAz?$AAh?$AA?9?$AAS?$AAG@ 0000000180146220     libucrt:lcidtoname_downlevel.obj
 0002:0000b230       ??_C@_1M@HOIKODND@?$AAd?$AAe?$AA?9?$AAL?$AAU@ 0000000180146230     libucrt:lcidtoname_downlevel.obj
 0002:0000b240       ??_C@_1M@DDOCCGFG@?$AAe?$AAn?$AA?9?$AAC?$AAA@ 0000000180146240     libucrt:lcidtoname_downlevel.obj
 0002:0000b250       ??_C@_1M@BNOEMJLF@?$AAe?$AAs?$AA?9?$AAG?$AAT@ 0000000180146250     libucrt:lcidtoname_downlevel.obj
 0002:0000b260       ??_C@_1M@EOGNKEK@?$AAf?$AAr?$AA?9?$AAC?$AAH@ 0000000180146260     libucrt:lcidtoname_downlevel.obj
 0002:0000b270       ??_C@_1M@FLIDJFHL@?$AAh?$AAr?$AA?9?$AAB?$AAA@ 0000000180146270     libucrt:lcidtoname_downlevel.obj
 0002:0000b280       ??_C@_1O@FMCELNAJ@?$AAs?$AAm?$AAj?$AA?9?$AAN?$AAO@ 0000000180146280     libucrt:lcidtoname_downlevel.obj
 0002:0000b290       ??_C@_1M@JHGLJMGJ@?$AAa?$AAr?$AA?9?$AAD?$AAZ@ 0000000180146290     libucrt:lcidtoname_downlevel.obj
 0002:0000b2a0       ??_C@_1M@JKKFDCNP@?$AAz?$AAh?$AA?9?$AAM?$AAO@ 00000001801462a0     libucrt:lcidtoname_downlevel.obj
 0002:0000b2b0       ??_C@_1M@GEEFALPE@?$AAd?$AAe?$AA?9?$AAL?$AAI@ 00000001801462b0     libucrt:lcidtoname_downlevel.obj
 0002:0000b2c0       ??_C@_1M@IGEOFBG@?$AAe?$AAn?$AA?9?$AAN?$AAZ@ 00000001801462c0     libucrt:lcidtoname_downlevel.obj
 0002:0000b2d0       ??_C@_1M@KDBONEHP@?$AAe?$AAs?$AA?9?$AAC?$AAR@ 00000001801462d0     libucrt:lcidtoname_downlevel.obj
 0002:0000b2e0       ??_C@_1M@FHMDOHNN@?$AAf?$AAr?$AA?9?$AAL?$AAU@ 00000001801462e0     libucrt:lcidtoname_downlevel.obj
 0002:0000b2f0       ??_C@_1BG@NFKKMAFG@?$AAb?$AAs?$AA?9?$AAB?$AAA?$AA?9?$AAL?$AAa?$AAt?$AAn@ 00000001801462f0     libucrt:lcidtoname_downlevel.obj
 0002:0000b308       ??_C@_1O@IMNBEMCI@?$AAs?$AAm?$AAj?$AA?9?$AAS?$AAE@ 0000000180146308     libucrt:lcidtoname_downlevel.obj
 0002:0000b318       ??_C@_1M@DHHMBNDP@?$AAa?$AAr?$AA?9?$AAM?$AAA@ 0000000180146318     libucrt:lcidtoname_downlevel.obj
 0002:0000b328       ??_C@_1M@BNBLJCGH@?$AAe?$AAn?$AA?9?$AAI?$AAE@ 0000000180146328     libucrt:lcidtoname_downlevel.obj
 0002:0000b338       ??_C@_1M@GEPAFMDL@?$AAe?$AAs?$AA?9?$AAP?$AAA@ 0000000180146338     libucrt:lcidtoname_downlevel.obj
 0002:0000b348       ??_C@_1M@OJONDMDL@?$AAf?$AAr?$AA?9?$AAM?$AAC@ 0000000180146348     libucrt:lcidtoname_downlevel.obj
 0002:0000b358       ??_C@_1BG@OBCNFJB@?$AAs?$AAr?$AA?9?$AAB?$AAA?$AA?9?$AAL?$AAa?$AAt?$AAn@ 0000000180146358     libucrt:lcidtoname_downlevel.obj
 0002:0000b370       ??_C@_1O@KEMEEGPO@?$AAs?$AAm?$AAa?$AA?9?$AAN?$AAO@ 0000000180146370     libucrt:lcidtoname_downlevel.obj
 0002:0000b380       ??_C@_1M@ELMGFODK@?$AAa?$AAr?$AA?9?$AAT?$AAN@ 0000000180146380     libucrt:lcidtoname_downlevel.obj
 0002:0000b390       ??_C@_1M@BHDLHFAF@?$AAe?$AAn?$AA?9?$AAZ?$AAA@ 0000000180146390     libucrt:lcidtoname_downlevel.obj
 0002:0000b3a0       ??_C@_1M@BMGIGLIF@?$AAe?$AAs?$AA?9?$AAD?$AAO@ 00000001801463a0     libucrt:lcidtoname_downlevel.obj
 0002:0000b3b0       ??_C@_1BG@CMBHIPBE@?$AAs?$AAr?$AA?9?$AAB?$AAA?$AA?9?$AAC?$AAy?$AAr?$AAl@ 00000001801463b0     libucrt:lcidtoname_downlevel.obj
 0002:0000b3c8       ??_C@_1O@HEDBLHNP@?$AAs?$AAm?$AAa?$AA?9?$AAS?$AAE@ 00000001801463c8     libucrt:lcidtoname_downlevel.obj
 0002:0000b3d8       ??_C@_1M@DAGCADIM@?$AAa?$AAr?$AA?9?$AAO?$AAM@ 00000001801463d8     libucrt:lcidtoname_downlevel.obj
 0002:0000b3e8       ??_C@_1M@FODLMICG@?$AAe?$AAn?$AA?9?$AAJ?$AAM@ 00000001801463e8     libucrt:lcidtoname_downlevel.obj
 0002:0000b3f8       ??_C@_1M@DNMLCIHB@?$AAe?$AAs?$AA?9?$AAV?$AAE@ 00000001801463f8     libucrt:lcidtoname_downlevel.obj
 0002:0000b408       ??_C@_1O@EOKHMKJK@?$AAs?$AAm?$AAs?$AA?9?$AAF?$AAI@ 0000000180146408     libucrt:lcidtoname_downlevel.obj
 0002:0000b418       ??_C@_1M@CAFJMKOF@?$AAa?$AAr?$AA?9?$AAY?$AAE@ 0000000180146418     libucrt:lcidtoname_downlevel.obj
 0002:0000b428       ??_C@_1M@CBFHIJLI@?$AAe?$AAn?$AA?9?$AAC?$AAB@ 0000000180146428     libucrt:lcidtoname_downlevel.obj
 0002:0000b438       ??_C@_1M@BGNFLDN@?$AAe?$AAs?$AA?9?$AAC?$AAO@ 0000000180146438     libucrt:lcidtoname_downlevel.obj
 0002:0000b448       ??_C@_1O@JMPHMAMC@?$AAs?$AAm?$AAn?$AA?9?$AAF?$AAI@ 0000000180146448     libucrt:lcidtoname_downlevel.obj
 0002:0000b458       ??_C@_1M@JLANABKE@?$AAa?$AAr?$AA?9?$AAS?$AAY@ 0000000180146458     libucrt:lcidtoname_downlevel.obj
 0002:0000b468       ??_C@_1M@HPKGCFGN@?$AAe?$AAn?$AA?9?$AAB?$AAZ@ 0000000180146468     libucrt:lcidtoname_downlevel.obj
 0002:0000b478       ??_C@_1M@OLJCMLGM@?$AAe?$AAs?$AA?9?$AAP?$AAE@ 0000000180146478     libucrt:lcidtoname_downlevel.obj
 0002:0000b488       ??_C@_1M@MKKGFKLE@?$AAa?$AAr?$AA?9?$AAJ?$AAO@ 0000000180146488     libucrt:lcidtoname_downlevel.obj
 0002:0000b498       ??_C@_1M@EKPGLDNI@?$AAe?$AAn?$AA?9?$AAT?$AAT@ 0000000180146498     libucrt:lcidtoname_downlevel.obj
 0002:0000b4a8       ??_C@_1M@OONGHFHE@?$AAe?$AAs?$AA?9?$AAA?$AAR@ 00000001801464a8     libucrt:lcidtoname_downlevel.obj
 0002:0000b4b8       ??_C@_1M@OOJFGBHE@?$AAa?$AAr?$AA?9?$AAL?$AAB@ 00000001801464b8     libucrt:lcidtoname_downlevel.obj
 0002:0000b4c8       ??_C@_1M@GCEJHNEG@?$AAe?$AAn?$AA?9?$AAZ?$AAW@ 00000001801464c8     libucrt:lcidtoname_downlevel.obj
 0002:0000b4d8       ??_C@_1M@JNOCAHJI@?$AAe?$AAs?$AA?9?$AAE?$AAC@ 00000001801464d8     libucrt:lcidtoname_downlevel.obj
 0002:0000b4e8       ??_C@_1M@JEFHPGGB@?$AAa?$AAr?$AA?9?$AAK?$AAW@ 00000001801464e8     libucrt:lcidtoname_downlevel.obj
 0002:0000b4f8       ??_C@_1M@MLKIBJOJ@?$AAe?$AAn?$AA?9?$AAP?$AAH@ 00000001801464f8     libucrt:lcidtoname_downlevel.obj
 0002:0000b508       ??_C@_1M@BDNIPEND@?$AAe?$AAs?$AA?9?$AAC?$AAL@ 0000000180146508     libucrt:lcidtoname_downlevel.obj
 0002:0000b518       ??_C@_1M@MPNMEKBD@?$AAa?$AAr?$AA?9?$AAA?$AAE@ 0000000180146518     libucrt:lcidtoname_downlevel.obj
 0002:0000b528       ??_C@_1M@KBJALCPI@?$AAe?$AAs?$AA?9?$AAU?$AAY@ 0000000180146528     libucrt:lcidtoname_downlevel.obj
 0002:0000b538       ??_C@_1M@LLCCOAGA@?$AAa?$AAr?$AA?9?$AAB?$AAH@ 0000000180146538     libucrt:lcidtoname_downlevel.obj
 0002:0000b548       ??_C@_1M@PBFNCDEL@?$AAe?$AAs?$AA?9?$AAP?$AAY@ 0000000180146548     libucrt:lcidtoname_downlevel.obj
 0002:0000b558       ??_C@_1M@EDGINPNP@?$AAa?$AAr?$AA?9?$AAQ?$AAA@ 0000000180146558     libucrt:lcidtoname_downlevel.obj
 0002:0000b568       ??_C@_1M@MKDBIIJI@?$AAe?$AAs?$AA?9?$AAB?$AAO@ 0000000180146568     libucrt:lcidtoname_downlevel.obj
 0002:0000b578       ??_C@_1M@CPKKEBLD@?$AAe?$AAs?$AA?9?$AAS?$AAV@ 0000000180146578     libucrt:lcidtoname_downlevel.obj
 0002:0000b588       ??_C@_1M@NDBGMMJL@?$AAe?$AAs?$AA?9?$AAH?$AAN@ 0000000180146588     libucrt:lcidtoname_downlevel.obj
 0002:0000b598       ??_C@_1M@JIJIBHDP@?$AAe?$AAs?$AA?9?$AAN?$AAI@ 0000000180146598     libucrt:lcidtoname_downlevel.obj
 0002:0000b5a8       ??_C@_1M@CGFMKEEK@?$AAe?$AAs?$AA?9?$AAP?$AAR@ 00000001801465a8     libucrt:lcidtoname_downlevel.obj
 0002:0000b5b8       ??_C@_1O@ICJHKIIK@?$AAz?$AAh?$AA?9?$AAC?$AAH?$AAT@ 00000001801465b8     libucrt:lcidtoname_downlevel.obj
 0002:0000b5c8       ??_C@_15CLNEJCE@?$AAs?$AAr@ 00000001801465c8     libucrt:lcidtoname_downlevel.obj
 0002:0000c410       ??_C@_1M@KAHEKEIG@?$AAa?$AAf?$AA?9?$AAz?$AAa@ 0000000180147410     libucrt:lcidtoname_downlevel.obj
 0002:0000c420       ??_C@_1M@GIECOABL@?$AAa?$AAr?$AA?9?$AAa?$AAe@ 0000000180147420     libucrt:lcidtoname_downlevel.obj
 0002:0000c430       ??_C@_1M@BMLMEKGI@?$AAa?$AAr?$AA?9?$AAb?$AAh@ 0000000180147430     libucrt:lcidtoname_downlevel.obj
 0002:0000c440       ??_C@_1M@DAPFDGGB@?$AAa?$AAr?$AA?9?$AAd?$AAz@ 0000000180147440     libucrt:lcidtoname_downlevel.obj
 0002:0000c450       ??_C@_1M@FJNKGKIG@?$AAa?$AAr?$AA?9?$AAe?$AAg@ 0000000180147450     libucrt:lcidtoname_downlevel.obj
 0002:0000c460       ??_C@_1M@FLGKKCLO@?$AAa?$AAr?$AA?9?$AAi?$AAq@ 0000000180147460     libucrt:lcidtoname_downlevel.obj
 0002:0000c470       ??_C@_1M@GNDIPALM@?$AAa?$AAr?$AA?9?$AAj?$AAo@ 0000000180147470     libucrt:lcidtoname_downlevel.obj
 0002:0000c480       ??_C@_1M@DDMJFMGJ@?$AAa?$AAr?$AA?9?$AAk?$AAw@ 0000000180147480     libucrt:lcidtoname_downlevel.obj
 0002:0000c490       ??_C@_1M@EJALMLHM@?$AAa?$AAr?$AA?9?$AAl?$AAb@ 0000000180147490     libucrt:lcidtoname_downlevel.obj
 0002:0000c4a0       ??_C@_1M@MOBDBLOC@?$AAa?$AAr?$AA?9?$AAl?$AAy@ 00000001801474a0     libucrt:lcidtoname_downlevel.obj
 0002:0000c4b0       ??_C@_1M@JAOCLHDH@?$AAa?$AAr?$AA?9?$AAm?$AAa@ 00000001801474b0     libucrt:lcidtoname_downlevel.obj
 0002:0000c4c0       ??_C@_1M@JHPMKJIE@?$AAa?$AAr?$AA?9?$AAo?$AAm@ 00000001801474c0     libucrt:lcidtoname_downlevel.obj
 0002:0000c4d0       ??_C@_1M@OEPGHFNH@?$AAa?$AAr?$AA?9?$AAq?$AAa@ 00000001801474d0     libucrt:lcidtoname_downlevel.obj
 0002:0000c4e0       ??_C@_1M@KJDONENM@?$AAa?$AAr?$AA?9?$AAs?$AAa@ 00000001801474e0     libucrt:lcidtoname_downlevel.obj
 0002:0000c4f0       ??_C@_1M@DMJDKLKM@?$AAa?$AAr?$AA?9?$AAs?$AAy@ 00000001801474f0     libucrt:lcidtoname_downlevel.obj
 0002:0000c500       ??_C@_1M@OMFIPEDC@?$AAa?$AAr?$AA?9?$AAt?$AAn@ 0000000180147500     libucrt:lcidtoname_downlevel.obj
 0002:0000c510       ??_C@_1M@IHMHGAON@?$AAa?$AAr?$AA?9?$AAy?$AAe@ 0000000180147510     libucrt:lcidtoname_downlevel.obj
 0002:0000c520       ??_C@_1BG@KDCPGJGB@?$AAa?$AAz?$AA?9?$AAa?$AAz?$AA?9?$AAc?$AAy?$AAr?$AAl@ 0000000180147520     libucrt:lcidtoname_downlevel.obj
 0002:0000c538       ??_C@_1BG@IBCKDDOE@?$AAa?$AAz?$AA?9?$AAa?$AAz?$AA?9?$AAl?$AAa?$AAt?$AAn@ 0000000180147538     libucrt:lcidtoname_downlevel.obj
 0002:0000c550       ??_C@_1M@EGPFDCPD@?$AAb?$AAe?$AA?9?$AAb?$AAy@ 0000000180147550     libucrt:lcidtoname_downlevel.obj
 0002:0000c560       ??_C@_1M@PCMGMCGC@?$AAb?$AAg?$AA?9?$AAb?$AAg@ 0000000180147560     libucrt:lcidtoname_downlevel.obj
 0002:0000c570       ??_C@_1M@BJBMFGOB@?$AAb?$AAn?$AA?9?$AAi?$AAn@ 0000000180147570     libucrt:lcidtoname_downlevel.obj
 0002:0000c580       ??_C@_1BG@EAKMMACD@?$AAb?$AAs?$AA?9?$AAb?$AAa?$AA?9?$AAl?$AAa?$AAt?$AAn@ 0000000180147580     libucrt:lcidtoname_downlevel.obj
 0002:0000c598       ??_C@_1M@KGADAODK@?$AAc?$AAa?$AA?9?$AAe?$AAs@ 0000000180147598     libucrt:lcidtoname_downlevel.obj
 0002:0000c5a8       ??_C@_1M@COAJPDHI@?$AAc?$AAs?$AA?9?$AAc?$AAz@ 00000001801475a8     libucrt:lcidtoname_downlevel.obj
 0002:0000c5b8       ??_C@_1M@DHBHFONH@?$AAc?$AAy?$AA?9?$AAg?$AAb@ 00000001801475b8     libucrt:lcidtoname_downlevel.obj
 0002:0000c5c8       ??_C@_1M@IMGKELGA@?$AAd?$AAa?$AA?9?$AAd?$AAk@ 00000001801475c8     libucrt:lcidtoname_downlevel.obj
 0002:0000c5d8       ??_C@_1M@NNDGDNGA@?$AAd?$AAe?$AA?9?$AAa?$AAt@ 00000001801475d8     libucrt:lcidtoname_downlevel.obj
 0002:0000c5e8       ??_C@_1M@IKDBHEEM@?$AAd?$AAe?$AA?9?$AAc?$AAh@ 00000001801475e8     libucrt:lcidtoname_downlevel.obj
 0002:0000c5f8       ??_C@_1M@GFFOJMCJ@?$AAd?$AAe?$AA?9?$AAd?$AAe@ 00000001801475f8     libucrt:lcidtoname_downlevel.obj
 0002:0000c608       ??_C@_1M@MDNLKBPM@?$AAd?$AAe?$AA?9?$AAl?$AAi@ 0000000180147608     libucrt:lcidtoname_downlevel.obj
 0002:0000c618       ??_C@_1M@NJBEEJNL@?$AAd?$AAe?$AA?9?$AAl?$AAu@ 0000000180147618     libucrt:lcidtoname_downlevel.obj
 0002:0000c628       ??_C@_1O@GNNELBAP@?$AAd?$AAi?$AAv?$AA?9?$AAm?$AAv@ 0000000180147628     libucrt:lcidtoname_downlevel.obj
 0002:0000c638       ??_C@_1M@EJLEOGAE@?$AAe?$AAl?$AA?9?$AAg?$AAr@ 0000000180147638     libucrt:lcidtoname_downlevel.obj
 0002:0000c648       ??_C@_1M@GMPONJN@?$AAe?$AAn?$AA?9?$AAa?$AAu@ 0000000180147648     libucrt:lcidtoname_downlevel.obj
 0002:0000c658       ??_C@_1M@NIDIIPGF@?$AAe?$AAn?$AA?9?$AAb?$AAz@ 0000000180147658     libucrt:lcidtoname_downlevel.obj
 0002:0000c668       ??_C@_1M@JEHMIMFO@?$AAe?$AAn?$AA?9?$AAc?$AAa@ 0000000180147668     libucrt:lcidtoname_downlevel.obj
 0002:0000c678       ??_C@_1M@IGMJCDLA@?$AAe?$AAn?$AA?9?$AAc?$AAb@ 0000000180147678     libucrt:lcidtoname_downlevel.obj
 0002:0000c688       ??_C@_1M@BNFIGBKG@?$AAe?$AAn?$AA?9?$AAg?$AAb@ 0000000180147688     libucrt:lcidtoname_downlevel.obj
 0002:0000c698       ??_C@_1M@LKIFDIGP@?$AAe?$AAn?$AA?9?$AAi?$AAe@ 0000000180147698     libucrt:lcidtoname_downlevel.obj
 0002:0000c6a8       ??_C@_1M@PJKFGCCO@?$AAe?$AAn?$AA?9?$AAj?$AAm@ 00000001801476a8     libucrt:lcidtoname_downlevel.obj
 0002:0000c6b8       ??_C@_1M@KPPKEPBO@?$AAe?$AAn?$AA?9?$AAn?$AAz@ 00000001801476b8     libucrt:lcidtoname_downlevel.obj
 0002:0000c6c8       ??_C@_1M@GMDGLDOB@?$AAe?$AAn?$AA?9?$AAp?$AAh@ 00000001801476c8     libucrt:lcidtoname_downlevel.obj
 0002:0000c6d8       ??_C@_1M@ONGIBJNA@?$AAe?$AAn?$AA?9?$AAt?$AAt@ 00000001801476d8     libucrt:lcidtoname_downlevel.obj
 0002:0000c6e8       ??_C@_1M@LLODPCMM@?$AAe?$AAn?$AA?9?$AAu?$AAs@ 00000001801476e8     libucrt:lcidtoname_downlevel.obj
 0002:0000c6f8       ??_C@_1M@LAKFNPAN@?$AAe?$AAn?$AA?9?$AAz?$AAa@ 00000001801476f8     libucrt:lcidtoname_downlevel.obj
 0002:0000c708       ??_C@_1M@MFNHNHEO@?$AAe?$AAn?$AA?9?$AAz?$AAw@ 0000000180147708     libucrt:lcidtoname_downlevel.obj
 0002:0000c718       ??_C@_1M@EJEINPHM@?$AAe?$AAs?$AA?9?$AAa?$AAr@ 0000000180147718     libucrt:lcidtoname_downlevel.obj
 0002:0000c728       ??_C@_1M@GNKPCCJA@?$AAe?$AAs?$AA?9?$AAb?$AAo@ 0000000180147728     libucrt:lcidtoname_downlevel.obj
 0002:0000c738       ??_C@_1M@LEEGFONL@?$AAe?$AAs?$AA?9?$AAc?$AAl@ 0000000180147738     libucrt:lcidtoname_downlevel.obj
 0002:0000c748       ??_C@_1M@KGPDPBDF@?$AAe?$AAs?$AA?9?$AAc?$AAo@ 0000000180147748     libucrt:lcidtoname_downlevel.obj
 0002:0000c758       ??_C@_1M@EIAHOHH@?$AAe?$AAs?$AA?9?$AAc?$AAr@ 0000000180147758     libucrt:lcidtoname_downlevel.obj
 0002:0000c768       ??_C@_1M@LLPGMBIN@?$AAe?$AAs?$AA?9?$AAd?$AAo@ 0000000180147768     libucrt:lcidtoname_downlevel.obj
 0002:0000c778       ??_C@_1M@DKHMKNJA@?$AAe?$AAs?$AA?9?$AAe?$AAc@ 0000000180147778     libucrt:lcidtoname_downlevel.obj
 0002:0000c788       ??_C@_1M@GKGFPKAP@?$AAe?$AAs?$AA?9?$AAe?$AAs@ 0000000180147788     libucrt:lcidtoname_downlevel.obj
 0002:0000c798       ??_C@_1M@LKHKGDLN@?$AAe?$AAs?$AA?9?$AAg?$AAt@ 0000000180147798     libucrt:lcidtoname_downlevel.obj
 0002:0000c7a8       ??_C@_1M@HEIIGGJD@?$AAe?$AAs?$AA?9?$AAh?$AAn@ 00000001801477a8     libucrt:lcidtoname_downlevel.obj
 0002:0000c7b8       ??_C@_1M@FBDHPPGD@?$AAe?$AAs?$AA?9?$AAm?$AAx@ 00000001801477b8     libucrt:lcidtoname_downlevel.obj
 0002:0000c7c8       ??_C@_1M@DPAGLNDH@?$AAe?$AAs?$AA?9?$AAn?$AAi@ 00000001801477c8     libucrt:lcidtoname_downlevel.obj
 0002:0000c7d8       ??_C@_1M@MDGOPGDD@?$AAe?$AAs?$AA?9?$AAp?$AAa@ 00000001801477d8     libucrt:lcidtoname_downlevel.obj
 0002:0000c7e8       ??_C@_1M@EMAMGBGE@?$AAe?$AAs?$AA?9?$AAp?$AAe@ 00000001801477e8     libucrt:lcidtoname_downlevel.obj
 0002:0000c7f8       ??_C@_1M@IBMCAOEC@?$AAe?$AAs?$AA?9?$AAp?$AAr@ 00000001801477f8     libucrt:lcidtoname_downlevel.obj
 0002:0000c808       ??_C@_1M@FGMDIJED@?$AAe?$AAs?$AA?9?$AAp?$AAy@ 0000000180147808     libucrt:lcidtoname_downlevel.obj
 0002:0000c818       ??_C@_1M@IIDEOLLL@?$AAe?$AAs?$AA?9?$AAs?$AAv@ 0000000180147818     libucrt:lcidtoname_downlevel.obj
 0002:0000c828       ??_C@_1M@GAOBIPA@?$AAe?$AAs?$AA?9?$AAu?$AAy@ 0000000180147828     libucrt:lcidtoname_downlevel.obj
 0002:0000c838       ??_C@_1M@JKFFICHJ@?$AAe?$AAs?$AA?9?$AAv?$AAe@ 0000000180147838     libucrt:lcidtoname_downlevel.obj
 0002:0000c848       ??_C@_1M@PNMLOJDF@?$AAe?$AAt?$AA?9?$AAe?$AAe@ 0000000180147848     libucrt:lcidtoname_downlevel.obj
 0002:0000c858       ??_C@_1M@GHHLIKEI@?$AAe?$AAu?$AA?9?$AAe?$AAs@ 0000000180147858     libucrt:lcidtoname_downlevel.obj
 0002:0000c868       ??_C@_1M@PBNONODE@?$AAf?$AAa?$AA?9?$AAi?$AAr@ 0000000180147868     libucrt:lcidtoname_downlevel.obj
 0002:0000c878       ??_C@_1M@JEEHPMIL@?$AAf?$AAi?$AA?9?$AAf?$AAi@ 0000000180147878     libucrt:lcidtoname_downlevel.obj
 0002:0000c888       ??_C@_1M@LMDCNDBA@?$AAf?$AAo?$AA?9?$AAf?$AAo@ 0000000180147888     libucrt:lcidtoname_downlevel.obj
 0002:0000c898       ??_C@_1M@JKEOHLDK@?$AAf?$AAr?$AA?9?$AAb?$AAe@ 0000000180147898     libucrt:lcidtoname_downlevel.obj
 0002:0000c8a8       ??_C@_1M@NOHADPMI@?$AAf?$AAr?$AA?9?$AAc?$AAa@ 00000001801478a8     libucrt:lcidtoname_downlevel.obj
 0002:0000c8b8       ??_C@_1M@KDHIHAEC@?$AAf?$AAr?$AA?9?$AAc?$AAh@ 00000001801478b8     libucrt:lcidtoname_downlevel.obj
 0002:0000c8c8       ??_C@_1M@MMBBFGAK@?$AAf?$AAr?$AA?9?$AAf?$AAr@ 00000001801478c8     libucrt:lcidtoname_downlevel.obj
 0002:0000c8d8       ??_C@_1M@PAFNENNF@?$AAf?$AAr?$AA?9?$AAl?$AAu@ 00000001801478d8     libucrt:lcidtoname_downlevel.obj
 0002:0000c8e8       ??_C@_1M@EOHDJGDD@?$AAf?$AAr?$AA?9?$AAm?$AAc@ 00000001801478e8     libucrt:lcidtoname_downlevel.obj
 0002:0000c8f8       ??_C@_1M@FAPLLOPF@?$AAg?$AAl?$AA?9?$AAe?$AAs@ 00000001801478f8     libucrt:lcidtoname_downlevel.obj
 0002:0000c908       ??_C@_1M@FOPBFLOO@?$AAg?$AAu?$AA?9?$AAi?$AAn@ 0000000180147908     libucrt:lcidtoname_downlevel.obj
 0002:0000c918       ??_C@_1M@KBMCINPM@?$AAh?$AAe?$AA?9?$AAi?$AAl@ 0000000180147918     libucrt:lcidtoname_downlevel.obj
 0002:0000c928       ??_C@_1M@BBPHKFPJ@?$AAh?$AAi?$AA?9?$AAi?$AAn@ 0000000180147928     libucrt:lcidtoname_downlevel.obj
 0002:0000c938       ??_C@_1M@PMBNDPHD@?$AAh?$AAr?$AA?9?$AAb?$AAa@ 0000000180147938     libucrt:lcidtoname_downlevel.obj
 0002:0000c948       ??_C@_1M@BPCKOEGE@?$AAh?$AAr?$AA?9?$AAh?$AAr@ 0000000180147948     libucrt:lcidtoname_downlevel.obj
 0002:0000c958       ??_C@_1M@GACBMHKE@?$AAh?$AAu?$AA?9?$AAh?$AAu@ 0000000180147958     libucrt:lcidtoname_downlevel.obj
 0002:0000c968       ??_C@_1M@MILPAJJC@?$AAh?$AAy?$AA?9?$AAa?$AAm@ 0000000180147968     libucrt:lcidtoname_downlevel.obj
 0002:0000c978       ??_C@_1M@BABBICEC@?$AAi?$AAd?$AA?9?$AAi?$AAd@ 0000000180147978     libucrt:lcidtoname_downlevel.obj
 0002:0000c988       ??_C@_1M@BIKNHHPF@?$AAi?$AAs?$AA?9?$AAi?$AAs@ 0000000180147988     libucrt:lcidtoname_downlevel.obj
 0002:0000c998       ??_C@_1M@NMPCJPHE@?$AAi?$AAt?$AA?9?$AAc?$AAh@ 0000000180147998     libucrt:lcidtoname_downlevel.obj
 0002:0000c9a8       ??_C@_1M@GHKGFEDF@?$AAi?$AAt?$AA?9?$AAi?$AAt@ 00000001801479a8     libucrt:lcidtoname_downlevel.obj
 0002:0000c9b8       ??_C@_1M@NIEJCJJA@?$AAj?$AAa?$AA?9?$AAj?$AAp@ 00000001801479b8     libucrt:lcidtoname_downlevel.obj
 0002:0000c9c8       ??_C@_1M@JILFNBIM@?$AAk?$AAa?$AA?9?$AAg?$AAe@ 00000001801479c8     libucrt:lcidtoname_downlevel.obj
 0002:0000c9d8       ??_C@_1M@PACPMGPH@?$AAk?$AAk?$AA?9?$AAk?$AAz@ 00000001801479d8     libucrt:lcidtoname_downlevel.obj
 0002:0000c9e8       ??_C@_1M@IELFGMHA@?$AAk?$AAn?$AA?9?$AAi?$AAn@ 00000001801479e8     libucrt:lcidtoname_downlevel.obj
 0002:0000c9f8       ??_C@_1O@IBBJHCH@?$AAk?$AAo?$AAk?$AA?9?$AAi?$AAn@ 00000001801479f8     libucrt:lcidtoname_downlevel.obj
 0002:0000ca08       ??_C@_1M@DMHAEOGC@?$AAk?$AAo?$AA?9?$AAk?$AAr@ 0000000180147a08     libucrt:lcidtoname_downlevel.obj
 0002:0000ca18       ??_C@_1M@HBAHBIGA@?$AAk?$AAy?$AA?9?$AAk?$AAg@ 0000000180147a18     libucrt:lcidtoname_downlevel.obj
 0002:0000ca28       ??_C@_1M@KPMILCJG@?$AAl?$AAt?$AA?9?$AAl?$AAt@ 0000000180147a28     libucrt:lcidtoname_downlevel.obj
 0002:0000ca38       ??_C@_1M@BDEKKCA@?$AAl?$AAv?$AA?9?$AAl?$AAv@ 0000000180147a38     libucrt:lcidtoname_downlevel.obj
 0002:0000ca48       ??_C@_1M@ELCKCCJJ@?$AAm?$AAi?$AA?9?$AAn?$AAz@ 0000000180147a48     libucrt:lcidtoname_downlevel.obj
 0002:0000ca58       ??_C@_1M@CBOOLAPA@?$AAm?$AAk?$AA?9?$AAm?$AAk@ 0000000180147a58     libucrt:lcidtoname_downlevel.obj
 0002:0000ca68       ??_C@_1M@GPHNBJKN@?$AAm?$AAl?$AA?9?$AAi?$AAn@ 0000000180147a68     libucrt:lcidtoname_downlevel.obj
 0002:0000ca78       ??_C@_1M@PABJILIG@?$AAm?$AAn?$AA?9?$AAm?$AAn@ 0000000180147a78     libucrt:lcidtoname_downlevel.obj
 0002:0000ca88       ??_C@_1M@FGBKKIPG@?$AAm?$AAr?$AA?9?$AAi?$AAn@ 0000000180147a88     libucrt:lcidtoname_downlevel.obj
 0002:0000ca98       ??_C@_1M@NDBPDDAL@?$AAm?$AAs?$AA?9?$AAb?$AAn@ 0000000180147a98     libucrt:lcidtoname_downlevel.obj
 0002:0000caa8       ??_C@_1M@OPIHOOPI@?$AAm?$AAs?$AA?9?$AAm?$AAy@ 0000000180147aa8     libucrt:lcidtoname_downlevel.obj
 0002:0000cab8       ??_C@_1M@PPDBCNFM@?$AAm?$AAt?$AA?9?$AAm?$AAt@ 0000000180147ab8     libucrt:lcidtoname_downlevel.obj
 0002:0000cac8       ??_C@_1M@KDJDKMDD@?$AAn?$AAb?$AA?9?$AAn?$AAo@ 0000000180147ac8     libucrt:lcidtoname_downlevel.obj
 0002:0000cad8       ??_C@_1M@KFCFLMJP@?$AAn?$AAl?$AA?9?$AAb?$AAe@ 0000000180147ad8     libucrt:lcidtoname_downlevel.obj
 0002:0000cae8       ??_C@_1M@KPOPDDGO@?$AAn?$AAl?$AA?9?$AAn?$AAl@ 0000000180147ae8     libucrt:lcidtoname_downlevel.obj
 0002:0000caf8       ??_C@_1M@LJKPEMLN@?$AAn?$AAn?$AA?9?$AAn?$AAo@ 0000000180147af8     libucrt:lcidtoname_downlevel.obj
 0002:0000cb08       ??_C@_1M@BDGHHBFL@?$AAn?$AAs?$AA?9?$AAz?$AAa@ 0000000180147b08     libucrt:lcidtoname_downlevel.obj
 0002:0000cb18       ??_C@_1M@IDEHOAP@?$AAp?$AAa?$AA?9?$AAi?$AAn@ 0000000180147b18     libucrt:lcidtoname_downlevel.obj
 0002:0000cb28       ??_C@_1M@HDBKGOGH@?$AAp?$AAl?$AA?9?$AAp?$AAl@ 0000000180147b28     libucrt:lcidtoname_downlevel.obj
 0002:0000cb38       ??_C@_1M@LJLLCMEH@?$AAp?$AAt?$AA?9?$AAb?$AAr@ 0000000180147b38     libucrt:lcidtoname_downlevel.obj
 0002:0000cb48       ??_C@_1M@NCMONAAL@?$AAp?$AAt?$AA?9?$AAp?$AAt@ 0000000180147b48     libucrt:lcidtoname_downlevel.obj
 0002:0000cb58       ??_C@_1O@EAKMAJDN@?$AAq?$AAu?$AAz?$AA?9?$AAb?$AAo@ 0000000180147b58     libucrt:lcidtoname_downlevel.obj
 0002:0000cb68       ??_C@_1O@BHHPIGDN@?$AAq?$AAu?$AAz?$AA?9?$AAe?$AAc@ 0000000180147b68     libucrt:lcidtoname_downlevel.obj
 0002:0000cb78       ??_C@_1O@GBAPEKMJ@?$AAq?$AAu?$AAz?$AA?9?$AAp?$AAe@ 0000000180147b78     libucrt:lcidtoname_downlevel.obj
 0002:0000cb88       ??_C@_1M@CLGLEFBO@?$AAr?$AAo?$AA?9?$AAr?$AAo@ 0000000180147b88     libucrt:lcidtoname_downlevel.obj
 0002:0000cb98       ??_C@_1M@CEEDODME@?$AAr?$AAu?$AA?9?$AAr?$AAu@ 0000000180147b98     libucrt:lcidtoname_downlevel.obj
 0002:0000cba8       ??_C@_1M@HPKKKMPP@?$AAs?$AAa?$AA?9?$AAi?$AAn@ 0000000180147ba8     libucrt:lcidtoname_downlevel.obj
 0002:0000cbb8       ??_C@_1M@BKMAIGOJ@?$AAs?$AAe?$AA?9?$AAf?$AAi@ 0000000180147bb8     libucrt:lcidtoname_downlevel.obj
 0002:0000cbc8       ??_C@_1M@NDPIFLFI@?$AAs?$AAe?$AA?9?$AAn?$AAo@ 0000000180147bc8     libucrt:lcidtoname_downlevel.obj
 0002:0000cbd8       ??_C@_1M@DANKKHJ@?$AAs?$AAe?$AA?9?$AAs?$AAe@ 0000000180147bd8     libucrt:lcidtoname_downlevel.obj
 0002:0000cbe8       ??_C@_1M@PNBLONPJ@?$AAs?$AAk?$AA?9?$AAs?$AAk@ 0000000180147be8     libucrt:lcidtoname_downlevel.obj
 0002:0000cbf8       ??_C@_1M@LFMODOAL@?$AAs?$AAl?$AA?9?$AAs?$AAi@ 0000000180147bf8     libucrt:lcidtoname_downlevel.obj
 0002:0000cc08       ??_C@_1O@DFKOMPG@?$AAs?$AAm?$AAa?$AA?9?$AAn?$AAo@ 0000000180147c08     libucrt:lcidtoname_downlevel.obj
 0002:0000cc18       ??_C@_1O@NDKPBNNH@?$AAs?$AAm?$AAa?$AA?9?$AAs?$AAe@ 0000000180147c18     libucrt:lcidtoname_downlevel.obj
 0002:0000cc28       ??_C@_1O@PLLKBHAB@?$AAs?$AAm?$AAj?$AA?9?$AAn?$AAo@ 0000000180147c28     libucrt:lcidtoname_downlevel.obj
 0002:0000cc38       ??_C@_1O@CLEPOGCA@?$AAs?$AAm?$AAj?$AA?9?$AAs?$AAe@ 0000000180147c38     libucrt:lcidtoname_downlevel.obj
 0002:0000cc48       ??_C@_1O@DLGJGKMK@?$AAs?$AAm?$AAn?$AA?9?$AAf?$AAi@ 0000000180147c48     libucrt:lcidtoname_downlevel.obj
 0002:0000cc58       ??_C@_1O@OJDJGAJC@?$AAs?$AAm?$AAs?$AA?9?$AAf?$AAi@ 0000000180147c58     libucrt:lcidtoname_downlevel.obj
 0002:0000cc68       ??_C@_1M@BOFOGHPB@?$AAs?$AAq?$AA?9?$AAa?$AAl@ 0000000180147c68     libucrt:lcidtoname_downlevel.obj
 0002:0000cc78       ??_C@_1BG@LJBBIPGB@?$AAs?$AAr?$AA?9?$AAb?$AAa?$AA?9?$AAc?$AAy?$AAr?$AAl@ 0000000180147c78     libucrt:lcidtoname_downlevel.obj
 0002:0000cc90       ??_C@_1BG@JLBENFOE@?$AAs?$AAr?$AA?9?$AAb?$AAa?$AA?9?$AAl?$AAa?$AAt?$AAn@ 0000000180147c90     libucrt:lcidtoname_downlevel.obj
 0002:0000cca8       ??_C@_1BG@KODPNHE@?$AAs?$AAr?$AA?9?$AAs?$AAp?$AA?9?$AAc?$AAy?$AAr?$AAl@ 0000000180147ca8     libucrt:lcidtoname_downlevel.obj
 0002:0000ccc0       ??_C@_1BG@CIOGKHPB@?$AAs?$AAr?$AA?9?$AAs?$AAp?$AA?9?$AAl?$AAa?$AAt?$AAn@ 0000000180147cc0     libucrt:lcidtoname_downlevel.obj
 0002:0000ccd8       ??_C@_1M@NGFJLMAC@?$AAs?$AAv?$AA?9?$AAf?$AAi@ 0000000180147cd8     libucrt:lcidtoname_downlevel.obj
 0002:0000cce8       ??_C@_1M@MPJEJAJC@?$AAs?$AAv?$AA?9?$AAs?$AAe@ 0000000180147ce8     libucrt:lcidtoname_downlevel.obj
 0002:0000ccf8       ??_C@_1M@MPNDHLFK@?$AAs?$AAw?$AA?9?$AAk?$AAe@ 0000000180147cf8     libucrt:lcidtoname_downlevel.obj
 0002:0000cd08       ??_C@_1O@KOHBJJI@?$AAs?$AAy?$AAr?$AA?9?$AAs?$AAy@ 0000000180147d08     libucrt:lcidtoname_downlevel.obj
 0002:0000cd18       ??_C@_1M@LDCEFHA@?$AAt?$AAa?$AA?9?$AAi?$AAn@ 0000000180147d18     libucrt:lcidtoname_downlevel.obj
 0002:0000cd28       ??_C@_1M@CNJOFAK@?$AAt?$AAe?$AA?9?$AAi?$AAn@ 0000000180147d28     libucrt:lcidtoname_downlevel.obj
 0002:0000cd38       ??_C@_1M@GNAECACD@?$AAt?$AAh?$AA?9?$AAt?$AAh@ 0000000180147d38     libucrt:lcidtoname_downlevel.obj
 0002:0000cd48       ??_C@_1M@CHBIHOJO@?$AAt?$AAn?$AA?9?$AAz?$AAa@ 0000000180147d48     libucrt:lcidtoname_downlevel.obj
 0002:0000cd58       ??_C@_1M@GCCMIGPJ@?$AAt?$AAr?$AA?9?$AAt?$AAr@ 0000000180147d58     libucrt:lcidtoname_downlevel.obj
 0002:0000cd68       ??_C@_1M@CELMCNBK@?$AAt?$AAt?$AA?9?$AAr?$AAu@ 0000000180147d68     libucrt:lcidtoname_downlevel.obj
 0002:0000cd78       ??_C@_1M@KLMCELGA@?$AAu?$AAk?$AA?9?$AAu?$AAa@ 0000000180147d78     libucrt:lcidtoname_downlevel.obj
 0002:0000cd88       ??_C@_1M@EPAJJAJF@?$AAu?$AAr?$AA?9?$AAp?$AAk@ 0000000180147d88     libucrt:lcidtoname_downlevel.obj
 0002:0000cd98       ??_C@_1BG@GEGPMCDJ@?$AAu?$AAz?$AA?9?$AAu?$AAz?$AA?9?$AAc?$AAy?$AAr?$AAl@ 0000000180147d98     libucrt:lcidtoname_downlevel.obj
 0002:0000cdb0       ??_C@_1BG@EGGKJILM@?$AAu?$AAz?$AA?9?$AAu?$AAz?$AA?9?$AAl?$AAa?$AAt?$AAn@ 0000000180147db0     libucrt:lcidtoname_downlevel.obj
 0002:0000cdc8       ??_C@_1M@GFOCLFF@?$AAv?$AAi?$AA?9?$AAv?$AAn@ 0000000180147dc8     libucrt:lcidtoname_downlevel.obj
 0002:0000cdd8       ??_C@_1M@CPAMEDFI@?$AAx?$AAh?$AA?9?$AAz?$AAa@ 0000000180147dd8     libucrt:lcidtoname_downlevel.obj
 0002:0000cde8       ??_C@_1O@EBKIFIGN@?$AAz?$AAh?$AA?9?$AAc?$AAh?$AAs@ 0000000180147de8     libucrt:lcidtoname_downlevel.obj
 0002:0000cdf8       ??_C@_1O@NMHPGANE@?$AAz?$AAh?$AA?9?$AAc?$AAh?$AAt@ 0000000180147df8     libucrt:lcidtoname_downlevel.obj
 0002:0000ce08       ??_C@_1M@LPINJOMC@?$AAz?$AAh?$AA?9?$AAc?$AAn@ 0000000180147e08     libucrt:lcidtoname_downlevel.obj
 0002:0000ce18       ??_C@_1M@OCJEJODD@?$AAz?$AAh?$AA?9?$AAh?$AAk@ 0000000180147e18     libucrt:lcidtoname_downlevel.obj
 0002:0000ce28       ??_C@_1M@DNDLJINH@?$AAz?$AAh?$AA?9?$AAm?$AAo@ 0000000180147e28     libucrt:lcidtoname_downlevel.obj
 0002:0000ce38       ??_C@_1M@MBFDNDND@?$AAz?$AAh?$AA?9?$AAs?$AAg@ 0000000180147e38     libucrt:lcidtoname_downlevel.obj
 0002:0000ce48       ??_C@_1M@IMEPLEPE@?$AAz?$AAh?$AA?9?$AAt?$AAw@ 0000000180147e48     libucrt:lcidtoname_downlevel.obj
 0002:0000ce58       ??_C@_1M@BBGHNHJP@?$AAz?$AAu?$AA?9?$AAz?$AAa@ 0000000180147e58     libucrt:lcidtoname_downlevel.obj
 0002:0000ce90       ?large_power_data@?1??multiply_by_power_of_ten@__crt_strtox@@YA_NAEAUbig_integer@2@I@Z@4QBIB 0000000180147e90     libucrt:cfout.obj
 0002:0000d7a0       ?large_power_indices@?1??multiply_by_power_of_ten@__crt_strtox@@YA_NAEAUbig_integer@2@I@Z@4QBUunpack_index@?1??12@YA_N0I@Z@B 00000001801487a0     libucrt:cfout.obj
 0002:0000d838       ?small_powers_of_ten@?1??multiply_by_power_of_ten@__crt_strtox@@YA_NAEAUbig_integer@2@I@Z@4QBIB 0000000180148838     libucrt:cfout.obj
 0002:0000d85c       ??_C@_01GBGANLPD@0@        000000018014885c     libucrt:cfout.obj
 0002:0000d860       ??_C@_05DNEBIAHO@1?$CDINF@ 0000000180148860     libucrt:cfout.obj
 0002:0000d868       ??_C@_06IMKFLFPG@1?$CDQNAN@ 0000000180148868     libucrt:cfout.obj
 0002:0000d870       ??_C@_06PGGFOGJG@1?$CDSNAN@ 0000000180148870     libucrt:cfout.obj
 0002:0000d878       ??_C@_05PHHOCPM@1?$CDIND@  0000000180148878     libucrt:cfout.obj
 0002:0000d880       __real@3ff0000000000000    0000000180148880     libucrt:ceil.obj
 0002:0000dae0       ??_C@_1BA@BALFACEM@?$AAC?$AAO?$AAN?$AAO?$AAU?$AAT?$AA$@ 0000000180148ae0     libucrt:initcon.obj
 0002:0000daf0       __log10_256_lead           0000000180148af0     libucrt:log10_256_lead_tail_table.obj
 0002:0000e300       __log10_256_tail           0000000180149300     libucrt:log10_256_lead_tail_table.obj
 0002:0000eb10       __log_F_inv_qword          0000000180149b10     libucrt:log_f_inv_qword_table.obj
 0002:0000f400       ??_R4type_info@@6B@        000000018014a400     LIBCMT:std_type_info_static.obj
 0002:0000f428       ??_R3type_info@@8          000000018014a428     LIBCMT:std_type_info_static.obj
 0002:0000f440       ??_R2type_info@@8          000000018014a440     LIBCMT:std_type_info_static.obj
 0002:0000f450       ??_R1A@?0A@EA@type_info@@8 000000018014a450     LIBCMT:std_type_info_static.obj
 0002:0000f478       ??_R3DNameNode@@8          000000018014a478     libvcruntime:undname.obj
 0002:0000f490       ??_R2DNameNode@@8          000000018014a490     libvcruntime:undname.obj
 0002:0000f4a0       ??_R1A@?0A@EA@DNameNode@@8 000000018014a4a0     libvcruntime:undname.obj
 0002:0000f4c8       ??_R4charNode@@6B@         000000018014a4c8     libvcruntime:undname.obj
 0002:0000f4f0       ??_R3charNode@@8           000000018014a4f0     libvcruntime:undname.obj
 0002:0000f508       ??_R2charNode@@8           000000018014a508     libvcruntime:undname.obj
 0002:0000f520       ??_R1A@?0A@EA@charNode@@8  000000018014a520     libvcruntime:undname.obj
 0002:0000f548       ??_R4pcharNode@@6B@        000000018014a548     libvcruntime:undname.obj
 0002:0000f570       ??_R3pcharNode@@8          000000018014a570     libvcruntime:undname.obj
 0002:0000f588       ??_R2pcharNode@@8          000000018014a588     libvcruntime:undname.obj
 0002:0000f5a0       ??_R1A@?0A@EA@pcharNode@@8 000000018014a5a0     libvcruntime:undname.obj
 0002:0000f5c8       ??_R4pDNameNode@@6B@       000000018014a5c8     libvcruntime:undname.obj
 0002:0000f5f0       ??_R3pDNameNode@@8         000000018014a5f0     libvcruntime:undname.obj
 0002:0000f608       ??_R2pDNameNode@@8         000000018014a608     libvcruntime:undname.obj
 0002:0000f620       ??_R1A@?0A@EA@pDNameNode@@8 000000018014a620     libvcruntime:undname.obj
 0002:0000f648       ??_R4DNameStatusNode@@6B@  000000018014a648     libvcruntime:undname.obj
 0002:0000f670       ??_R3DNameStatusNode@@8    000000018014a670     libvcruntime:undname.obj
 0002:0000f688       ??_R2DNameStatusNode@@8    000000018014a688     libvcruntime:undname.obj
 0002:0000f6a0       ??_R1A@?0A@EA@DNameStatusNode@@8 000000018014a6a0     libvcruntime:undname.obj
 0002:0000f6c8       ??_R4pairNode@@6B@         000000018014a6c8     libvcruntime:undname.obj
 0002:0000f6f0       ??_R3pairNode@@8           000000018014a6f0     libvcruntime:undname.obj
 0002:0000f708       ??_R2pairNode@@8           000000018014a708     libvcruntime:undname.obj
 0002:0000f720       ??_R1A@?0A@EA@pairNode@@8  000000018014a720     libvcruntime:undname.obj
 0002:0000f748       ??_R4exception@std@@6B@    000000018014a748     libvcruntime:frame.obj
 0002:0000f770       ??_R3exception@std@@8      000000018014a770     libvcruntime:frame.obj
 0002:0000f788       ??_R2exception@std@@8      000000018014a788     libvcruntime:frame.obj
 0002:0000f798       ??_R1A@?0A@EA@exception@std@@8 000000018014a798     libvcruntime:frame.obj
 0002:0000f7c0       ??_R4bad_exception@std@@6B@ 000000018014a7c0     libvcruntime:frame.obj
 0002:0000f7e8       ??_R3bad_exception@std@@8  000000018014a7e8     libvcruntime:frame.obj
 0002:0000f800       ??_R2bad_exception@std@@8  000000018014a800     libvcruntime:frame.obj
 0002:0000f818       ??_R1A@?0A@EA@bad_exception@std@@8 000000018014a818     libvcruntime:frame.obj
 0002:0000f83c       __volatile_metadata        000000018014a83c     <linker-defined>
 0002:0000fe60       __rtc_iaa                  000000018014ae60     LIBCMT:initsect.obj
 0002:0000fe68       __rtc_izz                  000000018014ae68     LIBCMT:initsect.obj
 0002:0000fe70       __rtc_taa                  000000018014ae70     LIBCMT:initsect.obj
 0002:0000fe78       __rtc_tzz                  000000018014ae78     LIBCMT:initsect.obj
 0002:0001c860       _TI2?AVbad_exception@std@@ 0000000180157860     libvcruntime:frame.obj
 0002:0001c880       _CTA2?AVbad_exception@std@@ 0000000180157880     libvcruntime:frame.obj
 0002:0001c898       _CT??_R0?AVbad_exception@std@@@8??0bad_exception@std@@QEAA@AEBV01@@Z24 0000000180157898     libvcruntime:frame.obj
 0002:0001c8c0       _CT??_R0?AVexception@std@@@8??0exception@std@@QEAA@AEBV01@@Z24 00000001801578c0     libvcruntime:frame.obj
 0002:0001c8e4       __DELAY_IMPORT_DESCRIPTOR_physxfoundation_64_dll 00000001801578e4     PhysXFoundation_64:PhysXFoundation_64.dll
 0002:0001c904       __NULL_DELAY_IMPORT_DESCRIPTOR 0000000180157904     PhysXFoundation_64:PhysXFoundation_64.dll
 0002:0001c9d8       \177PhysXFoundation_64_NULL_THUNK_DATA_DLN 00000001801579d8     PhysXFoundation_64:PhysXFoundation_64.dll
 0002:0001ce18       \177PhysXFoundation_64_NULL_THUNK_DATA_DLB 0000000180157e18     PhysXFoundation_64:PhysXFoundation_64.dll
 0002:00026fac       __IMPORT_DESCRIPTOR_KERNEL32 0000000180161fac     kernel32:KERNEL32.dll
 0002:00026fc0       __NULL_IMPORT_DESCRIPTOR   0000000180161fc0     kernel32:KERNEL32.dll
 0003:00000000       __pfnDliNotifyHook2        0000000180163000     CmWindowsDelayLoadHook.obj
 0003:00000020       ?gGeomMTDMethodTable@@3PAY06P6A_NAEAVPxVec3@physx@@AEAMAEBVPxGeometry@2@AEBVPxTransform@2@23@ZA 0000000180163020     GuMTD.obj
 0003:000001b0       ?gGeomOverlapMethodTable@@3PAY06P6A_NAEBVPxGeometry@physx@@AEBVPxTransform@2@01PEAUTriggerCache@Gu@2@@ZA 00000001801631b0     GuOverlapTests.obj
 0003:00000338       ?gRaycastMap@@3PAP6AIAEBVPxGeometry@physx@@AEBVPxTransform@2@AEBVPxVec3@2@2MV?$PxFlags@W4Enum@PxHitFlag@physx@@G@2@IPEIAUPxRaycastHit@2@@ZA 0000000180163338     GuRaycastTests.obj
 0003:00000370       ?gGeomSweepFuncs@@3UGeomSweepFuncs@Gu@physx@@A 0000000180163370     GuSweepTests.obj
 0003:00000490       ?g_SweepMethodTable@Gu@physx@@3PAY06P6AMAEBUCCDShape@12@0AEBVPxTransform@2@111MAEAVPxVec3@2@2MAEAIM@ZA 0000000180163490     GuCCDSweepPrimitives.obj
 0003:00000618       ?g_TriangleSweepMethodTable@Gu@physx@@3PAP6AMAEBVGeometryUnion@12@0AEBVPxTransform@2@111MAEAVPxVec3@2@2AEBVFastVertex2ShapeScaling@Cm@2@AEAVTriangleV@12@M@ZA 0000000180163618     GuCCDSweepPrimitives.obj
 0003:00000a14       _fltused                   0000000180163a14     LIBCMT:fltused.obj
 0003:00000a20       __isa_available            0000000180163a20     LIBCMT:cpu_disp.obj
 0003:00000a24       __isa_enabled              0000000180163a24     LIBCMT:cpu_disp.obj
 0003:00000a28       __memcpy_nt_iters          0000000180163a28     LIBCMT:cpu_disp.obj
 0003:00000a30       __memset_nt_iters          0000000180163a30     LIBCMT:cpu_disp.obj
 0003:00000a40       __scrt_native_dllmain_reason 0000000180163a40     LIBCMT:utility.obj
 0003:00000a48       __security_cookie_complement 0000000180163a48     LIBCMT:gs_cookie.obj
 0003:00000a50       __security_cookie          0000000180163a50     LIBCMT:gs_cookie.obj
 0003:00000a80       __abort_behavior           0000000180163a80     libucrt:abort.obj
 0003:00000ab0       __acrt_initial_multibyte_data 0000000180163ab0     libucrt:mbctype.obj
 0003:00000ff0       __acrt_initial_locale_data 0000000180163ff0     libucrt:nlsdata.obj
 0003:00001148       __acrt_initial_locale_pointers 0000000180164148     libucrt:nlsdata.obj
 0003:00001158       __acrt_wide_c_locale_string 0000000180164158     libucrt:nlsdata.obj
 0003:00001160       _iob                       0000000180164160     libucrt:_file.obj
 0003:00001270       __globallocalestatus       0000000180164270     libucrt:glstatus.obj
 0003:00001280       __acrt_lconv_c             0000000180164280     libucrt:localeconv.obj
 0003:00001318       __acrt_lconv_static_decimal 0000000180164318     libucrt:localeconv.obj
 0003:0000131c       __acrt_lconv_static_W_decimal 000000018016431c     libucrt:localeconv.obj
 0003:00001320       _lookuptrailbytes          0000000180164320     libucrt:read.obj
 0003:00001430       ??_R0?AVCollection@Cm@physx@@@8 0000000180164430     CmCollection.obj
 0003:00001460       ??_R0?AVBVHStructure@Gu@physx@@@8 0000000180164460     GuMeshFactory.obj
 0003:00001490       ??_R0?AVHeightField@Gu@physx@@@8 0000000180164490     GuMeshFactory.obj
 0003:000014c0       ??_R0?AVConvexMesh@Gu@physx@@@8 00000001801644c0     GuMeshFactory.obj
 0003:000014f0       ??_R0?AVBV4TriangleMesh@Gu@physx@@@8 00000001801644f0     GuMeshFactory.obj
 0003:00001520       ??_R0?AVRTreeTriangleMesh@Gu@physx@@@8 0000000180164520     GuMeshFactory.obj
 0003:00001558       ??_R0?AVMutexImpl@shdfnd@physx@@@8 0000000180164558     GuMeshFactory.obj
 0003:00001588       ??_R0?AVBV32Tree@Gu@physx@@@8 0000000180164588     GuMeshFactory.obj
 0003:000015b0       ??_R0?AVBV4TriangleData@Gu@physx@@@8 00000001801645b0     GuMeshFactory.obj
 0003:000015e0       ??_R0?AVRTreeTriangleData@Gu@physx@@@8 00000001801645e0     GuMeshFactory.obj
 0003:00001618       ??_R0E@8                   0000000180164618     GuMeshFactory.obj
 0003:00001630       ??_R0G@8                   0000000180164630     GuMeshFactory.obj
 0003:00001648       ??_R0I@8                   0000000180164648     GuMeshFactory.obj
 0003:00001660       ??_R0?AVAABBTreeBuildNode@Gu@physx@@@8 0000000180164660     GuAABBTreeBuild.obj
 0003:00001698       ??_R0?AVBigConvexData@physx@@@8 0000000180164698     GuConvexMesh.obj
 0003:000016c8       ??_R0?AVIndTri16@Gu@physx@@@8 00000001801646c8     GuBV4.obj
 0003:000016f0       ??_R0?AVIndTri32@Gu@physx@@@8 00000001801646f0     GuBV4.obj
 0003:00001720       ??_R0?AU?$BVDataPackedT@VQuantizedAABB@Gu@physx@@@Gu@physx@@@8 0000000180164720     GuBV4Build.obj
 0003:00001770       ??_R0?AUSlab@BV4BuildParams@@@8 0000000180164770     GuBV4Build.obj
 0003:000017a0       ??_R0?AVAABBTreeNode@Gu@physx@@@8 00000001801647a0     GuBV4Build.obj
 0003:000017d0       ??_R0?AUBV32Data@Gu@physx@@@8 00000001801647d0     GuBV32Build.obj
 0003:000017f8       ??_R0?AUBV32Node@@@8       00000001801647f8     GuBV32Build.obj
 0003:00001818       ??_R0?AVbad_exception@std@@@8 0000000180164818     libvcruntime:frame.obj
 0003:00001840       ??_R0?AVexception@std@@@8  0000000180164840     libvcruntime:frame.obj
 0003:00001868       ??_R0?AVtype_info@@@8      0000000180164868     LIBCMT:std_type_info_static.obj
 0003:00001888       ??_R0?AVDNameNode@@@8      0000000180164888     libvcruntime:undname.obj
 0003:000018a8       ??_R0?AVcharNode@@@8       00000001801648a8     libvcruntime:undname.obj
 0003:000018c8       ??_R0?AVpcharNode@@@8      00000001801648c8     libvcruntime:undname.obj
 0003:000018e8       ??_R0?AVpDNameNode@@@8     00000001801648e8     libvcruntime:undname.obj
 0003:00001910       ??_R0?AVDNameStatusNode@@@8 0000000180164910     libvcruntime:undname.obj
 0003:00001938       ??_R0?AVpairNode@@@8       0000000180164938     libvcruntime:undname.obj
 0003:00001958       __imp_PxGetFoundation      0000000180164958     PhysXFoundation_64:PhysXFoundation_64.dll
 0003:00001960       __imp_?atomicIncrement@shdfnd@physx@@YAHPECH@Z 0000000180164960     PhysXFoundation_64:PhysXFoundation_64.dll
 0003:00001968       __imp_?getAllocator@shdfnd@physx@@YAAEAVPxAllocatorCallback@2@XZ 0000000180164968     PhysXFoundation_64:PhysXFoundation_64.dll
 0003:00001970       __imp_?getInstance@Foundation@shdfnd@physx@@SAAEAV123@XZ 0000000180164970     PhysXFoundation_64:PhysXFoundation_64.dll
 0003:00001978       __imp_?error@Foundation@shdfnd@physx@@QEAAXW4Enum@PxErrorCode@3@PEBDH1ZZ 0000000180164978     PhysXFoundation_64:PhysXFoundation_64.dll
 0003:00001980       __imp_??0NamedAllocator@shdfnd@physx@@QEAA@PEBD@Z 0000000180164980     PhysXFoundation_64:PhysXFoundation_64.dll
 0003:00001988       __imp_??1NamedAllocator@shdfnd@physx@@QEAA@XZ 0000000180164988     PhysXFoundation_64:PhysXFoundation_64.dll
 0003:00001990       __imp_?allocate@NamedAllocator@shdfnd@physx@@QEAAPEAX_KPEBDH@Z 0000000180164990     PhysXFoundation_64:PhysXFoundation_64.dll
 0003:00001998       __imp_?deallocate@NamedAllocator@shdfnd@physx@@QEAAXPEAX@Z 0000000180164998     PhysXFoundation_64:PhysXFoundation_64.dll
 0003:000019a0       __imp_?vsnprintf@shdfnd@physx@@YAHPEAD_KPEBD0@Z 00000001801649a0     PhysXFoundation_64:PhysXFoundation_64.dll
 0003:000019a8       __imp_??0NamedAllocator@shdfnd@physx@@QEAA@AEBV012@@Z 00000001801649a8     PhysXFoundation_64:PhysXFoundation_64.dll
 0003:000019b0       __imp_??0MutexImpl@shdfnd@physx@@QEAA@XZ 00000001801649b0     PhysXFoundation_64:PhysXFoundation_64.dll
 0003:000019b8       __imp_??1MutexImpl@shdfnd@physx@@QEAA@XZ 00000001801649b8     PhysXFoundation_64:PhysXFoundation_64.dll
 0003:000019c0       __imp_?lock@MutexImpl@shdfnd@physx@@QEAAXXZ 00000001801649c0     PhysXFoundation_64:PhysXFoundation_64.dll
 0003:000019c8       __imp_?unlock@MutexImpl@shdfnd@physx@@QEAAXXZ 00000001801649c8     PhysXFoundation_64:PhysXFoundation_64.dll
 0003:000019d0       __imp_?getSize@MutexImpl@shdfnd@physx@@SAIXZ 00000001801649d0     PhysXFoundation_64:PhysXFoundation_64.dll
 0003:000019d8       __imp_?atomicDecrement@shdfnd@physx@@YAHPECH@Z 00000001801649d8     PhysXFoundation_64:PhysXFoundation_64.dll
 0003:000019e0       __imp_?PxTransformFromSegment@physx@@YA?AVPxTransform@1@AEBVPxVec3@1@0PEAM@Z 00000001801649e0     PhysXFoundation_64:PhysXFoundation_64.dll
 0003:000019e8       __imp_?optimizeBoundingBox@shdfnd@physx@@YA?AVPxVec3@2@AEAVPxMat33@2@@Z 00000001801649e8     PhysXFoundation_64:PhysXFoundation_64.dll
 0003:000019f0       __imp_?allocate@TempAllocator@shdfnd@physx@@QEAAPEAX_KPEBDH@Z 00000001801649f0     PhysXFoundation_64:PhysXFoundation_64.dll
 0003:000019f8       __imp_?deallocate@TempAllocator@shdfnd@physx@@QEAAXPEAX@Z 00000001801649f8     PhysXFoundation_64:PhysXFoundation_64.dll
 0003:00001a00       __imp_PxGetProfilerCallback 0000000180164a00     PhysXFoundation_64:PhysXFoundation_64.dll
 0003:00001a08       \177PhysXFoundation_64_NULL_THUNK_DATA_DLA 0000000180164a08     PhysXFoundation_64:PhysXFoundation_64.dll
 0003:000027a0       ?boxVertexTable@physx@@3QBT__m128@@B 00000001801657a0     GuConvexSupportTable.obj
 0003:000042f0       __hmod__PhysXFoundation_64_dll 00000001801672f0     PhysXFoundation_64:PhysXFoundation_64.dll
 0003:000042f8       ?DloadKernel32@@3PEAUHINSTANCE__@@EA 00000001801672f8     Delayimp:delayhlp.obj
 0003:00004300       ?DloadAcquireSRWLockExclusive@@3P6AXPEA_K@ZEA 0000000180167300     Delayimp:delayhlp.obj
 0003:00004308       ?DloadReleaseSRWLockExclusive@@3P6AXPEA_K@ZEA 0000000180167308     Delayimp:delayhlp.obj
 0003:00004310       ?DloadSrwLock@@3_KA        0000000180167310     Delayimp:delayhlp.obj
 0003:00004318       ?DloadSectionLockCount@@3KA 0000000180167318     Delayimp:delayhlp.obj
 0003:0000431c       ?DloadSectionOldProtection@@3KA 000000018016731c     Delayimp:delayhlp.obj
 0003:00004320       ?DloadSectionCommitPermanent@@3KA 0000000180167320     Delayimp:delayhlp.obj
 0003:00004330       ?__type_info_root_node@@3U__type_info_node@@A 0000000180167330     LIBCMT:tncleanup.obj
 0003:00004348       __castguard_check_failure_os_handled_fptr 0000000180167348     LIBCMT:guard_support.obj
 0003:00004350       __favor                    0000000180167350     LIBCMT:cpu_disp.obj
 0003:00004358       ?_OptionsStorage@?1??__local_stdio_printf_options@@9@4_KA 0000000180167358     LIBCMT:default_local_stdio_options.obj
 0003:00004360       ?_OptionsStorage@?1??__local_stdio_scanf_options@@9@4_KA 0000000180167360     LIBCMT:default_local_stdio_options.obj
 0003:00004368       __scrt_current_native_startup_state 0000000180167368     LIBCMT:utility.obj
 0003:00004370       __scrt_native_startup_lock 0000000180167370     LIBCMT:utility.obj
 0003:000043b0       __scrt_debugger_hook_flag  00000001801673b0     LIBCMT:utility_desktop.obj
 0003:000043b8       ?__WinRTOutOfMemoryExceptionCallback@@3P6APEAXXZEA 00000001801673b8     libvcruntime:ehhelpers.obj
 0003:000043c0       __pPurecall                00000001801673c0     libvcruntime:purevirt_data.obj
 0003:000043c8       ?pArgList@UnDecorator@@0PEAVReplicator@@EA 00000001801673c8     libvcruntime:undname.obj
 0003:000043d0       ?pZNameList@UnDecorator@@0PEAVReplicator@@EA 00000001801673d0     libvcruntime:undname.obj
 0003:000043d8       ?pTemplateArgList@UnDecorator@@0PEAVReplicator@@EA 00000001801673d8     libvcruntime:undname.obj
 0003:000043e0       ?gName@UnDecorator@@0PEBDEB 00000001801673e0     libvcruntime:undname.obj
 0003:000043e8       ?name@UnDecorator@@0PEBDEB 00000001801673e8     libvcruntime:undname.obj
 0003:000043f0       ?disableFlags@UnDecorator@@0KA 00000001801673f0     libvcruntime:undname.obj
 0003:000043f4       ?fExplicitTemplateParams@UnDecorator@@0_NA 00000001801673f4     libvcruntime:undname.obj
 0003:000043f5       ?fGetTemplateArgumentList@UnDecorator@@0_NA 00000001801673f5     libvcruntime:undname.obj
 0003:000043f8       ?m_pGetParameter@UnDecorator@@0P6APEADJ@ZEA 00000001801673f8     libvcruntime:undname.obj
 0003:00004400       ?m_CHPENameOffset@UnDecorator@@0KA 0000000180167400     libvcruntime:undname.obj
 0003:00004404       ?m_recursionLevel@UnDecorator@@0KA 0000000180167404     libvcruntime:undname.obj
 0003:00004648       _environ_table             0000000180167648     libucrt:environment_initialization.obj
 0003:00004650       _wenviron_table            0000000180167650     libucrt:environment_initialization.obj
 0003:00004658       __dcrt_initial_wide_environment 0000000180167658     libucrt:environment_initialization.obj
 0003:00004660       __dcrt_initial_narrow_environment 0000000180167660     libucrt:environment_initialization.obj
 0003:00004668       __acrt_atexit_table        0000000180167668     libucrt:onexit.obj
 0003:00004680       __acrt_at_quick_exit_table 0000000180167680     libucrt:onexit.obj
 0003:00004698       __fma3_is_available        0000000180167698     libucrt:fma3_available.obj
 0003:0000469c       __use_fma3_lib             000000018016769c     libucrt:fma3_available.obj
 0003:000048e0       _mbctype                   00000001801678e0     libucrt:mbctype.obj
 0003:000048e8       _mbcasemap                 00000001801678e8     libucrt:mbctype.obj
 0003:000048f0       __acrt_current_multibyte_data 00000001801678f0     libucrt:mbctype.obj
 0003:00004900       _pgmptr                    0000000180167900     libucrt:argv_data.obj
 0003:00004908       __argc                     0000000180167908     libucrt:argv_data.obj
 0003:00004910       __argv                     0000000180167910     libucrt:argv_data.obj
 0003:00004918       __wargv                    0000000180167918     libucrt:argv_data.obj
 0003:00004920       _acmdln                    0000000180167920     libucrt:argv_data.obj
 0003:00004928       _wcmdln                    0000000180167928     libucrt:argv_data.obj
 0003:00004ad8       __acrt_heap                0000000180167ad8     libucrt:heap_handle.obj
 0003:00004ae0       __pioinfo                  0000000180167ae0     libucrt:ioinit.obj
 0003:00004ee0       _nhandle                   0000000180167ee0     libucrt:ioinit.obj
 0003:00004f18       __acrt_current_locale_data 0000000180167f18     libucrt:nlsdata.obj
 0003:00004f20       _nstream                   0000000180167f20     libucrt:_file.obj
 0003:00004f28       __piob                     0000000180167f28     libucrt:_file.obj
 0003:00004f30       __acrt_stdout_buffer       0000000180167f30     libucrt:_sftbuf.obj
 0003:00004f38       __acrt_stderr_buffer       0000000180167f38     libucrt:_sftbuf.obj
 0003:00004f50       __acrt_locale_changed_data 0000000180167f50     libucrt:wsetlocale.obj
 0003:00004f58       __acrt_lconv_static_null   0000000180167f58     libucrt:localeconv.obj
 0003:00004f5c       __acrt_lconv_static_W_null 0000000180167f5c     libucrt:localeconv.obj
 0003:000054e0       __scrt_ucrt_dll_is_in_use  00000001801684e0     <common>
 0003:000054e8       __dyn_tls_init_callback    00000001801684e8     <common>
 0005:00000100       __common_ssin_reduction_data 0000000180171100     LIBCMT:svml_s_sin_data.obj
 0005:00000d00       __common_ssin_data         0000000180171d00     LIBCMT:svml_s_sin_data.obj

 entry point at        0001:00119ac8

 Static symbols

 0000:ffe89000       .debug$S                   0000000180000000     PhysXCommon_64.exp
 0000:ffe89000       .debug$S                   0000000180000000     kernel32:KERNEL32.dll
 0000:ffe89000       .debug$S                   0000000180000000     kernel32:KERNEL32.dll
 0000:ffe89000       .debug$S                   0000000180000000     kernel32:KERNEL32.dll
 0000:ffe89000       .debug$S                   0000000180000000     kernel32:KERNEL32.dll
 0000:ffe89000       .debug$S                   0000000180000000     kernel32:KERNEL32.dll
 0000:ffe89000       .debug$S                   0000000180000000     kernel32:KERNEL32.dll
 0000:ffe89000       .debug$S                   0000000180000000     kernel32:KERNEL32.dll
 0000:ffe89000       .debug$S                   0000000180000000     kernel32:KERNEL32.dll
 0000:ffe89000       .debug$S                   0000000180000000     kernel32:KERNEL32.dll
 0000:ffe89000       .debug$S                   0000000180000000     kernel32:KERNEL32.dll
 0000:ffe89000       .debug$S                   0000000180000000     kernel32:KERNEL32.dll
 0000:ffe89000       .debug$S                   0000000180000000     kernel32:KERNEL32.dll
 0000:ffe89000       .debug$S                   0000000180000000     kernel32:KERNEL32.dll
 0000:ffe89000       .debug$S                   0000000180000000     kernel32:KERNEL32.dll
 0000:ffe89000       .debug$S                   0000000180000000     kernel32:KERNEL32.dll
 0000:ffe89000       .debug$S                   0000000180000000     kernel32:KERNEL32.dll
 0000:ffe89000       .debug$S                   0000000180000000     kernel32:KERNEL32.dll
 0000:ffe89000       .debug$S                   0000000180000000     kernel32:KERNEL32.dll
 0000:ffe89000       .debug$S                   0000000180000000     kernel32:KERNEL32.dll
 0000:ffe89000       .debug$S                   0000000180000000     kernel32:KERNEL32.dll
 0000:ffe89000       .debug$S                   0000000180000000     kernel32:KERNEL32.dll
 0000:ffe89000       .debug$S                   0000000180000000     kernel32:KERNEL32.dll
 0000:ffe89000       .debug$S                   0000000180000000     kernel32:KERNEL32.dll
 0000:ffe89000       .debug$S                   0000000180000000     kernel32:KERNEL32.dll
 0000:ffe89000       .debug$S                   0000000180000000     kernel32:KERNEL32.dll
 0000:ffe89000       .debug$S                   0000000180000000     kernel32:KERNEL32.dll
 0000:ffe89000       .debug$S                   0000000180000000     kernel32:KERNEL32.dll
 0000:ffe89000       .debug$S                   0000000180000000     kernel32:KERNEL32.dll
 0000:ffe89000       .debug$S                   0000000180000000     kernel32:KERNEL32.dll
 0000:ffe89000       .debug$S                   0000000180000000     kernel32:KERNEL32.dll
 0000:ffe89000       .debug$S                   0000000180000000     kernel32:KERNEL32.dll
 0000:ffe89000       .debug$S                   0000000180000000     kernel32:KERNEL32.dll
 0000:ffe89000       .debug$S                   0000000180000000     kernel32:KERNEL32.dll
 0000:ffe89000       .debug$S                   0000000180000000     kernel32:KERNEL32.dll
 0000:ffe89000       .debug$S                   0000000180000000     kernel32:KERNEL32.dll
 0000:ffe89000       .debug$S                   0000000180000000     kernel32:KERNEL32.dll
 0000:ffe89000       .debug$S                   0000000180000000     kernel32:KERNEL32.dll
 0000:ffe89000       .debug$S                   0000000180000000     kernel32:KERNEL32.dll
 0000:ffe89000       .debug$S                   0000000180000000     kernel32:KERNEL32.dll
 0000:ffe89000       .debug$S                   0000000180000000     kernel32:KERNEL32.dll
 0000:ffe89000       .debug$S                   0000000180000000     kernel32:KERNEL32.dll
 0000:ffe89000       .debug$S                   0000000180000000     kernel32:KERNEL32.dll
 0000:ffe89000       .debug$S                   0000000180000000     kernel32:KERNEL32.dll
 0000:ffe89000       .debug$S                   0000000180000000     kernel32:KERNEL32.dll
 0000:ffe89000       .debug$S                   0000000180000000     kernel32:KERNEL32.dll
 0000:ffe89000       .debug$S                   0000000180000000     kernel32:KERNEL32.dll
 0000:ffe89000       .debug$S                   0000000180000000     kernel32:KERNEL32.dll
 0000:ffe89000       .debug$S                   0000000180000000     kernel32:KERNEL32.dll
 0000:ffe89000       .debug$S                   0000000180000000     kernel32:KERNEL32.dll
 0000:ffe89000       .debug$S                   0000000180000000     kernel32:KERNEL32.dll
 0000:ffe89000       .debug$S                   0000000180000000     kernel32:KERNEL32.dll
 0000:ffe89000       .debug$S                   0000000180000000     kernel32:KERNEL32.dll
 0000:ffe89000       .debug$S                   0000000180000000     kernel32:KERNEL32.dll
 0000:ffe89000       .debug$S                   0000000180000000     kernel32:KERNEL32.dll
 0000:ffe89000       .debug$S                   0000000180000000     kernel32:KERNEL32.dll
 0000:ffe89000       .debug$S                   0000000180000000     kernel32:KERNEL32.dll
 0000:ffe89000       .debug$S                   0000000180000000     kernel32:KERNEL32.dll
 0000:ffe89000       .debug$S                   0000000180000000     kernel32:KERNEL32.dll
 0000:ffe89000       .debug$S                   0000000180000000     kernel32:KERNEL32.dll
 0000:ffe89000       .debug$S                   0000000180000000     kernel32:KERNEL32.dll
 0000:ffe89000       .debug$S                   0000000180000000     kernel32:KERNEL32.dll
 0000:ffe89000       .debug$S                   0000000180000000     kernel32:KERNEL32.dll
 0000:ffe89000       .debug$S                   0000000180000000     kernel32:KERNEL32.dll
 0000:ffe89000       .debug$S                   0000000180000000     kernel32:KERNEL32.dll
 0000:ffe89000       .debug$S                   0000000180000000     kernel32:KERNEL32.dll
 0000:ffe89000       .debug$S                   0000000180000000     kernel32:KERNEL32.dll
 0000:ffe89000       .debug$S                   0000000180000000     kernel32:KERNEL32.dll
 0000:ffe89000       .debug$S                   0000000180000000     kernel32:KERNEL32.dll
 0000:ffe89000       .debug$S                   0000000180000000     kernel32:KERNEL32.dll
 0000:ffe89000       .debug$S                   0000000180000000     kernel32:KERNEL32.dll
 0000:ffe89000       .debug$S                   0000000180000000     kernel32:KERNEL32.dll
 0000:ffe89000       .debug$S                   0000000180000000     kernel32:KERNEL32.dll
 0000:ffe89000       .debug$S                   0000000180000000     kernel32:KERNEL32.dll
 0000:ffe89000       .debug$S                   0000000180000000     kernel32:KERNEL32.dll
 0000:ffe89000       .debug$S                   0000000180000000     kernel32:KERNEL32.dll
 0000:ffe89000       .debug$S                   0000000180000000     kernel32:KERNEL32.dll
 0000:ffe89000       .debug$S                   0000000180000000     kernel32:KERNEL32.dll
 0000:ffe89000       .debug$S                   0000000180000000     kernel32:KERNEL32.dll
 0000:ffe89000       .debug$S                   0000000180000000     kernel32:KERNEL32.dll
 0000:ffe89000       .debug$S                   0000000180000000     kernel32:KERNEL32.dll
 0000:ffe89000       .debug$S                   0000000180000000     kernel32:KERNEL32.dll
 0000:ffe89000       .debug$S                   0000000180000000     kernel32:KERNEL32.dll
 0000:ffe89000       .debug$S                   0000000180000000     kernel32:KERNEL32.dll
 0000:ffe89000       .debug$S                   0000000180000000     kernel32:KERNEL32.dll
 0000:ffe89000       .debug$S                   0000000180000000     kernel32:KERNEL32.dll
 0000:ffe89000       .debug$S                   0000000180000000     kernel32:KERNEL32.dll
 0000:ffe89000       .debug$S                   0000000180000000     kernel32:KERNEL32.dll
 0000:ffe89000       .debug$S                   0000000180000000     kernel32:KERNEL32.dll
 0000:ffe89000       .debug$S                   0000000180000000     kernel32:KERNEL32.dll
 0000:ffe89000       .debug$S                   0000000180000000     kernel32:KERNEL32.dll
 0000:ffe89000       .debug$S                   0000000180000000     kernel32:KERNEL32.dll
 0000:ffe89000       .debug$S                   0000000180000000     kernel32:KERNEL32.dll
 0000:ffe89000       .debug$S                   0000000180000000     kernel32:KERNEL32.dll
 0000:ffe89000       .debug$S                   0000000180000000     kernel32:KERNEL32.dll
 0000:ffe89000       .debug$S                   0000000180000000     PhysXFoundation_64:PhysXFoundation_64.dll
 0000:ffe89000       .debug$S                   0000000180000000     PhysXFoundation_64:PhysXFoundation_64.dll
 0000:ffe89000       .debug$S                   0000000180000000     PhysXFoundation_64:PhysXFoundation_64.dll
 0000:ffe89000       .debug$S                   0000000180000000     PhysXFoundation_64:PhysXFoundation_64.dll
 0000:ffe89000       .debug$S                   0000000180000000     PhysXFoundation_64:PhysXFoundation_64.dll
 0000:ffe89000       .debug$S                   0000000180000000     PhysXFoundation_64:PhysXFoundation_64.dll
 0000:ffe89000       .debug$S                   0000000180000000     PhysXFoundation_64:PhysXFoundation_64.dll
 0000:ffe89000       .debug$S                   0000000180000000     PhysXFoundation_64:PhysXFoundation_64.dll
 0000:ffe89000       .debug$S                   0000000180000000     PhysXFoundation_64:PhysXFoundation_64.dll
 0000:ffe89000       .debug$S                   0000000180000000     PhysXFoundation_64:PhysXFoundation_64.dll
 0000:ffe89000       .debug$S                   0000000180000000     PhysXFoundation_64:PhysXFoundation_64.dll
 0000:ffe89000       .debug$S                   0000000180000000     PhysXFoundation_64:PhysXFoundation_64.dll
 0000:ffe89000       .debug$S                   0000000180000000     PhysXFoundation_64:PhysXFoundation_64.dll
 0000:ffe89000       .debug$S                   0000000180000000     PhysXFoundation_64:PhysXFoundation_64.dll
 0000:ffe89000       .debug$S                   0000000180000000     PhysXFoundation_64:PhysXFoundation_64.dll
 0000:ffe89000       .debug$S                   0000000180000000     PhysXFoundation_64:PhysXFoundation_64.dll
 0000:ffe89000       .debug$S                   0000000180000000     PhysXFoundation_64:PhysXFoundation_64.dll
 0000:ffe89000       .debug$S                   0000000180000000     PhysXFoundation_64:PhysXFoundation_64.dll
 0000:ffe89000       .debug$S                   0000000180000000     PhysXFoundation_64:PhysXFoundation_64.dll
 0000:ffe89000       .debug$S                   0000000180000000     PhysXFoundation_64:PhysXFoundation_64.dll
 0000:ffe89000       .debug$S                   0000000180000000     PhysXFoundation_64:PhysXFoundation_64.dll
 0000:ffe89000       .debug$S                   0000000180000000     PhysXFoundation_64:PhysXFoundation_64.dll
 0001:00000000       ??__EmaxFError@_VecMathTests@aos@shdfnd@physx@@YAXXZ 0000000180001000 f   GuBounds.obj
 0001:00000010       ??__EmaxV3Error@_VecMathTests@aos@shdfnd@physx@@YAXXZ 0000000180001010 f   GuBounds.obj
 0001:00000020       ??__EmaxV4Error@_VecMathTests@aos@shdfnd@physx@@YAXXZ 0000000180001020 f   GuBounds.obj
 0001:00000030       ??__EminFError@_VecMathTests@aos@shdfnd@physx@@YAXXZ 0000000180001030 f   GuBounds.obj
 0001:00000040       ??__EminV3Error@_VecMathTests@aos@shdfnd@physx@@YAXXZ 0000000180001040 f   GuBounds.obj
 0001:00000050       ??__EminV4Error@_VecMathTests@aos@shdfnd@physx@@YAXXZ 0000000180001050 f   GuBounds.obj
 0001:00000060       ??__EmaxFError@_VecMathTests@aos@shdfnd@physx@@YAXXZ 0000000180001060 f   GuBox.obj
 0001:00000070       ??__EmaxV3Error@_VecMathTests@aos@shdfnd@physx@@YAXXZ 0000000180001070 f   GuBox.obj
 0001:00000080       ??__EmaxV4Error@_VecMathTests@aos@shdfnd@physx@@YAXXZ 0000000180001080 f   GuBox.obj
 0001:00000090       ??__EminFError@_VecMathTests@aos@shdfnd@physx@@YAXXZ 0000000180001090 f   GuBox.obj
 0001:000000a0       ??__EminV3Error@_VecMathTests@aos@shdfnd@physx@@YAXXZ 00000001800010a0 f   GuBox.obj
 0001:000000b0       ??__EminV4Error@_VecMathTests@aos@shdfnd@physx@@YAXXZ 00000001800010b0 f   GuBox.obj
 0001:000000c0       ??__EmaxFError@_VecMathTests@aos@shdfnd@physx@@YAXXZ 00000001800010c0 f   GuCCTSweepTests.obj
 0001:000000d0       ??__EmaxV3Error@_VecMathTests@aos@shdfnd@physx@@YAXXZ 00000001800010d0 f   GuCCTSweepTests.obj
 0001:000000e0       ??__EmaxV4Error@_VecMathTests@aos@shdfnd@physx@@YAXXZ 00000001800010e0 f   GuCCTSweepTests.obj
 0001:000000f0       ??__EminFError@_VecMathTests@aos@shdfnd@physx@@YAXXZ 00000001800010f0 f   GuCCTSweepTests.obj
 0001:00000100       ??__EminV3Error@_VecMathTests@aos@shdfnd@physx@@YAXXZ 0000000180001100 f   GuCCTSweepTests.obj
 0001:00000110       ??__EminV4Error@_VecMathTests@aos@shdfnd@physx@@YAXXZ 0000000180001110 f   GuCCTSweepTests.obj
 0001:00000120       ??__EmaxFError@_VecMathTests@aos@shdfnd@physx@@YAXXZ 0000000180001120 f   GuGeometryQuery.obj
 0001:00000130       ??__EmaxV3Error@_VecMathTests@aos@shdfnd@physx@@YAXXZ 0000000180001130 f   GuGeometryQuery.obj
 0001:00000140       ??__EmaxV4Error@_VecMathTests@aos@shdfnd@physx@@YAXXZ 0000000180001140 f   GuGeometryQuery.obj
 0001:00000150       ??__EminFError@_VecMathTests@aos@shdfnd@physx@@YAXXZ 0000000180001150 f   GuGeometryQuery.obj
 0001:00000160       ??__EminV3Error@_VecMathTests@aos@shdfnd@physx@@YAXXZ 0000000180001160 f   GuGeometryQuery.obj
 0001:00000170       ??__EminV4Error@_VecMathTests@aos@shdfnd@physx@@YAXXZ 0000000180001170 f   GuGeometryQuery.obj
 0001:00000180       ??__EmaxFError@_VecMathTests@aos@shdfnd@physx@@YAXXZ 0000000180001180 f   GuGeometryUnion.obj
 0001:00000190       ??__EmaxV3Error@_VecMathTests@aos@shdfnd@physx@@YAXXZ 0000000180001190 f   GuGeometryUnion.obj
 0001:000001a0       ??__EmaxV4Error@_VecMathTests@aos@shdfnd@physx@@YAXXZ 00000001800011a0 f   GuGeometryUnion.obj
 0001:000001b0       ??__EminFError@_VecMathTests@aos@shdfnd@physx@@YAXXZ 00000001800011b0 f   GuGeometryUnion.obj
 0001:000001c0       ??__EminV3Error@_VecMathTests@aos@shdfnd@physx@@YAXXZ 00000001800011c0 f   GuGeometryUnion.obj
 0001:000001d0       ??__EminV4Error@_VecMathTests@aos@shdfnd@physx@@YAXXZ 00000001800011d0 f   GuGeometryUnion.obj
 0001:000001e0       ??__EmaxFError@_VecMathTests@aos@shdfnd@physx@@YAXXZ 00000001800011e0 f   GuInternal.obj
 0001:000001f0       ??__EmaxV3Error@_VecMathTests@aos@shdfnd@physx@@YAXXZ 00000001800011f0 f   GuInternal.obj
 0001:00000200       ??__EmaxV4Error@_VecMathTests@aos@shdfnd@physx@@YAXXZ 0000000180001200 f   GuInternal.obj
 0001:00000210       ??__EminFError@_VecMathTests@aos@shdfnd@physx@@YAXXZ 0000000180001210 f   GuInternal.obj
 0001:00000220       ??__EminV3Error@_VecMathTests@aos@shdfnd@physx@@YAXXZ 0000000180001220 f   GuInternal.obj
 0001:00000230       ??__EminV4Error@_VecMathTests@aos@shdfnd@physx@@YAXXZ 0000000180001230 f   GuInternal.obj
 0001:00000240       ??__EmaxFError@_VecMathTests@aos@shdfnd@physx@@YAXXZ 0000000180001240 f   GuMeshFactory.obj
 0001:00000250       ??__EmaxV3Error@_VecMathTests@aos@shdfnd@physx@@YAXXZ 0000000180001250 f   GuMeshFactory.obj
 0001:00000260       ??__EmaxV4Error@_VecMathTests@aos@shdfnd@physx@@YAXXZ 0000000180001260 f   GuMeshFactory.obj
 0001:00000270       ??__EminFError@_VecMathTests@aos@shdfnd@physx@@YAXXZ 0000000180001270 f   GuMeshFactory.obj
 0001:00000280       ??__EminV3Error@_VecMathTests@aos@shdfnd@physx@@YAXXZ 0000000180001280 f   GuMeshFactory.obj
 0001:00000290       ??__EminV4Error@_VecMathTests@aos@shdfnd@physx@@YAXXZ 0000000180001290 f   GuMeshFactory.obj
 0001:000002a0       ??__EmaxFError@_VecMathTests@aos@shdfnd@physx@@YAXXZ 00000001800012a0 f   GuMetaData.obj
 0001:000002b0       ??__EmaxV3Error@_VecMathTests@aos@shdfnd@physx@@YAXXZ 00000001800012b0 f   GuMetaData.obj
 0001:000002c0       ??__EmaxV4Error@_VecMathTests@aos@shdfnd@physx@@YAXXZ 00000001800012c0 f   GuMetaData.obj
 0001:000002d0       ??__EminFError@_VecMathTests@aos@shdfnd@physx@@YAXXZ 00000001800012d0 f   GuMetaData.obj
 0001:000002e0       ??__EminV3Error@_VecMathTests@aos@shdfnd@physx@@YAXXZ 00000001800012e0 f   GuMetaData.obj
 0001:000002f0       ??__EminV4Error@_VecMathTests@aos@shdfnd@physx@@YAXXZ 00000001800012f0 f   GuMetaData.obj
 0001:00000300       ??__EmaxFError@_VecMathTests@aos@shdfnd@physx@@YAXXZ 0000000180001300 f   GuMTD.obj
 0001:00000310       ??__EmaxV3Error@_VecMathTests@aos@shdfnd@physx@@YAXXZ 0000000180001310 f   GuMTD.obj
 0001:00000320       ??__EmaxV4Error@_VecMathTests@aos@shdfnd@physx@@YAXXZ 0000000180001320 f   GuMTD.obj
 0001:00000330       ??__EminFError@_VecMathTests@aos@shdfnd@physx@@YAXXZ 0000000180001330 f   GuMTD.obj
 0001:00000340       ??__EminV3Error@_VecMathTests@aos@shdfnd@physx@@YAXXZ 0000000180001340 f   GuMTD.obj
 0001:00000350       ??__EminV4Error@_VecMathTests@aos@shdfnd@physx@@YAXXZ 0000000180001350 f   GuMTD.obj
 0001:00000360       ??__EmaxFError@_VecMathTests@aos@shdfnd@physx@@YAXXZ 0000000180001360 f   GuOverlapTests.obj
 0001:00000370       ??__EmaxV3Error@_VecMathTests@aos@shdfnd@physx@@YAXXZ 0000000180001370 f   GuOverlapTests.obj
 0001:00000380       ??__EmaxV4Error@_VecMathTests@aos@shdfnd@physx@@YAXXZ 0000000180001380 f   GuOverlapTests.obj
 0001:00000390       ??__EminFError@_VecMathTests@aos@shdfnd@physx@@YAXXZ 0000000180001390 f   GuOverlapTests.obj
 0001:000003a0       ??__EminV3Error@_VecMathTests@aos@shdfnd@physx@@YAXXZ 00000001800013a0 f   GuOverlapTests.obj
 0001:000003b0       ??__EminV4Error@_VecMathTests@aos@shdfnd@physx@@YAXXZ 00000001800013b0 f   GuOverlapTests.obj
 0001:000003c0       ??__EmaxFError@_VecMathTests@aos@shdfnd@physx@@YAXXZ 00000001800013c0 f   GuRaycastTests.obj
 0001:000003d0       ??__EmaxV3Error@_VecMathTests@aos@shdfnd@physx@@YAXXZ 00000001800013d0 f   GuRaycastTests.obj
 0001:000003e0       ??__EmaxV4Error@_VecMathTests@aos@shdfnd@physx@@YAXXZ 00000001800013e0 f   GuRaycastTests.obj
 0001:000003f0       ??__EminFError@_VecMathTests@aos@shdfnd@physx@@YAXXZ 00000001800013f0 f   GuRaycastTests.obj
 0001:00000400       ??__EminV3Error@_VecMathTests@aos@shdfnd@physx@@YAXXZ 0000000180001400 f   GuRaycastTests.obj
 0001:00000410       ??__EminV4Error@_VecMathTests@aos@shdfnd@physx@@YAXXZ 0000000180001410 f   GuRaycastTests.obj
 0001:00000420       ??__EmaxFError@_VecMathTests@aos@shdfnd@physx@@YAXXZ 0000000180001420 f   GuSweepMTD.obj
 0001:00000430       ??__EmaxV3Error@_VecMathTests@aos@shdfnd@physx@@YAXXZ 0000000180001430 f   GuSweepMTD.obj
 0001:00000440       ??__EmaxV4Error@_VecMathTests@aos@shdfnd@physx@@YAXXZ 0000000180001440 f   GuSweepMTD.obj
 0001:00000450       ??__EminFError@_VecMathTests@aos@shdfnd@physx@@YAXXZ 0000000180001450 f   GuSweepMTD.obj
 0001:00000460       ??__EminV3Error@_VecMathTests@aos@shdfnd@physx@@YAXXZ 0000000180001460 f   GuSweepMTD.obj
 0001:00000470       ??__EminV4Error@_VecMathTests@aos@shdfnd@physx@@YAXXZ 0000000180001470 f   GuSweepMTD.obj
 0001:00000480       ??__EmaxFError@_VecMathTests@aos@shdfnd@physx@@YAXXZ 0000000180001480 f   GuSweepSharedTests.obj
 0001:00000490       ??__EmaxV3Error@_VecMathTests@aos@shdfnd@physx@@YAXXZ 0000000180001490 f   GuSweepSharedTests.obj
 0001:000004a0       ??__EmaxV4Error@_VecMathTests@aos@shdfnd@physx@@YAXXZ 00000001800014a0 f   GuSweepSharedTests.obj
 0001:000004b0       ??__EminFError@_VecMathTests@aos@shdfnd@physx@@YAXXZ 00000001800014b0 f   GuSweepSharedTests.obj
 0001:000004c0       ??__EminV3Error@_VecMathTests@aos@shdfnd@physx@@YAXXZ 00000001800014c0 f   GuSweepSharedTests.obj
 0001:000004d0       ??__EminV4Error@_VecMathTests@aos@shdfnd@physx@@YAXXZ 00000001800014d0 f   GuSweepSharedTests.obj
 0001:000004e0       ??__EmaxFError@_VecMathTests@aos@shdfnd@physx@@YAXXZ 00000001800014e0 f   GuSweepTests.obj
 0001:000004f0       ??__EmaxV3Error@_VecMathTests@aos@shdfnd@physx@@YAXXZ 00000001800014f0 f   GuSweepTests.obj
 0001:00000500       ??__EmaxV4Error@_VecMathTests@aos@shdfnd@physx@@YAXXZ 0000000180001500 f   GuSweepTests.obj
 0001:00000510       ??__EminFError@_VecMathTests@aos@shdfnd@physx@@YAXXZ 0000000180001510 f   GuSweepTests.obj
 0001:00000520       ??__EminV3Error@_VecMathTests@aos@shdfnd@physx@@YAXXZ 0000000180001520 f   GuSweepTests.obj
 0001:00000530       ??__EminV4Error@_VecMathTests@aos@shdfnd@physx@@YAXXZ 0000000180001530 f   GuSweepTests.obj
 0001:00000540       ??__EmaxFError@_VecMathTests@aos@shdfnd@physx@@YAXXZ 0000000180001540 f   GuAABBTreeBuild.obj
 0001:00000550       ??__EmaxV3Error@_VecMathTests@aos@shdfnd@physx@@YAXXZ 0000000180001550 f   GuAABBTreeBuild.obj
 0001:00000560       ??__EmaxV4Error@_VecMathTests@aos@shdfnd@physx@@YAXXZ 0000000180001560 f   GuAABBTreeBuild.obj
 0001:00000570       ??__EminFError@_VecMathTests@aos@shdfnd@physx@@YAXXZ 0000000180001570 f   GuAABBTreeBuild.obj
 0001:00000580       ??__EminV3Error@_VecMathTests@aos@shdfnd@physx@@YAXXZ 0000000180001580 f   GuAABBTreeBuild.obj
 0001:00000590       ??__EminV4Error@_VecMathTests@aos@shdfnd@physx@@YAXXZ 0000000180001590 f   GuAABBTreeBuild.obj
 0001:000005a0       ??__EmaxFError@_VecMathTests@aos@shdfnd@physx@@YAXXZ 00000001800015a0 f   GuBVHStructure.obj
 0001:000005b0       ??__EmaxV3Error@_VecMathTests@aos@shdfnd@physx@@YAXXZ 00000001800015b0 f   GuBVHStructure.obj
 0001:000005c0       ??__EmaxV4Error@_VecMathTests@aos@shdfnd@physx@@YAXXZ 00000001800015c0 f   GuBVHStructure.obj
 0001:000005d0       ??__EminFError@_VecMathTests@aos@shdfnd@physx@@YAXXZ 00000001800015d0 f   GuBVHStructure.obj
 0001:000005e0       ??__EminV3Error@_VecMathTests@aos@shdfnd@physx@@YAXXZ 00000001800015e0 f   GuBVHStructure.obj
 0001:000005f0       ??__EminV4Error@_VecMathTests@aos@shdfnd@physx@@YAXXZ 00000001800015f0 f   GuBVHStructure.obj
 0001:00000600       ??__EmaxFError@_VecMathTests@aos@shdfnd@physx@@YAXXZ 0000000180001600 f   GuCCDSweepConvexMesh.obj
 0001:00000610       ??__EmaxV3Error@_VecMathTests@aos@shdfnd@physx@@YAXXZ 0000000180001610 f   GuCCDSweepConvexMesh.obj
 0001:00000620       ??__EmaxV4Error@_VecMathTests@aos@shdfnd@physx@@YAXXZ 0000000180001620 f   GuCCDSweepConvexMesh.obj
 0001:00000630       ??__EminFError@_VecMathTests@aos@shdfnd@physx@@YAXXZ 0000000180001630 f   GuCCDSweepConvexMesh.obj
 0001:00000640       ??__EminV3Error@_VecMathTests@aos@shdfnd@physx@@YAXXZ 0000000180001640 f   GuCCDSweepConvexMesh.obj
 0001:00000650       ??__EminV4Error@_VecMathTests@aos@shdfnd@physx@@YAXXZ 0000000180001650 f   GuCCDSweepConvexMesh.obj
 0001:00000660       ??__EmaxFError@_VecMathTests@aos@shdfnd@physx@@YAXXZ 0000000180001660 f   GuCCDSweepPrimitives.obj
 0001:00000670       ??__EmaxV3Error@_VecMathTests@aos@shdfnd@physx@@YAXXZ 0000000180001670 f   GuCCDSweepPrimitives.obj
 0001:00000680       ??__EmaxV4Error@_VecMathTests@aos@shdfnd@physx@@YAXXZ 0000000180001680 f   GuCCDSweepPrimitives.obj
 0001:00000690       ??__EminFError@_VecMathTests@aos@shdfnd@physx@@YAXXZ 0000000180001690 f   GuCCDSweepPrimitives.obj
 0001:000006a0       ??__EminV3Error@_VecMathTests@aos@shdfnd@physx@@YAXXZ 00000001800016a0 f   GuCCDSweepPrimitives.obj
 0001:000006b0       ??__EminV4Error@_VecMathTests@aos@shdfnd@physx@@YAXXZ 00000001800016b0 f   GuCCDSweepPrimitives.obj
 0001:000006c0       ??__EmaxFError@_VecMathTests@aos@shdfnd@physx@@YAXXZ 00000001800016c0 f   GuBarycentricCoordinates.obj
 0001:000006d0       ??__EmaxV3Error@_VecMathTests@aos@shdfnd@physx@@YAXXZ 00000001800016d0 f   GuBarycentricCoordinates.obj
 0001:000006e0       ??__EmaxV4Error@_VecMathTests@aos@shdfnd@physx@@YAXXZ 00000001800016e0 f   GuBarycentricCoordinates.obj
 0001:000006f0       ??__EminFError@_VecMathTests@aos@shdfnd@physx@@YAXXZ 00000001800016f0 f   GuBarycentricCoordinates.obj
 0001:00000700       ??__EminV3Error@_VecMathTests@aos@shdfnd@physx@@YAXXZ 0000000180001700 f   GuBarycentricCoordinates.obj
 0001:00000710       ??__EminV4Error@_VecMathTests@aos@shdfnd@physx@@YAXXZ 0000000180001710 f   GuBarycentricCoordinates.obj
 0001:00000720       ??__EmaxFError@_VecMathTests@aos@shdfnd@physx@@YAXXZ 0000000180001720 f   GuContactBoxBox.obj
 0001:00000730       ??__EmaxV3Error@_VecMathTests@aos@shdfnd@physx@@YAXXZ 0000000180001730 f   GuContactBoxBox.obj
 0001:00000740       ??__EmaxV4Error@_VecMathTests@aos@shdfnd@physx@@YAXXZ 0000000180001740 f   GuContactBoxBox.obj
 0001:00000750       ??__EminFError@_VecMathTests@aos@shdfnd@physx@@YAXXZ 0000000180001750 f   GuContactBoxBox.obj
 0001:00000760       ??__EminV3Error@_VecMathTests@aos@shdfnd@physx@@YAXXZ 0000000180001760 f   GuContactBoxBox.obj
 0001:00000770       ??__EminV4Error@_VecMathTests@aos@shdfnd@physx@@YAXXZ 0000000180001770 f   GuContactBoxBox.obj
 0001:00000780       ??__EmaxFError@_VecMathTests@aos@shdfnd@physx@@YAXXZ 0000000180001780 f   GuContactCapsuleBox.obj
 0001:00000790       ??__EmaxV3Error@_VecMathTests@aos@shdfnd@physx@@YAXXZ 0000000180001790 f   GuContactCapsuleBox.obj
 0001:000007a0       ??__EmaxV4Error@_VecMathTests@aos@shdfnd@physx@@YAXXZ 00000001800017a0 f   GuContactCapsuleBox.obj
 0001:000007b0       ??__EminFError@_VecMathTests@aos@shdfnd@physx@@YAXXZ 00000001800017b0 f   GuContactCapsuleBox.obj
 0001:000007c0       ??__EminV3Error@_VecMathTests@aos@shdfnd@physx@@YAXXZ 00000001800017c0 f   GuContactCapsuleBox.obj
 0001:000007d0       ??__EminV4Error@_VecMathTests@aos@shdfnd@physx@@YAXXZ 00000001800017d0 f   GuContactCapsuleBox.obj
 0001:000007e0       ??__EmaxFError@_VecMathTests@aos@shdfnd@physx@@YAXXZ 00000001800017e0 f   GuContactCapsuleCapsule.obj
 0001:000007f0       ??__EmaxV3Error@_VecMathTests@aos@shdfnd@physx@@YAXXZ 00000001800017f0 f   GuContactCapsuleCapsule.obj
 0001:00000800       ??__EmaxV4Error@_VecMathTests@aos@shdfnd@physx@@YAXXZ 0000000180001800 f   GuContactCapsuleCapsule.obj
 0001:00000810       ??__EminFError@_VecMathTests@aos@shdfnd@physx@@YAXXZ 0000000180001810 f   GuContactCapsuleCapsule.obj
 0001:00000820       ??__EminV3Error@_VecMathTests@aos@shdfnd@physx@@YAXXZ 0000000180001820 f   GuContactCapsuleCapsule.obj
 0001:00000830       ??__EminV4Error@_VecMathTests@aos@shdfnd@physx@@YAXXZ 0000000180001830 f   GuContactCapsuleCapsule.obj
 0001:00000840       ??__EmaxFError@_VecMathTests@aos@shdfnd@physx@@YAXXZ 0000000180001840 f   GuContactCapsuleConvex.obj
 0001:00000850       ??__EmaxV3Error@_VecMathTests@aos@shdfnd@physx@@YAXXZ 0000000180001850 f   GuContactCapsuleConvex.obj
 0001:00000860       ??__EmaxV4Error@_VecMathTests@aos@shdfnd@physx@@YAXXZ 0000000180001860 f   GuContactCapsuleConvex.obj
 0001:00000870       ??__EminFError@_VecMathTests@aos@shdfnd@physx@@YAXXZ 0000000180001870 f   GuContactCapsuleConvex.obj
 0001:00000880       ??__EminV3Error@_VecMathTests@aos@shdfnd@physx@@YAXXZ 0000000180001880 f   GuContactCapsuleConvex.obj
 0001:00000890       ??__EminV4Error@_VecMathTests@aos@shdfnd@physx@@YAXXZ 0000000180001890 f   GuContactCapsuleConvex.obj
 0001:000008a0       ??__EmaxFError@_VecMathTests@aos@shdfnd@physx@@YAXXZ 00000001800018a0 f   GuContactCapsuleMesh.obj
 0001:000008b0       ??__EmaxV3Error@_VecMathTests@aos@shdfnd@physx@@YAXXZ 00000001800018b0 f   GuContactCapsuleMesh.obj
 0001:000008c0       ??__EmaxV4Error@_VecMathTests@aos@shdfnd@physx@@YAXXZ 00000001800018c0 f   GuContactCapsuleMesh.obj
 0001:000008d0       ??__EminFError@_VecMathTests@aos@shdfnd@physx@@YAXXZ 00000001800018d0 f   GuContactCapsuleMesh.obj
 0001:000008e0       ??__EminV3Error@_VecMathTests@aos@shdfnd@physx@@YAXXZ 00000001800018e0 f   GuContactCapsuleMesh.obj
 0001:000008f0       ??__EminV4Error@_VecMathTests@aos@shdfnd@physx@@YAXXZ 00000001800018f0 f   GuContactCapsuleMesh.obj
 0001:00000900       ??__EmaxFError@_VecMathTests@aos@shdfnd@physx@@YAXXZ 0000000180001900 f   GuContactConvexConvex.obj
 0001:00000910       ??__EmaxV3Error@_VecMathTests@aos@shdfnd@physx@@YAXXZ 0000000180001910 f   GuContactConvexConvex.obj
 0001:00000920       ??__EmaxV4Error@_VecMathTests@aos@shdfnd@physx@@YAXXZ 0000000180001920 f   GuContactConvexConvex.obj
 0001:00000930       ??__EminFError@_VecMathTests@aos@shdfnd@physx@@YAXXZ 0000000180001930 f   GuContactConvexConvex.obj
 0001:00000940       ??__EminV3Error@_VecMathTests@aos@shdfnd@physx@@YAXXZ 0000000180001940 f   GuContactConvexConvex.obj
 0001:00000950       ??__EminV4Error@_VecMathTests@aos@shdfnd@physx@@YAXXZ 0000000180001950 f   GuContactConvexConvex.obj
 0001:00000960       ??__EmaxFError@_VecMathTests@aos@shdfnd@physx@@YAXXZ 0000000180001960 f   GuContactConvexMesh.obj
 0001:00000970       ??__EmaxV3Error@_VecMathTests@aos@shdfnd@physx@@YAXXZ 0000000180001970 f   GuContactConvexMesh.obj
 0001:00000980       ??__EmaxV4Error@_VecMathTests@aos@shdfnd@physx@@YAXXZ 0000000180001980 f   GuContactConvexMesh.obj
 0001:00000990       ??__EminFError@_VecMathTests@aos@shdfnd@physx@@YAXXZ 0000000180001990 f   GuContactConvexMesh.obj
 0001:000009a0       ??__EminV3Error@_VecMathTests@aos@shdfnd@physx@@YAXXZ 00000001800019a0 f   GuContactConvexMesh.obj
 0001:000009b0       ??__EminV4Error@_VecMathTests@aos@shdfnd@physx@@YAXXZ 00000001800019b0 f   GuContactConvexMesh.obj
 0001:000009c0       ??__EmaxFError@_VecMathTests@aos@shdfnd@physx@@YAXXZ 00000001800019c0 f   GuContactPlaneBox.obj
 0001:000009d0       ??__EmaxV3Error@_VecMathTests@aos@shdfnd@physx@@YAXXZ 00000001800019d0 f   GuContactPlaneBox.obj
 0001:000009e0       ??__EmaxV4Error@_VecMathTests@aos@shdfnd@physx@@YAXXZ 00000001800019e0 f   GuContactPlaneBox.obj
 0001:000009f0       ??__EminFError@_VecMathTests@aos@shdfnd@physx@@YAXXZ 00000001800019f0 f   GuContactPlaneBox.obj
 0001:00000a00       ??__EminV3Error@_VecMathTests@aos@shdfnd@physx@@YAXXZ 0000000180001a00 f   GuContactPlaneBox.obj
 0001:00000a10       ??__EminV4Error@_VecMathTests@aos@shdfnd@physx@@YAXXZ 0000000180001a10 f   GuContactPlaneBox.obj
 0001:00000a20       ??__EmaxFError@_VecMathTests@aos@shdfnd@physx@@YAXXZ 0000000180001a20 f   GuContactPlaneCapsule.obj
 0001:00000a30       ??__EmaxV3Error@_VecMathTests@aos@shdfnd@physx@@YAXXZ 0000000180001a30 f   GuContactPlaneCapsule.obj
 0001:00000a40       ??__EmaxV4Error@_VecMathTests@aos@shdfnd@physx@@YAXXZ 0000000180001a40 f   GuContactPlaneCapsule.obj
 0001:00000a50       ??__EminFError@_VecMathTests@aos@shdfnd@physx@@YAXXZ 0000000180001a50 f   GuContactPlaneCapsule.obj
 0001:00000a60       ??__EminV3Error@_VecMathTests@aos@shdfnd@physx@@YAXXZ 0000000180001a60 f   GuContactPlaneCapsule.obj
 0001:00000a70       ??__EminV4Error@_VecMathTests@aos@shdfnd@physx@@YAXXZ 0000000180001a70 f   GuContactPlaneCapsule.obj
 0001:00000a80       ??__EmaxFError@_VecMathTests@aos@shdfnd@physx@@YAXXZ 0000000180001a80 f   GuContactPlaneConvex.obj
 0001:00000a90       ??__EmaxV3Error@_VecMathTests@aos@shdfnd@physx@@YAXXZ 0000000180001a90 f   GuContactPlaneConvex.obj
 0001:00000aa0       ??__EmaxV4Error@_VecMathTests@aos@shdfnd@physx@@YAXXZ 0000000180001aa0 f   GuContactPlaneConvex.obj
 0001:00000ab0       ??__EminFError@_VecMathTests@aos@shdfnd@physx@@YAXXZ 0000000180001ab0 f   GuContactPlaneConvex.obj
 0001:00000ac0       ??__EminV3Error@_VecMathTests@aos@shdfnd@physx@@YAXXZ 0000000180001ac0 f   GuContactPlaneConvex.obj
 0001:00000ad0       ??__EminV4Error@_VecMathTests@aos@shdfnd@physx@@YAXXZ 0000000180001ad0 f   GuContactPlaneConvex.obj
 0001:00000ae0       ??__EmaxFError@_VecMathTests@aos@shdfnd@physx@@YAXXZ 0000000180001ae0 f   GuContactSphereBox.obj
 0001:00000af0       ??__EmaxV3Error@_VecMathTests@aos@shdfnd@physx@@YAXXZ 0000000180001af0 f   GuContactSphereBox.obj
 0001:00000b00       ??__EmaxV4Error@_VecMathTests@aos@shdfnd@physx@@YAXXZ 0000000180001b00 f   GuContactSphereBox.obj
 0001:00000b10       ??__EminFError@_VecMathTests@aos@shdfnd@physx@@YAXXZ 0000000180001b10 f   GuContactSphereBox.obj
 0001:00000b20       ??__EminV3Error@_VecMathTests@aos@shdfnd@physx@@YAXXZ 0000000180001b20 f   GuContactSphereBox.obj
 0001:00000b30       ??__EminV4Error@_VecMathTests@aos@shdfnd@physx@@YAXXZ 0000000180001b30 f   GuContactSphereBox.obj
 0001:00000b40       ??__EmaxFError@_VecMathTests@aos@shdfnd@physx@@YAXXZ 0000000180001b40 f   GuContactSphereCapsule.obj
 0001:00000b50       ??__EmaxV3Error@_VecMathTests@aos@shdfnd@physx@@YAXXZ 0000000180001b50 f   GuContactSphereCapsule.obj
 0001:00000b60       ??__EmaxV4Error@_VecMathTests@aos@shdfnd@physx@@YAXXZ 0000000180001b60 f   GuContactSphereCapsule.obj
 0001:00000b70       ??__EminFError@_VecMathTests@aos@shdfnd@physx@@YAXXZ 0000000180001b70 f   GuContactSphereCapsule.obj
 0001:00000b80       ??__EminV3Error@_VecMathTests@aos@shdfnd@physx@@YAXXZ 0000000180001b80 f   GuContactSphereCapsule.obj
 0001:00000b90       ??__EminV4Error@_VecMathTests@aos@shdfnd@physx@@YAXXZ 0000000180001b90 f   GuContactSphereCapsule.obj
 0001:00000ba0       ??__EmaxFError@_VecMathTests@aos@shdfnd@physx@@YAXXZ 0000000180001ba0 f   GuContactSphereMesh.obj
 0001:00000bb0       ??__EmaxV3Error@_VecMathTests@aos@shdfnd@physx@@YAXXZ 0000000180001bb0 f   GuContactSphereMesh.obj
 0001:00000bc0       ??__EmaxV4Error@_VecMathTests@aos@shdfnd@physx@@YAXXZ 0000000180001bc0 f   GuContactSphereMesh.obj
 0001:00000bd0       ??__EminFError@_VecMathTests@aos@shdfnd@physx@@YAXXZ 0000000180001bd0 f   GuContactSphereMesh.obj
 0001:00000be0       ??__EminV3Error@_VecMathTests@aos@shdfnd@physx@@YAXXZ 0000000180001be0 f   GuContactSphereMesh.obj
 0001:00000bf0       ??__EminV4Error@_VecMathTests@aos@shdfnd@physx@@YAXXZ 0000000180001bf0 f   GuContactSphereMesh.obj
 0001:00000c00       ??__EmaxFError@_VecMathTests@aos@shdfnd@physx@@YAXXZ 0000000180001c00 f   GuContactSpherePlane.obj
 0001:00000c10       ??__EmaxV3Error@_VecMathTests@aos@shdfnd@physx@@YAXXZ 0000000180001c10 f   GuContactSpherePlane.obj
 0001:00000c20       ??__EmaxV4Error@_VecMathTests@aos@shdfnd@physx@@YAXXZ 0000000180001c20 f   GuContactSpherePlane.obj
 0001:00000c30       ??__EminFError@_VecMathTests@aos@shdfnd@physx@@YAXXZ 0000000180001c30 f   GuContactSpherePlane.obj
 0001:00000c40       ??__EminV3Error@_VecMathTests@aos@shdfnd@physx@@YAXXZ 0000000180001c40 f   GuContactSpherePlane.obj
 0001:00000c50       ??__EminV4Error@_VecMathTests@aos@shdfnd@physx@@YAXXZ 0000000180001c50 f   GuContactSpherePlane.obj
 0001:00000c60       ??__EmaxFError@_VecMathTests@aos@shdfnd@physx@@YAXXZ 0000000180001c60 f   GuContactSphereSphere.obj
 0001:00000c70       ??__EmaxV3Error@_VecMathTests@aos@shdfnd@physx@@YAXXZ 0000000180001c70 f   GuContactSphereSphere.obj
 0001:00000c80       ??__EmaxV4Error@_VecMathTests@aos@shdfnd@physx@@YAXXZ 0000000180001c80 f   GuContactSphereSphere.obj
 0001:00000c90       ??__EminFError@_VecMathTests@aos@shdfnd@physx@@YAXXZ 0000000180001c90 f   GuContactSphereSphere.obj
 0001:00000ca0       ??__EminV3Error@_VecMathTests@aos@shdfnd@physx@@YAXXZ 0000000180001ca0 f   GuContactSphereSphere.obj
 0001:00000cb0       ??__EminV4Error@_VecMathTests@aos@shdfnd@physx@@YAXXZ 0000000180001cb0 f   GuContactSphereSphere.obj
 0001:00000cc0       ??__EmaxFError@_VecMathTests@aos@shdfnd@physx@@YAXXZ 0000000180001cc0 f   GuConvexHelper.obj
 0001:00000cd0       ??__EmaxV3Error@_VecMathTests@aos@shdfnd@physx@@YAXXZ 0000000180001cd0 f   GuConvexHelper.obj
 0001:00000ce0       ??__EmaxV4Error@_VecMathTests@aos@shdfnd@physx@@YAXXZ 0000000180001ce0 f   GuConvexHelper.obj
 0001:00000cf0       ??__EminFError@_VecMathTests@aos@shdfnd@physx@@YAXXZ 0000000180001cf0 f   GuConvexHelper.obj
 0001:00000d00       ??__EminV3Error@_VecMathTests@aos@shdfnd@physx@@YAXXZ 0000000180001d00 f   GuConvexHelper.obj
 0001:00000d10       ??__EminV4Error@_VecMathTests@aos@shdfnd@physx@@YAXXZ 0000000180001d10 f   GuConvexHelper.obj
 0001:00000d20       ??__EboxVertexTable@physx@@YAXXZ 0000000180001d20 f   GuConvexSupportTable.obj
 0001:00000da0       ??__EmaxFError@_VecMathTests@aos@shdfnd@physx@@YAXXZ 0000000180001da0 f   GuConvexSupportTable.obj
 0001:00000db0       ??__EmaxV3Error@_VecMathTests@aos@shdfnd@physx@@YAXXZ 0000000180001db0 f   GuConvexSupportTable.obj
 0001:00000dc0       ??__EmaxV4Error@_VecMathTests@aos@shdfnd@physx@@YAXXZ 0000000180001dc0 f   GuConvexSupportTable.obj
 0001:00000dd0       ??__EminFError@_VecMathTests@aos@shdfnd@physx@@YAXXZ 0000000180001dd0 f   GuConvexSupportTable.obj
 0001:00000de0       ??__EminV3Error@_VecMathTests@aos@shdfnd@physx@@YAXXZ 0000000180001de0 f   GuConvexSupportTable.obj
 0001:00000df0       ??__EminV4Error@_VecMathTests@aos@shdfnd@physx@@YAXXZ 0000000180001df0 f   GuConvexSupportTable.obj
 0001:00000e00       ??__EmaxFError@_VecMathTests@aos@shdfnd@physx@@YAXXZ 0000000180001e00 f   GuConvexUtilsInternal.obj
 0001:00000e10       ??__EmaxV3Error@_VecMathTests@aos@shdfnd@physx@@YAXXZ 0000000180001e10 f   GuConvexUtilsInternal.obj
 0001:00000e20       ??__EmaxV4Error@_VecMathTests@aos@shdfnd@physx@@YAXXZ 0000000180001e20 f   GuConvexUtilsInternal.obj
 0001:00000e30       ??__EminFError@_VecMathTests@aos@shdfnd@physx@@YAXXZ 0000000180001e30 f   GuConvexUtilsInternal.obj
 0001:00000e40       ??__EminV3Error@_VecMathTests@aos@shdfnd@physx@@YAXXZ 0000000180001e40 f   GuConvexUtilsInternal.obj
 0001:00000e50       ??__EminV4Error@_VecMathTests@aos@shdfnd@physx@@YAXXZ 0000000180001e50 f   GuConvexUtilsInternal.obj
 0001:00000e60       ??__EmaxFError@_VecMathTests@aos@shdfnd@physx@@YAXXZ 0000000180001e60 f   GuDistancePointTriangle.obj
 0001:00000e70       ??__EmaxV3Error@_VecMathTests@aos@shdfnd@physx@@YAXXZ 0000000180001e70 f   GuDistancePointTriangle.obj
 0001:00000e80       ??__EmaxV4Error@_VecMathTests@aos@shdfnd@physx@@YAXXZ 0000000180001e80 f   GuDistancePointTriangle.obj
 0001:00000e90       ??__EminFError@_VecMathTests@aos@shdfnd@physx@@YAXXZ 0000000180001e90 f   GuDistancePointTriangle.obj
 0001:00000ea0       ??__EminV3Error@_VecMathTests@aos@shdfnd@physx@@YAXXZ 0000000180001ea0 f   GuDistancePointTriangle.obj
 0001:00000eb0       ??__EminV4Error@_VecMathTests@aos@shdfnd@physx@@YAXXZ 0000000180001eb0 f   GuDistancePointTriangle.obj
 0001:00000ec0       ??__EmaxFError@_VecMathTests@aos@shdfnd@physx@@YAXXZ 0000000180001ec0 f   GuDistanceSegmentSegment.obj
 0001:00000ed0       ??__EmaxV3Error@_VecMathTests@aos@shdfnd@physx@@YAXXZ 0000000180001ed0 f   GuDistanceSegmentSegment.obj
 0001:00000ee0       ??__EmaxV4Error@_VecMathTests@aos@shdfnd@physx@@YAXXZ 0000000180001ee0 f   GuDistanceSegmentSegment.obj
 0001:00000ef0       ??__EminFError@_VecMathTests@aos@shdfnd@physx@@YAXXZ 0000000180001ef0 f   GuDistanceSegmentSegment.obj
 0001:00000f00       ??__EminV3Error@_VecMathTests@aos@shdfnd@physx@@YAXXZ 0000000180001f00 f   GuDistanceSegmentSegment.obj
 0001:00000f10       ??__EminV4Error@_VecMathTests@aos@shdfnd@physx@@YAXXZ 0000000180001f10 f   GuDistanceSegmentSegment.obj
 0001:00000f20       ??__EmaxFError@_VecMathTests@aos@shdfnd@physx@@YAXXZ 0000000180001f20 f   GuDistanceSegmentTriangle.obj
 0001:00000f30       ??__EmaxV3Error@_VecMathTests@aos@shdfnd@physx@@YAXXZ 0000000180001f30 f   GuDistanceSegmentTriangle.obj
 0001:00000f40       ??__EmaxV4Error@_VecMathTests@aos@shdfnd@physx@@YAXXZ 0000000180001f40 f   GuDistanceSegmentTriangle.obj
 0001:00000f50       ??__EminFError@_VecMathTests@aos@shdfnd@physx@@YAXXZ 0000000180001f50 f   GuDistanceSegmentTriangle.obj
 0001:00000f60       ??__EminV3Error@_VecMathTests@aos@shdfnd@physx@@YAXXZ 0000000180001f60 f   GuDistanceSegmentTriangle.obj
 0001:00000f70       ??__EminV4Error@_VecMathTests@aos@shdfnd@physx@@YAXXZ 0000000180001f70 f   GuDistanceSegmentTriangle.obj
 0001:00000f80       ??__EmaxFError@_VecMathTests@aos@shdfnd@physx@@YAXXZ 0000000180001f80 f   GuEPA.obj
 0001:00000f90       ??__EmaxV3Error@_VecMathTests@aos@shdfnd@physx@@YAXXZ 0000000180001f90 f   GuEPA.obj
 0001:00000fa0       ??__EmaxV4Error@_VecMathTests@aos@shdfnd@physx@@YAXXZ 0000000180001fa0 f   GuEPA.obj
 0001:00000fb0       ??__EminFError@_VecMathTests@aos@shdfnd@physx@@YAXXZ 0000000180001fb0 f   GuEPA.obj
 0001:00000fc0       ??__EminV3Error@_VecMathTests@aos@shdfnd@physx@@YAXXZ 0000000180001fc0 f   GuEPA.obj
 0001:00000fd0       ??__EminV4Error@_VecMathTests@aos@shdfnd@physx@@YAXXZ 0000000180001fd0 f   GuEPA.obj
 0001:00000fe0       ??__EmaxFError@_VecMathTests@aos@shdfnd@physx@@YAXXZ 0000000180001fe0 f   GuGJKSimplex.obj
 0001:00000ff0       ??__EmaxV3Error@_VecMathTests@aos@shdfnd@physx@@YAXXZ 0000000180001ff0 f   GuGJKSimplex.obj
 0001:00001000       ??__EmaxV4Error@_VecMathTests@aos@shdfnd@physx@@YAXXZ 0000000180002000 f   GuGJKSimplex.obj
 0001:00001010       ??__EminFError@_VecMathTests@aos@shdfnd@physx@@YAXXZ 0000000180002010 f   GuGJKSimplex.obj
 0001:00001020       ??__EminV3Error@_VecMathTests@aos@shdfnd@physx@@YAXXZ 0000000180002020 f   GuGJKSimplex.obj
 0001:00001030       ??__EminV4Error@_VecMathTests@aos@shdfnd@physx@@YAXXZ 0000000180002030 f   GuGJKSimplex.obj
 0001:00001040       ??__EmaxFError@_VecMathTests@aos@shdfnd@physx@@YAXXZ 0000000180002040 f   GuGJKTest.obj
 0001:00001050       ??__EmaxV3Error@_VecMathTests@aos@shdfnd@physx@@YAXXZ 0000000180002050 f   GuGJKTest.obj
 0001:00001060       ??__EmaxV4Error@_VecMathTests@aos@shdfnd@physx@@YAXXZ 0000000180002060 f   GuGJKTest.obj
 0001:00001070       ??__EminFError@_VecMathTests@aos@shdfnd@physx@@YAXXZ 0000000180002070 f   GuGJKTest.obj
 0001:00001080       ??__EminV3Error@_VecMathTests@aos@shdfnd@physx@@YAXXZ 0000000180002080 f   GuGJKTest.obj
 0001:00001090       ??__EminV4Error@_VecMathTests@aos@shdfnd@physx@@YAXXZ 0000000180002090 f   GuGJKTest.obj
 0001:000010a0       ??__EmaxFError@_VecMathTests@aos@shdfnd@physx@@YAXXZ 00000001800020a0 f   GuHeightFieldUtil.obj
 0001:000010b0       ??__EmaxV3Error@_VecMathTests@aos@shdfnd@physx@@YAXXZ 00000001800020b0 f   GuHeightFieldUtil.obj
 0001:000010c0       ??__EmaxV4Error@_VecMathTests@aos@shdfnd@physx@@YAXXZ 00000001800020c0 f   GuHeightFieldUtil.obj
 0001:000010d0       ??__EminFError@_VecMathTests@aos@shdfnd@physx@@YAXXZ 00000001800020d0 f   GuHeightFieldUtil.obj
 0001:000010e0       ??__EminV3Error@_VecMathTests@aos@shdfnd@physx@@YAXXZ 00000001800020e0 f   GuHeightFieldUtil.obj
 0001:000010f0       ??__EminV4Error@_VecMathTests@aos@shdfnd@physx@@YAXXZ 00000001800020f0 f   GuHeightFieldUtil.obj
 0001:00001100       ??__EmaxFError@_VecMathTests@aos@shdfnd@physx@@YAXXZ 0000000180002100 f   GuOverlapTestsHF.obj
 0001:00001110       ??__EmaxV3Error@_VecMathTests@aos@shdfnd@physx@@YAXXZ 0000000180002110 f   GuOverlapTestsHF.obj
 0001:00001120       ??__EmaxV4Error@_VecMathTests@aos@shdfnd@physx@@YAXXZ 0000000180002120 f   GuOverlapTestsHF.obj
 0001:00001130       ??__EminFError@_VecMathTests@aos@shdfnd@physx@@YAXXZ 0000000180002130 f   GuOverlapTestsHF.obj
 0001:00001140       ??__EminV3Error@_VecMathTests@aos@shdfnd@physx@@YAXXZ 0000000180002140 f   GuOverlapTestsHF.obj
 0001:00001150       ??__EminV4Error@_VecMathTests@aos@shdfnd@physx@@YAXXZ 0000000180002150 f   GuOverlapTestsHF.obj
 0001:00001160       ??__EmaxFError@_VecMathTests@aos@shdfnd@physx@@YAXXZ 0000000180002160 f   GuSweepsHF.obj
 0001:00001170       ??__EmaxV3Error@_VecMathTests@aos@shdfnd@physx@@YAXXZ 0000000180002170 f   GuSweepsHF.obj
 0001:00001180       ??__EmaxV4Error@_VecMathTests@aos@shdfnd@physx@@YAXXZ 0000000180002180 f   GuSweepsHF.obj
 0001:00001190       ??__EminFError@_VecMathTests@aos@shdfnd@physx@@YAXXZ 0000000180002190 f   GuSweepsHF.obj
 0001:000011a0       ??__EminV3Error@_VecMathTests@aos@shdfnd@physx@@YAXXZ 00000001800021a0 f   GuSweepsHF.obj
 0001:000011b0       ??__EminV4Error@_VecMathTests@aos@shdfnd@physx@@YAXXZ 00000001800021b0 f   GuSweepsHF.obj
 0001:000011c0       ??__EmaxFError@_VecMathTests@aos@shdfnd@physx@@YAXXZ 00000001800021c0 f   GuIntersectionRayBox.obj
 0001:000011d0       ??__EmaxV3Error@_VecMathTests@aos@shdfnd@physx@@YAXXZ 00000001800021d0 f   GuIntersectionRayBox.obj
 0001:000011e0       ??__EmaxV4Error@_VecMathTests@aos@shdfnd@physx@@YAXXZ 00000001800021e0 f   GuIntersectionRayBox.obj
 0001:000011f0       ??__EminFError@_VecMathTests@aos@shdfnd@physx@@YAXXZ 00000001800021f0 f   GuIntersectionRayBox.obj
 0001:00001200       ??__EminV3Error@_VecMathTests@aos@shdfnd@physx@@YAXXZ 0000000180002200 f   GuIntersectionRayBox.obj
 0001:00001210       ??__EminV4Error@_VecMathTests@aos@shdfnd@physx@@YAXXZ 0000000180002210 f   GuIntersectionRayBox.obj
 0001:00001220       ??__EmaxFError@_VecMathTests@aos@shdfnd@physx@@YAXXZ 0000000180002220 f   GuIntersectionTriangleBox.obj
 0001:00001230       ??__EmaxV3Error@_VecMathTests@aos@shdfnd@physx@@YAXXZ 0000000180002230 f   GuIntersectionTriangleBox.obj
 0001:00001240       ??__EmaxV4Error@_VecMathTests@aos@shdfnd@physx@@YAXXZ 0000000180002240 f   GuIntersectionTriangleBox.obj
 0001:00001250       ??__EminFError@_VecMathTests@aos@shdfnd@physx@@YAXXZ 0000000180002250 f   GuIntersectionTriangleBox.obj
 0001:00001260       ??__EminV3Error@_VecMathTests@aos@shdfnd@physx@@YAXXZ 0000000180002260 f   GuIntersectionTriangleBox.obj
 0001:00001270       ??__EminV4Error@_VecMathTests@aos@shdfnd@physx@@YAXXZ 0000000180002270 f   GuIntersectionTriangleBox.obj
 0001:00001280       ??__EsignV@@YAXXZ          0000000180002280 f   GuIntersectionTriangleBox.obj
 0001:00001290       ??__EmaxFError@_VecMathTests@aos@shdfnd@physx@@YAXXZ 0000000180002290 f   GuBV4.obj
 0001:000012a0       ??__EmaxV3Error@_VecMathTests@aos@shdfnd@physx@@YAXXZ 00000001800022a0 f   GuBV4.obj
 0001:000012b0       ??__EmaxV4Error@_VecMathTests@aos@shdfnd@physx@@YAXXZ 00000001800022b0 f   GuBV4.obj
 0001:000012c0       ??__EminFError@_VecMathTests@aos@shdfnd@physx@@YAXXZ 00000001800022c0 f   GuBV4.obj
 0001:000012d0       ??__EminV3Error@_VecMathTests@aos@shdfnd@physx@@YAXXZ 00000001800022d0 f   GuBV4.obj
 0001:000012e0       ??__EminV4Error@_VecMathTests@aos@shdfnd@physx@@YAXXZ 00000001800022e0 f   GuBV4.obj
 0001:000012f0       ??__EmaxFError@_VecMathTests@aos@shdfnd@physx@@YAXXZ 00000001800022f0 f   GuBV4Build.obj
 0001:00001300       ??__EmaxV3Error@_VecMathTests@aos@shdfnd@physx@@YAXXZ 0000000180002300 f   GuBV4Build.obj
 0001:00001310       ??__EmaxV4Error@_VecMathTests@aos@shdfnd@physx@@YAXXZ 0000000180002310 f   GuBV4Build.obj
 0001:00001320       ??__EminFError@_VecMathTests@aos@shdfnd@physx@@YAXXZ 0000000180002320 f   GuBV4Build.obj
 0001:00001330       ??__EminV3Error@_VecMathTests@aos@shdfnd@physx@@YAXXZ 0000000180002330 f   GuBV4Build.obj
 0001:00001340       ??__EminV4Error@_VecMathTests@aos@shdfnd@physx@@YAXXZ 0000000180002340 f   GuBV4Build.obj
 0001:00001350       ??__EepsFloat4@?A0x9951d7eb@@YAXXZ 0000000180002350 f   GuBV4_AABBSweep.obj
 0001:00001360       ??__EepsInflateFloat4@?A0x9951d7eb@@YAXXZ 0000000180002360 f   GuBV4_AABBSweep.obj
 0001:00001370       ??__EmaxFError@_VecMathTests@aos@shdfnd@physx@@YAXXZ 0000000180002370 f   GuBV4_AABBSweep.obj
 0001:00001380       ??__EmaxV3Error@_VecMathTests@aos@shdfnd@physx@@YAXXZ 0000000180002380 f   GuBV4_AABBSweep.obj
 0001:00001390       ??__EmaxV4Error@_VecMathTests@aos@shdfnd@physx@@YAXXZ 0000000180002390 f   GuBV4_AABBSweep.obj
 0001:000013a0       ??__EminFError@_VecMathTests@aos@shdfnd@physx@@YAXXZ 00000001800023a0 f   GuBV4_AABBSweep.obj
 0001:000013b0       ??__EminV3Error@_VecMathTests@aos@shdfnd@physx@@YAXXZ 00000001800023b0 f   GuBV4_AABBSweep.obj
 0001:000013c0       ??__EminV4Error@_VecMathTests@aos@shdfnd@physx@@YAXXZ 00000001800023c0 f   GuBV4_AABBSweep.obj
 0001:000013d0       ??__EsignMask@?A0x9951d7eb@@YAXXZ 00000001800023d0 f   GuBV4_AABBSweep.obj
 0001:000013e0       ??__Etwos@?A0x9951d7eb@@YAXXZ 00000001800023e0 f   GuBV4_AABBSweep.obj
 0001:000013f0       ??__Ezeroes@?A0x9951d7eb@@YAXXZ 00000001800023f0 f   GuBV4_AABBSweep.obj
 0001:00001400       ??__EmaxFError@_VecMathTests@aos@shdfnd@physx@@YAXXZ 0000000180002400 f   GuBV4_BoxOverlap.obj
 0001:00001410       ??__EmaxV3Error@_VecMathTests@aos@shdfnd@physx@@YAXXZ 0000000180002410 f   GuBV4_BoxOverlap.obj
 0001:00001420       ??__EmaxV4Error@_VecMathTests@aos@shdfnd@physx@@YAXXZ 0000000180002420 f   GuBV4_BoxOverlap.obj
 0001:00001430       ??__EminFError@_VecMathTests@aos@shdfnd@physx@@YAXXZ 0000000180002430 f   GuBV4_BoxOverlap.obj
 0001:00001440       ??__EminV3Error@_VecMathTests@aos@shdfnd@physx@@YAXXZ 0000000180002440 f   GuBV4_BoxOverlap.obj
 0001:00001450       ??__EminV4Error@_VecMathTests@aos@shdfnd@physx@@YAXXZ 0000000180002450 f   GuBV4_BoxOverlap.obj
 0001:00001460       ??__EmaxFError@_VecMathTests@aos@shdfnd@physx@@YAXXZ 0000000180002460 f   GuBV4_CapsuleSweep.obj
 0001:00001470       ??__EmaxV3Error@_VecMathTests@aos@shdfnd@physx@@YAXXZ 0000000180002470 f   GuBV4_CapsuleSweep.obj
 0001:00001480       ??__EmaxV4Error@_VecMathTests@aos@shdfnd@physx@@YAXXZ 0000000180002480 f   GuBV4_CapsuleSweep.obj
 0001:00001490       ??__EminFError@_VecMathTests@aos@shdfnd@physx@@YAXXZ 0000000180002490 f   GuBV4_CapsuleSweep.obj
 0001:000014a0       ??__EminV3Error@_VecMathTests@aos@shdfnd@physx@@YAXXZ 00000001800024a0 f   GuBV4_CapsuleSweep.obj
 0001:000014b0       ??__EminV4Error@_VecMathTests@aos@shdfnd@physx@@YAXXZ 00000001800024b0 f   GuBV4_CapsuleSweep.obj
 0001:000014c0       ??__EepsFloat4@?A0x2c6f3ae4@@YAXXZ 00000001800024c0 f   GuBV4_CapsuleSweepAA.obj
 0001:000014d0       ??__EepsInflateFloat4@?A0x2c6f3ae4@@YAXXZ 00000001800024d0 f   GuBV4_CapsuleSweepAA.obj
 0001:000014e0       ??__EmaxFError@_VecMathTests@aos@shdfnd@physx@@YAXXZ 00000001800024e0 f   GuBV4_CapsuleSweepAA.obj
 0001:000014f0       ??__EmaxV3Error@_VecMathTests@aos@shdfnd@physx@@YAXXZ 00000001800024f0 f   GuBV4_CapsuleSweepAA.obj
 0001:00001500       ??__EmaxV4Error@_VecMathTests@aos@shdfnd@physx@@YAXXZ 0000000180002500 f   GuBV4_CapsuleSweepAA.obj
 0001:00001510       ??__EminFError@_VecMathTests@aos@shdfnd@physx@@YAXXZ 0000000180002510 f   GuBV4_CapsuleSweepAA.obj
 0001:00001520       ??__EminV3Error@_VecMathTests@aos@shdfnd@physx@@YAXXZ 0000000180002520 f   GuBV4_CapsuleSweepAA.obj
 0001:00001530       ??__EminV4Error@_VecMathTests@aos@shdfnd@physx@@YAXXZ 0000000180002530 f   GuBV4_CapsuleSweepAA.obj
 0001:00001540       ??__EsignMask@?A0x2c6f3ae4@@YAXXZ 0000000180002540 f   GuBV4_CapsuleSweepAA.obj
 0001:00001550       ??__Etwos@?A0x2c6f3ae4@@YAXXZ 0000000180002550 f   GuBV4_CapsuleSweepAA.obj
 0001:00001560       ??__Ezeroes@?A0x2c6f3ae4@@YAXXZ 0000000180002560 f   GuBV4_CapsuleSweepAA.obj
 0001:00001570       ??__EmaxFError@_VecMathTests@aos@shdfnd@physx@@YAXXZ 0000000180002570 f   GuBV4_OBBSweep.obj
 0001:00001580       ??__EmaxV3Error@_VecMathTests@aos@shdfnd@physx@@YAXXZ 0000000180002580 f   GuBV4_OBBSweep.obj
 0001:00001590       ??__EmaxV4Error@_VecMathTests@aos@shdfnd@physx@@YAXXZ 0000000180002590 f   GuBV4_OBBSweep.obj
 0001:000015a0       ??__EminFError@_VecMathTests@aos@shdfnd@physx@@YAXXZ 00000001800025a0 f   GuBV4_OBBSweep.obj
 0001:000015b0       ??__EminV3Error@_VecMathTests@aos@shdfnd@physx@@YAXXZ 00000001800025b0 f   GuBV4_OBBSweep.obj
 0001:000015c0       ??__EminV4Error@_VecMathTests@aos@shdfnd@physx@@YAXXZ 00000001800025c0 f   GuBV4_OBBSweep.obj
 0001:000015d0       ??__EepsFloat4@?A0x65b2225b@@YAXXZ 00000001800025d0 f   GuBV4_Raycast.obj
 0001:000015e0       ??__EepsInflateFloat4@?A0x65b2225b@@YAXXZ 00000001800025e0 f   GuBV4_Raycast.obj
 0001:000015f0       ??__EmaxFError@_VecMathTests@aos@shdfnd@physx@@YAXXZ 00000001800025f0 f   GuBV4_Raycast.obj
 0001:00001600       ??__EmaxV3Error@_VecMathTests@aos@shdfnd@physx@@YAXXZ 0000000180002600 f   GuBV4_Raycast.obj
 0001:00001610       ??__EmaxV4Error@_VecMathTests@aos@shdfnd@physx@@YAXXZ 0000000180002610 f   GuBV4_Raycast.obj
 0001:00001620       ??__EminFError@_VecMathTests@aos@shdfnd@physx@@YAXXZ 0000000180002620 f   GuBV4_Raycast.obj
 0001:00001630       ??__EminV3Error@_VecMathTests@aos@shdfnd@physx@@YAXXZ 0000000180002630 f   GuBV4_Raycast.obj
 0001:00001640       ??__EminV4Error@_VecMathTests@aos@shdfnd@physx@@YAXXZ 0000000180002640 f   GuBV4_Raycast.obj
 0001:00001650       ??__EsignMask@?A0x65b2225b@@YAXXZ 0000000180002650 f   GuBV4_Raycast.obj
 0001:00001660       ??__Etwos@?A0x65b2225b@@YAXXZ 0000000180002660 f   GuBV4_Raycast.obj
 0001:00001670       ??__Ezeroes@?A0x65b2225b@@YAXXZ 0000000180002670 f   GuBV4_Raycast.obj
 0001:00001680       ??__EmaxFError@_VecMathTests@aos@shdfnd@physx@@YAXXZ 0000000180002680 f   GuBV4_SphereOverlap.obj
 0001:00001690       ??__EmaxV3Error@_VecMathTests@aos@shdfnd@physx@@YAXXZ 0000000180002690 f   GuBV4_SphereOverlap.obj
 0001:000016a0       ??__EmaxV4Error@_VecMathTests@aos@shdfnd@physx@@YAXXZ 00000001800026a0 f   GuBV4_SphereOverlap.obj
 0001:000016b0       ??__EminFError@_VecMathTests@aos@shdfnd@physx@@YAXXZ 00000001800026b0 f   GuBV4_SphereOverlap.obj
 0001:000016c0       ??__EminV3Error@_VecMathTests@aos@shdfnd@physx@@YAXXZ 00000001800026c0 f   GuBV4_SphereOverlap.obj
 0001:000016d0       ??__EminV4Error@_VecMathTests@aos@shdfnd@physx@@YAXXZ 00000001800026d0 f   GuBV4_SphereOverlap.obj
 0001:000016e0       ??__EepsFloat4@?A0x1a8a2b21@@YAXXZ 00000001800026e0 f   GuBV4_SphereSweep.obj
 0001:000016f0       ??__EepsInflateFloat4@?A0x1a8a2b21@@YAXXZ 00000001800026f0 f   GuBV4_SphereSweep.obj
 0001:00001700       ??__EmaxFError@_VecMathTests@aos@shdfnd@physx@@YAXXZ 0000000180002700 f   GuBV4_SphereSweep.obj
 0001:00001710       ??__EmaxV3Error@_VecMathTests@aos@shdfnd@physx@@YAXXZ 0000000180002710 f   GuBV4_SphereSweep.obj
 0001:00001720       ??__EmaxV4Error@_VecMathTests@aos@shdfnd@physx@@YAXXZ 0000000180002720 f   GuBV4_SphereSweep.obj
 0001:00001730       ??__EminFError@_VecMathTests@aos@shdfnd@physx@@YAXXZ 0000000180002730 f   GuBV4_SphereSweep.obj
 0001:00001740       ??__EminV3Error@_VecMathTests@aos@shdfnd@physx@@YAXXZ 0000000180002740 f   GuBV4_SphereSweep.obj
 0001:00001750       ??__EminV4Error@_VecMathTests@aos@shdfnd@physx@@YAXXZ 0000000180002750 f   GuBV4_SphereSweep.obj
 0001:00001760       ??__EsignMask@?A0x1a8a2b21@@YAXXZ 0000000180002760 f   GuBV4_SphereSweep.obj
 0001:00001770       ??__Etwos@?A0x1a8a2b21@@YAXXZ 0000000180002770 f   GuBV4_SphereSweep.obj
 0001:00001780       ??__Ezeroes@?A0x1a8a2b21@@YAXXZ 0000000180002780 f   GuBV4_SphereSweep.obj
 0001:00001790       ??__EmaxFError@_VecMathTests@aos@shdfnd@physx@@YAXXZ 0000000180002790 f   GuMidphaseBV4.obj
 0001:000017a0       ??__EmaxV3Error@_VecMathTests@aos@shdfnd@physx@@YAXXZ 00000001800027a0 f   GuMidphaseBV4.obj
 0001:000017b0       ??__EmaxV4Error@_VecMathTests@aos@shdfnd@physx@@YAXXZ 00000001800027b0 f   GuMidphaseBV4.obj
 0001:000017c0       ??__EminFError@_VecMathTests@aos@shdfnd@physx@@YAXXZ 00000001800027c0 f   GuMidphaseBV4.obj
 0001:000017d0       ??__EminV3Error@_VecMathTests@aos@shdfnd@physx@@YAXXZ 00000001800027d0 f   GuMidphaseBV4.obj
 0001:000017e0       ??__EminV4Error@_VecMathTests@aos@shdfnd@physx@@YAXXZ 00000001800027e0 f   GuMidphaseBV4.obj
 0001:000017f0       ??__EmaxFError@_VecMathTests@aos@shdfnd@physx@@YAXXZ 00000001800027f0 f   GuMeshQuery.obj
 0001:00001800       ??__EmaxV3Error@_VecMathTests@aos@shdfnd@physx@@YAXXZ 0000000180002800 f   GuMeshQuery.obj
 0001:00001810       ??__EmaxV4Error@_VecMathTests@aos@shdfnd@physx@@YAXXZ 0000000180002810 f   GuMeshQuery.obj
 0001:00001820       ??__EminFError@_VecMathTests@aos@shdfnd@physx@@YAXXZ 0000000180002820 f   GuMeshQuery.obj
 0001:00001830       ??__EminV3Error@_VecMathTests@aos@shdfnd@physx@@YAXXZ 0000000180002830 f   GuMeshQuery.obj
 0001:00001840       ??__EminV4Error@_VecMathTests@aos@shdfnd@physx@@YAXXZ 0000000180002840 f   GuMeshQuery.obj
 0001:00001850       ??__EmaxFError@_VecMathTests@aos@shdfnd@physx@@YAXXZ 0000000180002850 f   GuMidphaseRTree.obj
 0001:00001860       ??__EmaxV3Error@_VecMathTests@aos@shdfnd@physx@@YAXXZ 0000000180002860 f   GuMidphaseRTree.obj
 0001:00001870       ??__EmaxV4Error@_VecMathTests@aos@shdfnd@physx@@YAXXZ 0000000180002870 f   GuMidphaseRTree.obj
 0001:00001880       ??__EminFError@_VecMathTests@aos@shdfnd@physx@@YAXXZ 0000000180002880 f   GuMidphaseRTree.obj
 0001:00001890       ??__EminV3Error@_VecMathTests@aos@shdfnd@physx@@YAXXZ 0000000180002890 f   GuMidphaseRTree.obj
 0001:000018a0       ??__EminV4Error@_VecMathTests@aos@shdfnd@physx@@YAXXZ 00000001800028a0 f   GuMidphaseRTree.obj
 0001:000018b0       ??__EmaxFError@_VecMathTests@aos@shdfnd@physx@@YAXXZ 00000001800028b0 f   GuOverlapTestsMesh.obj
 0001:000018c0       ??__EmaxV3Error@_VecMathTests@aos@shdfnd@physx@@YAXXZ 00000001800028c0 f   GuOverlapTestsMesh.obj
 0001:000018d0       ??__EmaxV4Error@_VecMathTests@aos@shdfnd@physx@@YAXXZ 00000001800028d0 f   GuOverlapTestsMesh.obj
 0001:000018e0       ??__EminFError@_VecMathTests@aos@shdfnd@physx@@YAXXZ 00000001800028e0 f   GuOverlapTestsMesh.obj
 0001:000018f0       ??__EminV3Error@_VecMathTests@aos@shdfnd@physx@@YAXXZ 00000001800028f0 f   GuOverlapTestsMesh.obj
 0001:00001900       ??__EminV4Error@_VecMathTests@aos@shdfnd@physx@@YAXXZ 0000000180002900 f   GuOverlapTestsMesh.obj
 0001:00001910       ??__EmaxFError@_VecMathTests@aos@shdfnd@physx@@YAXXZ 0000000180002910 f   GuRTree.obj
 0001:00001920       ??__EmaxV3Error@_VecMathTests@aos@shdfnd@physx@@YAXXZ 0000000180002920 f   GuRTree.obj
 0001:00001930       ??__EmaxV4Error@_VecMathTests@aos@shdfnd@physx@@YAXXZ 0000000180002930 f   GuRTree.obj
 0001:00001940       ??__EminFError@_VecMathTests@aos@shdfnd@physx@@YAXXZ 0000000180002940 f   GuRTree.obj
 0001:00001950       ??__EminV3Error@_VecMathTests@aos@shdfnd@physx@@YAXXZ 0000000180002950 f   GuRTree.obj
 0001:00001960       ??__EminV4Error@_VecMathTests@aos@shdfnd@physx@@YAXXZ 0000000180002960 f   GuRTree.obj
 0001:00001970       ??__EepsFloat4@?A0xfbdada65@@YAXXZ 0000000180002970 f   GuRTreeQueries.obj
 0001:00001980       ??__EepsInflateFloat4@?A0xfbdada65@@YAXXZ 0000000180002980 f   GuRTreeQueries.obj
 0001:00001990       ??__EmaxFError@_VecMathTests@aos@shdfnd@physx@@YAXXZ 0000000180002990 f   GuRTreeQueries.obj
 0001:000019a0       ??__EmaxV3Error@_VecMathTests@aos@shdfnd@physx@@YAXXZ 00000001800029a0 f   GuRTreeQueries.obj
 0001:000019b0       ??__EmaxV4Error@_VecMathTests@aos@shdfnd@physx@@YAXXZ 00000001800029b0 f   GuRTreeQueries.obj
 0001:000019c0       ??__EminFError@_VecMathTests@aos@shdfnd@physx@@YAXXZ 00000001800029c0 f   GuRTreeQueries.obj
 0001:000019d0       ??__EminV3Error@_VecMathTests@aos@shdfnd@physx@@YAXXZ 00000001800029d0 f   GuRTreeQueries.obj
 0001:000019e0       ??__EminV4Error@_VecMathTests@aos@shdfnd@physx@@YAXXZ 00000001800029e0 f   GuRTreeQueries.obj
 0001:000019f0       ??__EsignMask@?A0xfbdada65@@YAXXZ 00000001800029f0 f   GuRTreeQueries.obj
 0001:00001a00       ??__Etwos@?A0xfbdada65@@YAXXZ 0000000180002a00 f   GuRTreeQueries.obj
 0001:00001a10       ??__Ezeroes@?A0xfbdada65@@YAXXZ 0000000180002a10 f   GuRTreeQueries.obj
 0001:00001a20       ??__EmaxFError@_VecMathTests@aos@shdfnd@physx@@YAXXZ 0000000180002a20 f   GuSweepsMesh.obj
 0001:00001a30       ??__EmaxV3Error@_VecMathTests@aos@shdfnd@physx@@YAXXZ 0000000180002a30 f   GuSweepsMesh.obj
 0001:00001a40       ??__EmaxV4Error@_VecMathTests@aos@shdfnd@physx@@YAXXZ 0000000180002a40 f   GuSweepsMesh.obj
 0001:00001a50       ??__EminFError@_VecMathTests@aos@shdfnd@physx@@YAXXZ 0000000180002a50 f   GuSweepsMesh.obj
 0001:00001a60       ??__EminV3Error@_VecMathTests@aos@shdfnd@physx@@YAXXZ 0000000180002a60 f   GuSweepsMesh.obj
 0001:00001a70       ??__EminV4Error@_VecMathTests@aos@shdfnd@physx@@YAXXZ 0000000180002a70 f   GuSweepsMesh.obj
 0001:00001a80       ??__EmaxFError@_VecMathTests@aos@shdfnd@physx@@YAXXZ 0000000180002a80 f   GuTriangleMesh.obj
 0001:00001a90       ??__EmaxV3Error@_VecMathTests@aos@shdfnd@physx@@YAXXZ 0000000180002a90 f   GuTriangleMesh.obj
 0001:00001aa0       ??__EmaxV4Error@_VecMathTests@aos@shdfnd@physx@@YAXXZ 0000000180002aa0 f   GuTriangleMesh.obj
 0001:00001ab0       ??__EminFError@_VecMathTests@aos@shdfnd@physx@@YAXXZ 0000000180002ab0 f   GuTriangleMesh.obj
 0001:00001ac0       ??__EminV3Error@_VecMathTests@aos@shdfnd@physx@@YAXXZ 0000000180002ac0 f   GuTriangleMesh.obj
 0001:00001ad0       ??__EminV4Error@_VecMathTests@aos@shdfnd@physx@@YAXXZ 0000000180002ad0 f   GuTriangleMesh.obj
 0001:00001ae0       ??__EmaxFError@_VecMathTests@aos@shdfnd@physx@@YAXXZ 0000000180002ae0 f   GuTriangleMeshBV4.obj
 0001:00001af0       ??__EmaxV3Error@_VecMathTests@aos@shdfnd@physx@@YAXXZ 0000000180002af0 f   GuTriangleMeshBV4.obj
 0001:00001b00       ??__EmaxV4Error@_VecMathTests@aos@shdfnd@physx@@YAXXZ 0000000180002b00 f   GuTriangleMeshBV4.obj
 0001:00001b10       ??__EminFError@_VecMathTests@aos@shdfnd@physx@@YAXXZ 0000000180002b10 f   GuTriangleMeshBV4.obj
 0001:00001b20       ??__EminV3Error@_VecMathTests@aos@shdfnd@physx@@YAXXZ 0000000180002b20 f   GuTriangleMeshBV4.obj
 0001:00001b30       ??__EminV4Error@_VecMathTests@aos@shdfnd@physx@@YAXXZ 0000000180002b30 f   GuTriangleMeshBV4.obj
 0001:00001b40       ??__EmaxFError@_VecMathTests@aos@shdfnd@physx@@YAXXZ 0000000180002b40 f   GuTriangleMeshRTree.obj
 0001:00001b50       ??__EmaxV3Error@_VecMathTests@aos@shdfnd@physx@@YAXXZ 0000000180002b50 f   GuTriangleMeshRTree.obj
 0001:00001b60       ??__EmaxV4Error@_VecMathTests@aos@shdfnd@physx@@YAXXZ 0000000180002b60 f   GuTriangleMeshRTree.obj
 0001:00001b70       ??__EminFError@_VecMathTests@aos@shdfnd@physx@@YAXXZ 0000000180002b70 f   GuTriangleMeshRTree.obj
 0001:00001b80       ??__EminV3Error@_VecMathTests@aos@shdfnd@physx@@YAXXZ 0000000180002b80 f   GuTriangleMeshRTree.obj
 0001:00001b90       ??__EminV4Error@_VecMathTests@aos@shdfnd@physx@@YAXXZ 0000000180002b90 f   GuTriangleMeshRTree.obj
 0001:00001ba0       ??__EmaxFError@_VecMathTests@aos@shdfnd@physx@@YAXXZ 0000000180002ba0 f   GuBV32Build.obj
 0001:00001bb0       ??__EmaxV3Error@_VecMathTests@aos@shdfnd@physx@@YAXXZ 0000000180002bb0 f   GuBV32Build.obj
 0001:00001bc0       ??__EmaxV4Error@_VecMathTests@aos@shdfnd@physx@@YAXXZ 0000000180002bc0 f   GuBV32Build.obj
 0001:00001bd0       ??__EminFError@_VecMathTests@aos@shdfnd@physx@@YAXXZ 0000000180002bd0 f   GuBV32Build.obj
 0001:00001be0       ??__EminV3Error@_VecMathTests@aos@shdfnd@physx@@YAXXZ 0000000180002be0 f   GuBV32Build.obj
 0001:00001bf0       ??__EminV4Error@_VecMathTests@aos@shdfnd@physx@@YAXXZ 0000000180002bf0 f   GuBV32Build.obj
 0001:00001c00       ??__EmaxFError@_VecMathTests@aos@shdfnd@physx@@YAXXZ 0000000180002c00 f   GuPCMContactBoxBox.obj
 0001:00001c10       ??__EmaxV3Error@_VecMathTests@aos@shdfnd@physx@@YAXXZ 0000000180002c10 f   GuPCMContactBoxBox.obj
 0001:00001c20       ??__EmaxV4Error@_VecMathTests@aos@shdfnd@physx@@YAXXZ 0000000180002c20 f   GuPCMContactBoxBox.obj
 0001:00001c30       ??__EminFError@_VecMathTests@aos@shdfnd@physx@@YAXXZ 0000000180002c30 f   GuPCMContactBoxBox.obj
 0001:00001c40       ??__EminV3Error@_VecMathTests@aos@shdfnd@physx@@YAXXZ 0000000180002c40 f   GuPCMContactBoxBox.obj
 0001:00001c50       ??__EminV4Error@_VecMathTests@aos@shdfnd@physx@@YAXXZ 0000000180002c50 f   GuPCMContactBoxBox.obj
 0001:00001c60       ??__EmaxFError@_VecMathTests@aos@shdfnd@physx@@YAXXZ 0000000180002c60 f   GuPCMContactBoxConvex.obj
 0001:00001c70       ??__EmaxV3Error@_VecMathTests@aos@shdfnd@physx@@YAXXZ 0000000180002c70 f   GuPCMContactBoxConvex.obj
 0001:00001c80       ??__EmaxV4Error@_VecMathTests@aos@shdfnd@physx@@YAXXZ 0000000180002c80 f   GuPCMContactBoxConvex.obj
 0001:00001c90       ??__EminFError@_VecMathTests@aos@shdfnd@physx@@YAXXZ 0000000180002c90 f   GuPCMContactBoxConvex.obj
 0001:00001ca0       ??__EminV3Error@_VecMathTests@aos@shdfnd@physx@@YAXXZ 0000000180002ca0 f   GuPCMContactBoxConvex.obj
 0001:00001cb0       ??__EminV4Error@_VecMathTests@aos@shdfnd@physx@@YAXXZ 0000000180002cb0 f   GuPCMContactBoxConvex.obj
 0001:00001cc0       ??__EmaxFError@_VecMathTests@aos@shdfnd@physx@@YAXXZ 0000000180002cc0 f   GuPCMContactCapsuleBox.obj
 0001:00001cd0       ??__EmaxV3Error@_VecMathTests@aos@shdfnd@physx@@YAXXZ 0000000180002cd0 f   GuPCMContactCapsuleBox.obj
 0001:00001ce0       ??__EmaxV4Error@_VecMathTests@aos@shdfnd@physx@@YAXXZ 0000000180002ce0 f   GuPCMContactCapsuleBox.obj
 0001:00001cf0       ??__EminFError@_VecMathTests@aos@shdfnd@physx@@YAXXZ 0000000180002cf0 f   GuPCMContactCapsuleBox.obj
 0001:00001d00       ??__EminV3Error@_VecMathTests@aos@shdfnd@physx@@YAXXZ 0000000180002d00 f   GuPCMContactCapsuleBox.obj
 0001:00001d10       ??__EminV4Error@_VecMathTests@aos@shdfnd@physx@@YAXXZ 0000000180002d10 f   GuPCMContactCapsuleBox.obj
 0001:00001d20       ??__EmaxFError@_VecMathTests@aos@shdfnd@physx@@YAXXZ 0000000180002d20 f   GuPCMContactCapsuleCapsule.obj
 0001:00001d30       ??__EmaxV3Error@_VecMathTests@aos@shdfnd@physx@@YAXXZ 0000000180002d30 f   GuPCMContactCapsuleCapsule.obj
 0001:00001d40       ??__EmaxV4Error@_VecMathTests@aos@shdfnd@physx@@YAXXZ 0000000180002d40 f   GuPCMContactCapsuleCapsule.obj
 0001:00001d50       ??__EminFError@_VecMathTests@aos@shdfnd@physx@@YAXXZ 0000000180002d50 f   GuPCMContactCapsuleCapsule.obj
 0001:00001d60       ??__EminV3Error@_VecMathTests@aos@shdfnd@physx@@YAXXZ 0000000180002d60 f   GuPCMContactCapsuleCapsule.obj
 0001:00001d70       ??__EminV4Error@_VecMathTests@aos@shdfnd@physx@@YAXXZ 0000000180002d70 f   GuPCMContactCapsuleCapsule.obj
 0001:00001d80       ??__EmaxFError@_VecMathTests@aos@shdfnd@physx@@YAXXZ 0000000180002d80 f   GuPCMContactCapsuleConvex.obj
 0001:00001d90       ??__EmaxV3Error@_VecMathTests@aos@shdfnd@physx@@YAXXZ 0000000180002d90 f   GuPCMContactCapsuleConvex.obj
 0001:00001da0       ??__EmaxV4Error@_VecMathTests@aos@shdfnd@physx@@YAXXZ 0000000180002da0 f   GuPCMContactCapsuleConvex.obj
 0001:00001db0       ??__EminFError@_VecMathTests@aos@shdfnd@physx@@YAXXZ 0000000180002db0 f   GuPCMContactCapsuleConvex.obj
 0001:00001dc0       ??__EminV3Error@_VecMathTests@aos@shdfnd@physx@@YAXXZ 0000000180002dc0 f   GuPCMContactCapsuleConvex.obj
 0001:00001dd0       ??__EminV4Error@_VecMathTests@aos@shdfnd@physx@@YAXXZ 0000000180002dd0 f   GuPCMContactCapsuleConvex.obj
 0001:00001de0       ??__EmaxFError@_VecMathTests@aos@shdfnd@physx@@YAXXZ 0000000180002de0 f   GuPCMContactCapsuleHeightField.obj
 0001:00001df0       ??__EmaxV3Error@_VecMathTests@aos@shdfnd@physx@@YAXXZ 0000000180002df0 f   GuPCMContactCapsuleHeightField.obj
 0001:00001e00       ??__EmaxV4Error@_VecMathTests@aos@shdfnd@physx@@YAXXZ 0000000180002e00 f   GuPCMContactCapsuleHeightField.obj
 0001:00001e10       ??__EminFError@_VecMathTests@aos@shdfnd@physx@@YAXXZ 0000000180002e10 f   GuPCMContactCapsuleHeightField.obj
 0001:00001e20       ??__EminV3Error@_VecMathTests@aos@shdfnd@physx@@YAXXZ 0000000180002e20 f   GuPCMContactCapsuleHeightField.obj
 0001:00001e30       ??__EminV4Error@_VecMathTests@aos@shdfnd@physx@@YAXXZ 0000000180002e30 f   GuPCMContactCapsuleHeightField.obj
 0001:00001e40       ??__EmaxFError@_VecMathTests@aos@shdfnd@physx@@YAXXZ 0000000180002e40 f   GuPCMContactCapsuleMesh.obj
 0001:00001e50       ??__EmaxV3Error@_VecMathTests@aos@shdfnd@physx@@YAXXZ 0000000180002e50 f   GuPCMContactCapsuleMesh.obj
 0001:00001e60       ??__EmaxV4Error@_VecMathTests@aos@shdfnd@physx@@YAXXZ 0000000180002e60 f   GuPCMContactCapsuleMesh.obj
 0001:00001e70       ??__EminFError@_VecMathTests@aos@shdfnd@physx@@YAXXZ 0000000180002e70 f   GuPCMContactCapsuleMesh.obj
 0001:00001e80       ??__EminV3Error@_VecMathTests@aos@shdfnd@physx@@YAXXZ 0000000180002e80 f   GuPCMContactCapsuleMesh.obj
 0001:00001e90       ??__EminV4Error@_VecMathTests@aos@shdfnd@physx@@YAXXZ 0000000180002e90 f   GuPCMContactCapsuleMesh.obj
 0001:00001ea0       ??__EmaxFError@_VecMathTests@aos@shdfnd@physx@@YAXXZ 0000000180002ea0 f   GuPCMContactConvexCommon.obj
 0001:00001eb0       ??__EmaxV3Error@_VecMathTests@aos@shdfnd@physx@@YAXXZ 0000000180002eb0 f   GuPCMContactConvexCommon.obj
 0001:00001ec0       ??__EmaxV4Error@_VecMathTests@aos@shdfnd@physx@@YAXXZ 0000000180002ec0 f   GuPCMContactConvexCommon.obj
 0001:00001ed0       ??__EminFError@_VecMathTests@aos@shdfnd@physx@@YAXXZ 0000000180002ed0 f   GuPCMContactConvexCommon.obj
 0001:00001ee0       ??__EminV3Error@_VecMathTests@aos@shdfnd@physx@@YAXXZ 0000000180002ee0 f   GuPCMContactConvexCommon.obj
 0001:00001ef0       ??__EminV4Error@_VecMathTests@aos@shdfnd@physx@@YAXXZ 0000000180002ef0 f   GuPCMContactConvexCommon.obj
 0001:00001f00       ??__EmaxFError@_VecMathTests@aos@shdfnd@physx@@YAXXZ 0000000180002f00 f   GuPCMContactConvexConvex.obj
 0001:00001f10       ??__EmaxV3Error@_VecMathTests@aos@shdfnd@physx@@YAXXZ 0000000180002f10 f   GuPCMContactConvexConvex.obj
 0001:00001f20       ??__EmaxV4Error@_VecMathTests@aos@shdfnd@physx@@YAXXZ 0000000180002f20 f   GuPCMContactConvexConvex.obj
 0001:00001f30       ??__EminFError@_VecMathTests@aos@shdfnd@physx@@YAXXZ 0000000180002f30 f   GuPCMContactConvexConvex.obj
 0001:00001f40       ??__EminV3Error@_VecMathTests@aos@shdfnd@physx@@YAXXZ 0000000180002f40 f   GuPCMContactConvexConvex.obj
 0001:00001f50       ??__EminV4Error@_VecMathTests@aos@shdfnd@physx@@YAXXZ 0000000180002f50 f   GuPCMContactConvexConvex.obj
 0001:00001f60       ??__EmaxFError@_VecMathTests@aos@shdfnd@physx@@YAXXZ 0000000180002f60 f   GuPCMContactConvexHeightField.obj
 0001:00001f70       ??__EmaxV3Error@_VecMathTests@aos@shdfnd@physx@@YAXXZ 0000000180002f70 f   GuPCMContactConvexHeightField.obj
 0001:00001f80       ??__EmaxV4Error@_VecMathTests@aos@shdfnd@physx@@YAXXZ 0000000180002f80 f   GuPCMContactConvexHeightField.obj
 0001:00001f90       ??__EminFError@_VecMathTests@aos@shdfnd@physx@@YAXXZ 0000000180002f90 f   GuPCMContactConvexHeightField.obj
 0001:00001fa0       ??__EminV3Error@_VecMathTests@aos@shdfnd@physx@@YAXXZ 0000000180002fa0 f   GuPCMContactConvexHeightField.obj
 0001:00001fb0       ??__EminV4Error@_VecMathTests@aos@shdfnd@physx@@YAXXZ 0000000180002fb0 f   GuPCMContactConvexHeightField.obj
 0001:00001fc0       ??__EmaxFError@_VecMathTests@aos@shdfnd@physx@@YAXXZ 0000000180002fc0 f   GuPCMContactConvexMesh.obj
 0001:00001fd0       ??__EmaxV3Error@_VecMathTests@aos@shdfnd@physx@@YAXXZ 0000000180002fd0 f   GuPCMContactConvexMesh.obj
 0001:00001fe0       ??__EmaxV4Error@_VecMathTests@aos@shdfnd@physx@@YAXXZ 0000000180002fe0 f   GuPCMContactConvexMesh.obj
 0001:00001ff0       ??__EminFError@_VecMathTests@aos@shdfnd@physx@@YAXXZ 0000000180002ff0 f   GuPCMContactConvexMesh.obj
 0001:00002000       ??__EminV3Error@_VecMathTests@aos@shdfnd@physx@@YAXXZ 0000000180003000 f   GuPCMContactConvexMesh.obj
 0001:00002010       ??__EminV4Error@_VecMathTests@aos@shdfnd@physx@@YAXXZ 0000000180003010 f   GuPCMContactConvexMesh.obj
 0001:00002020       ??__EmaxFError@_VecMathTests@aos@shdfnd@physx@@YAXXZ 0000000180003020 f   GuPCMContactGenBoxConvex.obj
 0001:00002030       ??__EmaxV3Error@_VecMathTests@aos@shdfnd@physx@@YAXXZ 0000000180003030 f   GuPCMContactGenBoxConvex.obj
 0001:00002040       ??__EmaxV4Error@_VecMathTests@aos@shdfnd@physx@@YAXXZ 0000000180003040 f   GuPCMContactGenBoxConvex.obj
 0001:00002050       ??__EminFError@_VecMathTests@aos@shdfnd@physx@@YAXXZ 0000000180003050 f   GuPCMContactGenBoxConvex.obj
 0001:00002060       ??__EminV3Error@_VecMathTests@aos@shdfnd@physx@@YAXXZ 0000000180003060 f   GuPCMContactGenBoxConvex.obj
 0001:00002070       ??__EminV4Error@_VecMathTests@aos@shdfnd@physx@@YAXXZ 0000000180003070 f   GuPCMContactGenBoxConvex.obj
 0001:00002080       ??__EmaxFError@_VecMathTests@aos@shdfnd@physx@@YAXXZ 0000000180003080 f   GuPCMContactGenSphereCapsule.obj
 0001:00002090       ??__EmaxV3Error@_VecMathTests@aos@shdfnd@physx@@YAXXZ 0000000180003090 f   GuPCMContactGenSphereCapsule.obj
 0001:000020a0       ??__EmaxV4Error@_VecMathTests@aos@shdfnd@physx@@YAXXZ 00000001800030a0 f   GuPCMContactGenSphereCapsule.obj
 0001:000020b0       ??__EminFError@_VecMathTests@aos@shdfnd@physx@@YAXXZ 00000001800030b0 f   GuPCMContactGenSphereCapsule.obj
 0001:000020c0       ??__EminV3Error@_VecMathTests@aos@shdfnd@physx@@YAXXZ 00000001800030c0 f   GuPCMContactGenSphereCapsule.obj
 0001:000020d0       ??__EminV4Error@_VecMathTests@aos@shdfnd@physx@@YAXXZ 00000001800030d0 f   GuPCMContactGenSphereCapsule.obj
 0001:000020e0       ??__EmaxFError@_VecMathTests@aos@shdfnd@physx@@YAXXZ 00000001800030e0 f   GuPCMContactPlaneBox.obj
 0001:000020f0       ??__EmaxV3Error@_VecMathTests@aos@shdfnd@physx@@YAXXZ 00000001800030f0 f   GuPCMContactPlaneBox.obj
 0001:00002100       ??__EmaxV4Error@_VecMathTests@aos@shdfnd@physx@@YAXXZ 0000000180003100 f   GuPCMContactPlaneBox.obj
 0001:00002110       ??__EminFError@_VecMathTests@aos@shdfnd@physx@@YAXXZ 0000000180003110 f   GuPCMContactPlaneBox.obj
 0001:00002120       ??__EminV3Error@_VecMathTests@aos@shdfnd@physx@@YAXXZ 0000000180003120 f   GuPCMContactPlaneBox.obj
 0001:00002130       ??__EminV4Error@_VecMathTests@aos@shdfnd@physx@@YAXXZ 0000000180003130 f   GuPCMContactPlaneBox.obj
 0001:00002140       ??__EmaxFError@_VecMathTests@aos@shdfnd@physx@@YAXXZ 0000000180003140 f   GuPCMContactPlaneCapsule.obj
 0001:00002150       ??__EmaxV3Error@_VecMathTests@aos@shdfnd@physx@@YAXXZ 0000000180003150 f   GuPCMContactPlaneCapsule.obj
 0001:00002160       ??__EmaxV4Error@_VecMathTests@aos@shdfnd@physx@@YAXXZ 0000000180003160 f   GuPCMContactPlaneCapsule.obj
 0001:00002170       ??__EminFError@_VecMathTests@aos@shdfnd@physx@@YAXXZ 0000000180003170 f   GuPCMContactPlaneCapsule.obj
 0001:00002180       ??__EminV3Error@_VecMathTests@aos@shdfnd@physx@@YAXXZ 0000000180003180 f   GuPCMContactPlaneCapsule.obj
 0001:00002190       ??__EminV4Error@_VecMathTests@aos@shdfnd@physx@@YAXXZ 0000000180003190 f   GuPCMContactPlaneCapsule.obj
 0001:000021a0       ??__EmaxFError@_VecMathTests@aos@shdfnd@physx@@YAXXZ 00000001800031a0 f   GuPCMContactPlaneConvex.obj
 0001:000021b0       ??__EmaxV3Error@_VecMathTests@aos@shdfnd@physx@@YAXXZ 00000001800031b0 f   GuPCMContactPlaneConvex.obj
 0001:000021c0       ??__EmaxV4Error@_VecMathTests@aos@shdfnd@physx@@YAXXZ 00000001800031c0 f   GuPCMContactPlaneConvex.obj
 0001:000021d0       ??__EminFError@_VecMathTests@aos@shdfnd@physx@@YAXXZ 00000001800031d0 f   GuPCMContactPlaneConvex.obj
 0001:000021e0       ??__EminV3Error@_VecMathTests@aos@shdfnd@physx@@YAXXZ 00000001800031e0 f   GuPCMContactPlaneConvex.obj
 0001:000021f0       ??__EminV4Error@_VecMathTests@aos@shdfnd@physx@@YAXXZ 00000001800031f0 f   GuPCMContactPlaneConvex.obj
 0001:00002200       ??__EmaxFError@_VecMathTests@aos@shdfnd@physx@@YAXXZ 0000000180003200 f   GuPCMContactSphereBox.obj
 0001:00002210       ??__EmaxV3Error@_VecMathTests@aos@shdfnd@physx@@YAXXZ 0000000180003210 f   GuPCMContactSphereBox.obj
 0001:00002220       ??__EmaxV4Error@_VecMathTests@aos@shdfnd@physx@@YAXXZ 0000000180003220 f   GuPCMContactSphereBox.obj
 0001:00002230       ??__EminFError@_VecMathTests@aos@shdfnd@physx@@YAXXZ 0000000180003230 f   GuPCMContactSphereBox.obj
 0001:00002240       ??__EminV3Error@_VecMathTests@aos@shdfnd@physx@@YAXXZ 0000000180003240 f   GuPCMContactSphereBox.obj
 0001:00002250       ??__EminV4Error@_VecMathTests@aos@shdfnd@physx@@YAXXZ 0000000180003250 f   GuPCMContactSphereBox.obj
 0001:00002260       ??__EmaxFError@_VecMathTests@aos@shdfnd@physx@@YAXXZ 0000000180003260 f   GuPCMContactSphereCapsule.obj
 0001:00002270       ??__EmaxV3Error@_VecMathTests@aos@shdfnd@physx@@YAXXZ 0000000180003270 f   GuPCMContactSphereCapsule.obj
 0001:00002280       ??__EmaxV4Error@_VecMathTests@aos@shdfnd@physx@@YAXXZ 0000000180003280 f   GuPCMContactSphereCapsule.obj
 0001:00002290       ??__EminFError@_VecMathTests@aos@shdfnd@physx@@YAXXZ 0000000180003290 f   GuPCMContactSphereCapsule.obj
 0001:000022a0       ??__EminV3Error@_VecMathTests@aos@shdfnd@physx@@YAXXZ 00000001800032a0 f   GuPCMContactSphereCapsule.obj
 0001:000022b0       ??__EminV4Error@_VecMathTests@aos@shdfnd@physx@@YAXXZ 00000001800032b0 f   GuPCMContactSphereCapsule.obj
 0001:000022c0       ??__EmaxFError@_VecMathTests@aos@shdfnd@physx@@YAXXZ 00000001800032c0 f   GuPCMContactSphereConvex.obj
 0001:000022d0       ??__EmaxV3Error@_VecMathTests@aos@shdfnd@physx@@YAXXZ 00000001800032d0 f   GuPCMContactSphereConvex.obj
 0001:000022e0       ??__EmaxV4Error@_VecMathTests@aos@shdfnd@physx@@YAXXZ 00000001800032e0 f   GuPCMContactSphereConvex.obj
 0001:000022f0       ??__EminFError@_VecMathTests@aos@shdfnd@physx@@YAXXZ 00000001800032f0 f   GuPCMContactSphereConvex.obj
 0001:00002300       ??__EminV3Error@_VecMathTests@aos@shdfnd@physx@@YAXXZ 0000000180003300 f   GuPCMContactSphereConvex.obj
 0001:00002310       ??__EminV4Error@_VecMathTests@aos@shdfnd@physx@@YAXXZ 0000000180003310 f   GuPCMContactSphereConvex.obj
 0001:00002320       ??__EmaxFError@_VecMathTests@aos@shdfnd@physx@@YAXXZ 0000000180003320 f   GuPCMContactSphereHeightField.obj
 0001:00002330       ??__EmaxV3Error@_VecMathTests@aos@shdfnd@physx@@YAXXZ 0000000180003330 f   GuPCMContactSphereHeightField.obj
 0001:00002340       ??__EmaxV4Error@_VecMathTests@aos@shdfnd@physx@@YAXXZ 0000000180003340 f   GuPCMContactSphereHeightField.obj
 0001:00002350       ??__EminFError@_VecMathTests@aos@shdfnd@physx@@YAXXZ 0000000180003350 f   GuPCMContactSphereHeightField.obj
 0001:00002360       ??__EminV3Error@_VecMathTests@aos@shdfnd@physx@@YAXXZ 0000000180003360 f   GuPCMContactSphereHeightField.obj
 0001:00002370       ??__EminV4Error@_VecMathTests@aos@shdfnd@physx@@YAXXZ 0000000180003370 f   GuPCMContactSphereHeightField.obj
 0001:00002380       ??__EmaxFError@_VecMathTests@aos@shdfnd@physx@@YAXXZ 0000000180003380 f   GuPCMContactSphereMesh.obj
 0001:00002390       ??__EmaxV3Error@_VecMathTests@aos@shdfnd@physx@@YAXXZ 0000000180003390 f   GuPCMContactSphereMesh.obj
 0001:000023a0       ??__EmaxV4Error@_VecMathTests@aos@shdfnd@physx@@YAXXZ 00000001800033a0 f   GuPCMContactSphereMesh.obj
 0001:000023b0       ??__EminFError@_VecMathTests@aos@shdfnd@physx@@YAXXZ 00000001800033b0 f   GuPCMContactSphereMesh.obj
 0001:000023c0       ??__EminV3Error@_VecMathTests@aos@shdfnd@physx@@YAXXZ 00000001800033c0 f   GuPCMContactSphereMesh.obj
 0001:000023d0       ??__EminV4Error@_VecMathTests@aos@shdfnd@physx@@YAXXZ 00000001800033d0 f   GuPCMContactSphereMesh.obj
 0001:000023e0       ??__EmaxFError@_VecMathTests@aos@shdfnd@physx@@YAXXZ 00000001800033e0 f   GuPCMContactSpherePlane.obj
 0001:000023f0       ??__EmaxV3Error@_VecMathTests@aos@shdfnd@physx@@YAXXZ 00000001800033f0 f   GuPCMContactSpherePlane.obj
 0001:00002400       ??__EmaxV4Error@_VecMathTests@aos@shdfnd@physx@@YAXXZ 0000000180003400 f   GuPCMContactSpherePlane.obj
 0001:00002410       ??__EminFError@_VecMathTests@aos@shdfnd@physx@@YAXXZ 0000000180003410 f   GuPCMContactSpherePlane.obj
 0001:00002420       ??__EminV3Error@_VecMathTests@aos@shdfnd@physx@@YAXXZ 0000000180003420 f   GuPCMContactSpherePlane.obj
 0001:00002430       ??__EminV4Error@_VecMathTests@aos@shdfnd@physx@@YAXXZ 0000000180003430 f   GuPCMContactSpherePlane.obj
 0001:00002440       ??__EmaxFError@_VecMathTests@aos@shdfnd@physx@@YAXXZ 0000000180003440 f   GuPCMContactSphereSphere.obj
 0001:00002450       ??__EmaxV3Error@_VecMathTests@aos@shdfnd@physx@@YAXXZ 0000000180003450 f   GuPCMContactSphereSphere.obj
 0001:00002460       ??__EmaxV4Error@_VecMathTests@aos@shdfnd@physx@@YAXXZ 0000000180003460 f   GuPCMContactSphereSphere.obj
 0001:00002470       ??__EminFError@_VecMathTests@aos@shdfnd@physx@@YAXXZ 0000000180003470 f   GuPCMContactSphereSphere.obj
 0001:00002480       ??__EminV3Error@_VecMathTests@aos@shdfnd@physx@@YAXXZ 0000000180003480 f   GuPCMContactSphereSphere.obj
 0001:00002490       ??__EminV4Error@_VecMathTests@aos@shdfnd@physx@@YAXXZ 0000000180003490 f   GuPCMContactSphereSphere.obj
 0001:000024a0       ??__EmaxFError@_VecMathTests@aos@shdfnd@physx@@YAXXZ 00000001800034a0 f   GuPCMShapeConvex.obj
 0001:000024b0       ??__EmaxV3Error@_VecMathTests@aos@shdfnd@physx@@YAXXZ 00000001800034b0 f   GuPCMShapeConvex.obj
 0001:000024c0       ??__EmaxV4Error@_VecMathTests@aos@shdfnd@physx@@YAXXZ 00000001800034c0 f   GuPCMShapeConvex.obj
 0001:000024d0       ??__EminFError@_VecMathTests@aos@shdfnd@physx@@YAXXZ 00000001800034d0 f   GuPCMShapeConvex.obj
 0001:000024e0       ??__EminV3Error@_VecMathTests@aos@shdfnd@physx@@YAXXZ 00000001800034e0 f   GuPCMShapeConvex.obj
 0001:000024f0       ??__EminV4Error@_VecMathTests@aos@shdfnd@physx@@YAXXZ 00000001800034f0 f   GuPCMShapeConvex.obj
 0001:00002500       ??__EmaxFError@_VecMathTests@aos@shdfnd@physx@@YAXXZ 0000000180003500 f   GuPCMTriangleContactGen.obj
 0001:00002510       ??__EmaxV3Error@_VecMathTests@aos@shdfnd@physx@@YAXXZ 0000000180003510 f   GuPCMTriangleContactGen.obj
 0001:00002520       ??__EmaxV4Error@_VecMathTests@aos@shdfnd@physx@@YAXXZ 0000000180003520 f   GuPCMTriangleContactGen.obj
 0001:00002530       ??__EminFError@_VecMathTests@aos@shdfnd@physx@@YAXXZ 0000000180003530 f   GuPCMTriangleContactGen.obj
 0001:00002540       ??__EminV3Error@_VecMathTests@aos@shdfnd@physx@@YAXXZ 0000000180003540 f   GuPCMTriangleContactGen.obj
 0001:00002550       ??__EminV4Error@_VecMathTests@aos@shdfnd@physx@@YAXXZ 0000000180003550 f   GuPCMTriangleContactGen.obj
 0001:00002560       ??__EmaxFError@_VecMathTests@aos@shdfnd@physx@@YAXXZ 0000000180003560 f   GuPersistentContactManifold.obj
 0001:00002570       ??__EmaxV3Error@_VecMathTests@aos@shdfnd@physx@@YAXXZ 0000000180003570 f   GuPersistentContactManifold.obj
 0001:00002580       ??__EmaxV4Error@_VecMathTests@aos@shdfnd@physx@@YAXXZ 0000000180003580 f   GuPersistentContactManifold.obj
 0001:00002590       ??__EminFError@_VecMathTests@aos@shdfnd@physx@@YAXXZ 0000000180003590 f   GuPersistentContactManifold.obj
 0001:000025a0       ??__EminV3Error@_VecMathTests@aos@shdfnd@physx@@YAXXZ 00000001800035a0 f   GuPersistentContactManifold.obj
 0001:000025b0       ??__EminV4Error@_VecMathTests@aos@shdfnd@physx@@YAXXZ 00000001800035b0 f   GuPersistentContactManifold.obj
 0001:000025c0       ??__EmaxFError@_VecMathTests@aos@shdfnd@physx@@YAXXZ 00000001800035c0 f   GuSweepBoxBox.obj
 0001:000025d0       ??__EmaxV3Error@_VecMathTests@aos@shdfnd@physx@@YAXXZ 00000001800035d0 f   GuSweepBoxBox.obj
 0001:000025e0       ??__EmaxV4Error@_VecMathTests@aos@shdfnd@physx@@YAXXZ 00000001800035e0 f   GuSweepBoxBox.obj
 0001:000025f0       ??__EminFError@_VecMathTests@aos@shdfnd@physx@@YAXXZ 00000001800035f0 f   GuSweepBoxBox.obj
 0001:00002600       ??__EminV3Error@_VecMathTests@aos@shdfnd@physx@@YAXXZ 0000000180003600 f   GuSweepBoxBox.obj
 0001:00002610       ??__EminV4Error@_VecMathTests@aos@shdfnd@physx@@YAXXZ 0000000180003610 f   GuSweepBoxBox.obj
 0001:00002620       ??__EmaxFError@_VecMathTests@aos@shdfnd@physx@@YAXXZ 0000000180003620 f   GuSweepBoxSphere.obj
 0001:00002630       ??__EmaxV3Error@_VecMathTests@aos@shdfnd@physx@@YAXXZ 0000000180003630 f   GuSweepBoxSphere.obj
 0001:00002640       ??__EmaxV4Error@_VecMathTests@aos@shdfnd@physx@@YAXXZ 0000000180003640 f   GuSweepBoxSphere.obj
 0001:00002650       ??__EminFError@_VecMathTests@aos@shdfnd@physx@@YAXXZ 0000000180003650 f   GuSweepBoxSphere.obj
 0001:00002660       ??__EminV3Error@_VecMathTests@aos@shdfnd@physx@@YAXXZ 0000000180003660 f   GuSweepBoxSphere.obj
 0001:00002670       ??__EminV4Error@_VecMathTests@aos@shdfnd@physx@@YAXXZ 0000000180003670 f   GuSweepBoxSphere.obj
 0001:00002680       ??__EmaxFError@_VecMathTests@aos@shdfnd@physx@@YAXXZ 0000000180003680 f   GuSweepBoxTriangle_FeatureBased.obj
 0001:00002690       ??__EmaxV3Error@_VecMathTests@aos@shdfnd@physx@@YAXXZ 0000000180003690 f   GuSweepBoxTriangle_FeatureBased.obj
 0001:000026a0       ??__EmaxV4Error@_VecMathTests@aos@shdfnd@physx@@YAXXZ 00000001800036a0 f   GuSweepBoxTriangle_FeatureBased.obj
 0001:000026b0       ??__EminFError@_VecMathTests@aos@shdfnd@physx@@YAXXZ 00000001800036b0 f   GuSweepBoxTriangle_FeatureBased.obj
 0001:000026c0       ??__EminV3Error@_VecMathTests@aos@shdfnd@physx@@YAXXZ 00000001800036c0 f   GuSweepBoxTriangle_FeatureBased.obj
 0001:000026d0       ??__EminV4Error@_VecMathTests@aos@shdfnd@physx@@YAXXZ 00000001800036d0 f   GuSweepBoxTriangle_FeatureBased.obj
 0001:000026e0       ??__EmaxFError@_VecMathTests@aos@shdfnd@physx@@YAXXZ 00000001800036e0 f   GuSweepBoxTriangle_SAT.obj
 0001:000026f0       ??__EmaxV3Error@_VecMathTests@aos@shdfnd@physx@@YAXXZ 00000001800036f0 f   GuSweepBoxTriangle_SAT.obj
 0001:00002700       ??__EmaxV4Error@_VecMathTests@aos@shdfnd@physx@@YAXXZ 0000000180003700 f   GuSweepBoxTriangle_SAT.obj
